Component: ARM Compiler 5.06 update 4 (build 422) Tool: armlink [4d35d2]

==============================================================================

Section Cross References

    heap_4.o(.text) refers to tasks.o(.text) for vTaskSuspendAll
    heap_4.o(.text) refers to freertos.o(.text) for vApplicationMallocFailedHook
    heap_4.o(.text) refers to heap_4.o(.data) for xStart
    heap_4.o(.text) refers to main.o(osRam) for ucHeap
    event_groups.o(.text) refers to heap_4.o(.text) for pvPortMalloc
    event_groups.o(.text) refers to list.o(.text) for vListInitialise
    event_groups.o(.text) refers to tasks.o(.text) for vTaskSuspendAll
    event_groups.o(.text) refers to port.o(.text) for vPortEnterCritical
    queue.o(.text) refers to port.o(.text) for vPortEnterCritical
    queue.o(.text) refers to tasks.o(.text) for xTaskRemoveFromEventList
    queue.o(.text) refers to list.o(.text) for vListInitialise
    queue.o(.text) refers to heap_4.o(.text) for pvPortMalloc
    queue.o(.text) refers to memmovea.o(.text) for __aeabi_memcpy
    queue.o(.text) refers to queue.o(.bss) for xQueueRegistry
    port.o(.emb_text) refers to tasks.o(.text) for vTaskSwitchContext
    port.o(.emb_text) refers to tasks.o(.data) for pxCurrentTCB
    port.o(.text) refers to port.o(.emb_text) for __asm___6_port_c_39a90d8d__prvEnableVFP
    port.o(.text) refers to tasks.o(.text) for xTaskIncrementTick
    port.o(.text) refers to port.o(.data) for uxCriticalNesting
    port.o(.text) refers to system_stm32f4xx.o(.data) for SystemCoreClock
    cmsis_os.o(.text) refers to tasks.o(.text) for vTaskStartScheduler
    cmsis_os.o(.text) refers to queue.o(.text) for xQueueCreateMutex
    cmsis_os.o(.text) refers to heap_4.o(.text) for pvPortMalloc
    cmsis_os.o(.text) refers to port.o(.text) for vPortEnterCritical
    tasks.o(.text) refers to list.o(.text) for vListInitialise
    tasks.o(.text) refers to port.o(.text) for vPortEnterCritical
    tasks.o(.text) refers to memseta.o(.text) for __aeabi_memset
    tasks.o(.text) refers to heap_4.o(.text) for pvPortMalloc
    tasks.o(.text) refers to tasks.o(.bss) for pxReadyTasksLists
    tasks.o(.text) refers to tasks.o(.data) for pxDelayedTaskList
    tasks.o(.text) refers to freertos.o(.text) for vApplicationTickHook
    tasks.o(.text) refers to strcpy.o(.text) for strcpy
    tasks.o(.text) refers to strlen.o(.text) for strlen
    tasks.o(.text) refers to printfa.o(i.__0sprintf) for __2sprintf
    crc16.o(.text) refers to crc16.o(.constdata) for crc16tab
    data_cmp.o(.text) refers to strlen.o(.text) for strlen
    dtmf.o(.text) refers to dtmf.o(.bss) for DTMFin
    fcs.o(.text) refers to fcs.o(.constdata) for fcstab
    m_time.o(.text) refers to m_time.o(.constdata) for _ytab
    m_time.o(.text) refers to m_time.o(.data) for _timezone
    packet_queue.o(.text) refers to ringbuf.o(.text) for RINGBUF_Put
    packet_queue.o(.text) refers to strlen.o(.text) for strlen
    sparser.o(.text) refers to ampm_list.o(.text) for list_add
    sparser.o(.text) refers to memmovea.o(.text) for __aeabi_memcpy4
    sparser.o(.text) refers to sys_tick.o(.text) for InitTimeout
    sparser.o(.text) refers to sparser.o(.data) for lastChar
    sys_tick.o(.text) refers to stm32f4xx_hal.o(.text) for HAL_GetTick
    sys_tick.o(.text) refers to sys_tick.o(.data) for sysTickCounter32
    sys_time.o(.text) refers to m_time.o(.text) for mktime
    sys_time.o(.text) refers to sys_time.o(.data) for sysTime
    ampm_filestream.o(.text) refers to main.o(.text) for fputc_stdout
    ampm_filestream.o(.text) refers to stdout.o(.data) for __stdout
    ampm_filestream.o(.text) refers to stdin.o(.data) for __stdin
    startup_stm32f407xx.o(RESET) refers to startup_stm32f407xx.o(STACK) for __initial_sp
    startup_stm32f407xx.o(RESET) refers to startup_stm32f407xx.o(.text) for Reset_Handler
    startup_stm32f407xx.o(RESET) refers to stm32f4xx_it.o(.text) for NMI_Handler
    startup_stm32f407xx.o(RESET) refers to port.o(.emb_text) for SVC_Handler
    startup_stm32f407xx.o(.text) refers to system_stm32f4xx.o(.text) for SystemInit
    startup_stm32f407xx.o(.text) refers to entry.o(.ARM.Collect$$$$00000000) for __main
    stm32f4xx_hal_flash_ex.o(.text) refers to stm32f4xx_hal_flash.o(.text) for FLASH_WaitForLastOperation
    stm32f4xx_hal_flash_ex.o(.text) refers to stm32f4xx_hal_flash.o(.bss) for pFlash
    stm32f4xx_hal_rng.o(.text) refers to stm32f4xx_hal_msp.o(.text) for HAL_RNG_MspInit
    stm32f4xx_hal_rng.o(.text) refers to stm32f4xx_hal.o(.text) for HAL_GetTick
    stm32f4xx_hal_dma.o(.text) refers to stm32f4xx_hal.o(.text) for HAL_GetTick
    stm32f4xx_hal_dma.o(.text) refers to stm32f4xx_hal_dma.o(.constdata) for flagBitshiftOffset
    stm32f4xx_hal_dma.o(.text) refers to system_stm32f4xx.o(.data) for SystemCoreClock
    stm32f4xx_hal_rcc_ex.o(.text) refers to stm32f4xx_hal.o(.text) for HAL_GetTick
    stm32f4xx_hal_rcc_ex.o(.text) refers to stm32f4xx_hal_timebase_tim.o(.text) for HAL_InitTick
    stm32f4xx_hal_rcc_ex.o(.text) refers to system_stm32f4xx.o(.data) for SystemCoreClock
    stm32f4xx_hal_rtc_ex.o(.text) refers to stm32f4xx_hal_rtc.o(.text) for RTC_Bcd2ToByte
    stm32f4xx_hal_rtc_ex.o(.text) refers to stm32f4xx_hal.o(.text) for HAL_GetTick
    stm32f4xx_hal_rtc_ex.o(.text) refers to system_stm32f4xx.o(.data) for SystemCoreClock
    stm32f4xx_hal_pwr_ex.o(.text) refers to stm32f4xx_hal.o(.text) for HAL_GetTick
    stm32f4xx_hal_adc_ex.o(.text) refers to stm32f4xx_hal.o(.text) for HAL_GetTick
    stm32f4xx_hal_adc_ex.o(.text) refers to stm32f4xx_hal_adc.o(.text) for HAL_ADC_ErrorCallback
    stm32f4xx_hal_adc_ex.o(.text) refers to system_stm32f4xx.o(.data) for SystemCoreClock
    stm32f4xx_hal_adc_ex.o(.text) refers to stm32f4xx_hal_dma.o(.text) for HAL_DMA_Start_IT
    stm32f4xx_hal_tim.o(.text) refers to main.o(.text) for HAL_TIM_PeriodElapsedCallback
    stm32f4xx_hal_tim.o(.text) refers to stm32f4xx_hal_dma.o(.text) for HAL_DMA_Start_IT
    stm32f4xx_hal_tim.o(.text) refers to stm32f4xx_hal_tim_ex.o(.text) for HAL_TIMEx_BreakCallback
    stm32f4xx_hal_uart.o(.text) refers to stm32f4xx_hal_rcc.o(.text) for HAL_RCC_GetPCLK2Freq
    stm32f4xx_hal_uart.o(.text) refers to stm32f4xx_hal_msp.o(.text) for HAL_UART_MspInit
    stm32f4xx_hal_uart.o(.text) refers to stm32f4xx_hal.o(.text) for HAL_GetTick
    stm32f4xx_hal_uart.o(.text) refers to stm32f4xx_hal_dma.o(.text) for HAL_DMA_Start_IT
    stm32f4xx_hal_gpio.o(.text) refers to main.o(.text) for HAL_GPIO_EXTI_Callback
    stm32f4xx_hal_rtc.o(.text) refers to stm32f4xx_hal.o(.text) for HAL_GetTick
    stm32f4xx_hal_rtc.o(.text) refers to stm32f4xx_hal_msp.o(.text) for HAL_RTC_MspInit
    stm32f4xx_hal_rtc.o(.text) refers to system_stm32f4xx.o(.data) for SystemCoreClock
    stm32f4xx_hal_rtc.o(.text) refers to main.o(.text) for HAL_RTC_AlarmAEventCallback
    stm32f4xx_hal_rtc.o(.text) refers to stm32f4xx_hal_rtc_ex.o(.text) for HAL_RTCEx_AlarmBEventCallback
    stm32f4xx_hal_iwdg.o(.text) refers to stm32f4xx_hal.o(.text) for HAL_GetTick
    stm32f4xx_hal_tim_ex.o(.text) refers to stm32f4xx_hal_tim.o(.text) for TIM_Base_SetConfig
    stm32f4xx_hal_tim_ex.o(.text) refers to stm32f4xx_hal_dma.o(.text) for HAL_DMA_Start_IT
    stm32f4xx_hal.o(.text) refers to stm32f4xx_hal_cortex.o(.text) for HAL_SYSTICK_Config
    stm32f4xx_hal.o(.text) refers to stm32f4xx_hal_timebase_tim.o(.text) for HAL_InitTick
    stm32f4xx_hal.o(.text) refers to stm32f4xx_hal_msp.o(.text) for HAL_MspInit
    stm32f4xx_hal.o(.text) refers to system_stm32f4xx.o(.data) for SystemCoreClock
    stm32f4xx_hal.o(.text) refers to stm32f4xx_hal.o(.data) for uwTick
    stm32f4xx_hal_flash.o(.text) refers to stm32f4xx_hal.o(.text) for HAL_GetTick
    stm32f4xx_hal_flash.o(.text) refers to stm32f4xx_hal_flash_ex.o(.text) for FLASH_Erase_Sector
    stm32f4xx_hal_flash.o(.text) refers to stm32f4xx_hal_flash.o(.bss) for pFlash
    stm32f4xx_hal_adc.o(.text) refers to stm32f4xx_hal_msp.o(.text) for HAL_ADC_MspInit
    stm32f4xx_hal_adc.o(.text) refers to stm32f4xx_hal.o(.text) for HAL_GetTick
    stm32f4xx_hal_adc.o(.text) refers to system_stm32f4xx.o(.data) for SystemCoreClock
    stm32f4xx_hal_adc.o(.text) refers to stm32f4xx_hal_adc_ex.o(.text) for HAL_ADCEx_InjectedConvCpltCallback
    stm32f4xx_hal_adc.o(.text) refers to stm32f4xx_hal_dma.o(.text) for HAL_DMA_Start_IT
    stm32f4xx_hal_rcc.o(.text) refers to stm32f4xx_hal.o(.text) for HAL_GetTick
    stm32f4xx_hal_rcc.o(.text) refers to uldiv.o(.text) for __aeabi_uldivmod
    stm32f4xx_hal_rcc.o(.text) refers to stm32f4xx_hal_timebase_tim.o(.text) for HAL_InitTick
    stm32f4xx_hal_rcc.o(.text) refers to stm32f4xx_hal_gpio.o(.text) for HAL_GPIO_Init
    stm32f4xx_hal_rcc.o(.text) refers to system_stm32f4xx.o(.constdata) for AHBPrescTable
    stm32f4xx_hal_rcc.o(.text) refers to system_stm32f4xx.o(.data) for SystemCoreClock
    stm32f4xx_hal_spi.o(.text) refers to stm32f4xx_hal_msp.o(.text) for HAL_SPI_MspInit
    stm32f4xx_hal_spi.o(.text) refers to stm32f4xx_hal.o(.text) for HAL_GetTick
    stm32f4xx_hal_spi.o(.text) refers to system_stm32f4xx.o(.data) for SystemCoreClock
    stm32f4xx_hal_spi.o(.text) refers to stm32f4xx_hal_dma.o(.text) for HAL_DMA_Start_IT
    system_stm32f4xx.o(.text) refers to system_stm32f4xx.o(.data) for SystemCoreClock
    system_stm32f4xx.o(.text) refers to system_stm32f4xx.o(.constdata) for AHBPrescTable
    stm32f4xx_hal_timebase_tim.o(.text) refers to stm32f4xx_hal_cortex.o(.text) for HAL_NVIC_SetPriority
    stm32f4xx_hal_timebase_tim.o(.text) refers to stm32f4xx_hal_rcc.o(.text) for HAL_RCC_GetClockConfig
    stm32f4xx_hal_timebase_tim.o(.text) refers to stm32f4xx_hal_tim.o(.text) for HAL_TIM_Base_Init
    stm32f4xx_hal_timebase_tim.o(.text) refers to stm32f4xx_hal_timebase_tim.o(.bss) for htim1
    stm32f4xx_it.o(.text) refers to uart5.o(.text) for mUART5_PutString
    stm32f4xx_it.o(.text) refers to stm32f4xx_hal.o(.text) for HAL_Delay
    stm32f4xx_it.o(.text) refers to cmsis_os.o(.text) for osSystickHandler
    stm32f4xx_it.o(.text) refers to stm32f4xx_hal_dma.o(.text) for HAL_DMA_IRQHandler
    stm32f4xx_it.o(.text) refers to stm32f4xx_hal_gpio.o(.text) for HAL_GPIO_EXTI_IRQHandler
    stm32f4xx_it.o(.text) refers to stm32f4xx_hal_tim.o(.text) for HAL_TIM_IRQHandler
    stm32f4xx_it.o(.text) refers to uart1.o(.text) for mUSART1_IRQHandler
    stm32f4xx_it.o(.text) refers to stm32f4xx_hal_uart.o(.text) for HAL_UART_IRQHandler
    stm32f4xx_it.o(.text) refers to stm32f4xx_hal_rtc.o(.text) for HAL_RTC_AlarmIRQHandler
    stm32f4xx_it.o(.text) refers to uart4.o(.text) for mUART4_IRQHandler
    stm32f4xx_it.o(.text) refers to uart6.o(.text) for mUSART6_IRQHandler
    stm32f4xx_it.o(.text) refers to main.o(.bss) for hdma_uart5_rx
    stm32f4xx_it.o(.text) refers to stm32f4xx_hal_timebase_tim.o(.bss) for htim1
    main.o(.text) refers to cmsis_os.o(.text) for osSemaphoreWait
    main.o(.text) refers to uart5.o(.text) for mUART5_PutChar
    main.o(.text) refers to stm32f4xx_hal_spi.o(.text) for HAL_SPI_Init
    main.o(.text) refers to stm32f4xx_hal_uart.o(.text) for HAL_UART_Init
    main.o(.text) refers to stm32f4xx_hal_rtc.o(.text) for HAL_RTC_Init
    main.o(.text) refers to stm32f4xx_hal_rtc_ex.o(.text) for HAL_RTCEx_BKUPRead
    main.o(.text) refers to stm32f4xx_hal_rng.o(.text) for HAL_RNG_Init
    main.o(.text) refers to stm32f4xx_hal_iwdg.o(.text) for HAL_IWDG_Init
    main.o(.text) refers to stm32f4xx_hal_adc.o(.text) for HAL_ADC_Init
    main.o(.text) refers to stm32f4xx_hal_cortex.o(.text) for HAL_NVIC_SetPriority
    main.o(.text) refers to stdout.o(.data) for __stdout
    main.o(.text) refers to main.o(.data) for putc_sem_id
    main.o(.text) refers to uart_config_task.o(.data) for uart5_config_enable
    main.o(.text) refers to main.o(.bss) for hspi1
    main.o(.text) refers to stm32f4xx_hal_gpio.o(.text) for HAL_GPIO_WritePin
    main.o(.text) refers to stm32f4xx_hal_rcc.o(.text) for HAL_RCC_OscConfig
    main.o(.text) refers to stm32f4xx_hal_rcc_ex.o(.text) for HAL_RCCEx_PeriphCLKConfig
    main.o(.text) refers to stm32f4xx_hal.o(.text) for HAL_Init
    main.o(.text) refers to system_config.o(.text) for CFG_Init
    main.o(.text) refers to sys_time.o(.text) for SysTimeSetup
    main.o(.text) refers to watchdog.o(.text) for SysWatchdogInit
    main.o(.text) refers to relay.o(.text) for relay_init
    main.o(.text) refers to memmovea.o(.text) for __aeabi_memcpy4
    main.o(.text) refers to ampm_gsm_ring.o(.text) for Ampm_SetRinging
    main.o(.text) refers to alarm.o(.text) for Alarm_Callback
    main.o(.text) refers to smartlight.o(.text) for vSmartLightMainTask
    main.o(.text) refers to led.o(.text) for CtrLed
    main.o(.text) refers to uart1.o(.text) for USART1_IsOk
    main.o(.text) refers to system_config.o(.ARM.__AT_0x1000FF80) for variableNoInit
    main.o(.text) refers to main.o(.constdata) for os_semaphore_def_PUTC
    main.o(.text) refers to comm.o(.text) for COMM_PutcRx
    main.o(.text) refers to ampm_gsm_main_task.o(.text) for Ampm_GsmGetPhase
    main.o(.text) refers to at_command_parser.o(.text) for AT_ComnandParser
    main.o(.constdata) refers to main.o(.conststring) for .conststring
    main.o(.constdata) refers to main.o(.text) for StartDefaultTask
    stm32f4xx_hal_msp.o(.text) refers to stm32f4xx_hal_cortex.o(.text) for HAL_NVIC_SetPriorityGrouping
    stm32f4xx_hal_msp.o(.text) refers to stm32f4xx_hal_gpio.o(.text) for HAL_GPIO_Init
    stm32f4xx_hal_msp.o(.text) refers to stm32f4xx_hal_dma.o(.text) for HAL_DMA_Init
    stm32f4xx_hal_msp.o(.text) refers to main.o(.text) for _Error_Handler
    stm32f4xx_hal_msp.o(.text) refers to main.o(.bss) for hdma_adc1
    system_config.o(.text) refers to sys_tick.o(.text) for InitTimeout
    system_config.o(.text) refers to cmsis_os.o(.text) for osSemaphoreCreate
    system_config.o(.text) refers to memmovea.o(.text) for __aeabi_memcpy
    system_config.o(.text) refers to sst25.o(.text) for OS_SST25_Write
    system_config.o(.text) refers to shadow_thing.o(.text) for Trigger_SendParamToServer
    system_config.o(.text) refers to memseta.o(.text) for __aeabi_memset
    system_config.o(.text) refers to system_config.o(.data) for sysResetMcuFlag
    system_config.o(.text) refers to system_config.o(.bss) for tMcuResetTimeout
    system_config.o(.text) refers to system_config.o(.constdata) for os_semaphore_def_CONFIG_SEM
    system_config.o(.text) refers to system_config.o(osRam) for sysCfg
    system_config.o(.text) refers to strcpy.o(.text) for strcpy
    system_config.o(.text) refers to stm32f4xx_hal_flash_ex.o(.text) for HAL_FLASHEx_Erase
    system_config.o(.text) refers to memcmp.o(.text) for memcmp
    system_config.o(.text) refers to stm32f4xx_hal_flash.o(.text) for HAL_FLASH_Unlock
    system_config.o(.text) refers to strlen.o(.text) for strlen
    hardware_rng.o(.text) refers to stm32f4xx_hal_rng.o(.text) for HAL_RNG_GenerateRandomNumber
    hardware_rng.o(.text) refers to memseta.o(.text) for __aeabi_memset
    hardware_rng.o(.text) refers to main.o(.text) for _Error_Handler
    hardware_rng.o(.text) refers to main.o(.bss) for hrng
    shadow_thing.o(.text) refers to _scanf_int.o(.text) for _scanf_int
    shadow_thing.o(.text) refers to printfa.o(i.__0printf) for __2printf
    shadow_thing.o(.text) refers to sys_tick.o(.text) for InitTimeout
    shadow_thing.o(.text) refers to memmovea.o(.text) for __aeabi_memcpy4
    shadow_thing.o(.text) refers to aws_iot_shadow.o(.text) for aws_iot_shadow_init
    shadow_thing.o(.text) refers to strlen.o(.text) for strlen
    shadow_thing.o(.text) refers to memseta.o(.text) for __aeabi_memclr4
    shadow_thing.o(.text) refers to cmsis_os.o(.text) for osSemaphoreCreate
    shadow_thing.o(.text) refers to calloc.o(.text) for calloc
    shadow_thing.o(.text) refers to memory_buffer_alloc.o(.text) for mbedtls_memory_buffer_alloc_init
    shadow_thing.o(.text) refers to tasks.o(.text) for vTaskDelete
    shadow_thing.o(.text) refers to watchdog.o(.text) for SysWatchdogFeed
    shadow_thing.o(.text) refers to ampm_gsm_main_task.o(.text) for Ampm_GsmGPRS_IsWorking
    shadow_thing.o(.text) refers to heap_4.o(.text) for xPortGetFreeHeapSize
    shadow_thing.o(.text) refers to system_config.o(.data) for flagSystemStatus
    shadow_thing.o(.text) refers to shadow_thing.o(.data) for shadow_thing_fail_times
    shadow_thing.o(.text) refers to platform.o(.data) for mbedtls_free
    shadow_thing.o(.text) refers to system_config.o(osRam) for sysCfg
    shadow_thing.o(.text) refers to shadow_thing.o(.bss) for tUpdateInterval
    shadow_thing.o(.text) refers to aws_iot_shadow.o(.constdata) for ShadowInitParametersDefault
    shadow_thing.o(.text) refers to shadow_thing.o(.constdata) for __func__
    shadow_thing.o(.text) refers to printfa.o(i.__0sprintf) for __2sprintf
    shadow_thing.o(.text) refers to system_config.o(.bss) for deviceCfg
    shadow_thing.o(.text) refers to aws_iot_shadow_json.o(.text) for aws_iot_shadow_init_json_document
    shadow_thing.o(.text) refers to strcpy.o(.text) for strcpy
    shadow_thing.o(.text) refers to shadow_thing.o(.conststring) for .conststring
    shadow_thing.o(.text) refers to power_sensor.o(.bss) for powerLine1
    shadow_thing.o(.text) refers to alarm.o(.text) for Alarm_GetSize
    shadow_thing.o(.text) refers to strcat.o(.text) for strcat
    shadow_thing.o(.text) refers to system_config.o(.ARM.__AT_0x1000FF80) for variableNoInit
    shadow_thing.o(.text) refers to strstr.o(.text) for strstr
    shadow_thing.o(.text) refers to relay.o(.text) for relay_on
    shadow_thing.o(.text) refers to system_config.o(.text) for CFG_Save
    shadow_thing.o(.text) refers to __0sscanf.o(.text) for __0sscanf
    shadow_thing.o(.text) refers to jsmn.o(.text) for jsmn_init
    shadow_thing.o(.text) refers to aws_iot_json_utils.o(.text) for jsoneq
    shadow_thing.o(.constdata) refers to shadow_thing.o(.conststring) for .conststring
    shadow_thing.o(.constdata) refers to ampm_gsm_common.o(.data) for gsmSignal
    shadow_thing.o(.constdata) refers to ampm_gsm_startup.o(.bss) for gsmSimCPOSBuf
    shadow_thing.o(.constdata) refers to main.o(.data) for life_span
    shadow_thing.o(.constdata) refers to system_config.o(osRam) for sysCfg
    shadow_thing.o(.constdata) refers to shadow_thing.o(.text) for Cmds_Status_DeltaCallback
    shadow_thing.o(.constdata) refers to system_config.o(.bss) for deviceCfg
    ntp_server.o(.text) refers to cmsis_os.o(.text) for osDelay
    ntp_server.o(.text) refers to ampm_gsm_main_task.o(.text) for Ampm_GsmGPRS_IsWorking
    ntp_server.o(.text) refers to lwip_net_socket.o(.text) for lwip_net_connect
    ntp_server.o(.text) refers to printfa.o(i.__0printf) for __2printf
    ntp_server.o(.text) refers to memseta.o(.text) for __aeabi_memclr
    ntp_server.o(.text) refers to sys_time.o(.text) for UpdateRtcTime
    ntp_server.o(.text) refers to alarm.o(.text) for RTC_SetTime
    ntp_server.o(.text) refers to memmovea.o(.text) for __aeabi_memcpy4
    ntp_server.o(.text) refers to ntp_server.o(.data) for ntp_socket
    ntp_server.o(.text) refers to ntp_server.o(.bss) for ntp_packet
    ntp_server.o(.text) refers to sys_time.o(.data) for sysTime
    ntp_server.o(.text) refers to ntp_server.o(.constdata) for .constdata
    ntp_server.o(.constdata) refers to ntp_server.o(.conststring) for .conststring
    ntp_server.o(.constdata) refers to ntp_server.o(.text) for vNTP_Task
    smartlight.o(.text) refers to led.o(.text) for LedInit
    smartlight.o(.text) refers to watchdog.o(.text) for SysWatchdogDisable
    smartlight.o(.text) refers to sst25.o(.text) for SST25_Init
    smartlight.o(.text) refers to ampm_gsm_main_task.o(.text) for AMPM_GSM_Init
    smartlight.o(.text) refers to system_config.o(.text) for DeviceCfg_Load
    smartlight.o(.text) refers to relay.o(.text) for relay_on
    smartlight.o(.text) refers to shadow_thing.o(.text) for iot_shadow_thing_start
    smartlight.o(.text) refers to uart_config_task.o(.text) for UartConfigTaskInit
    smartlight.o(.text) refers to printfa.o(i.__0printf) for __2printf
    smartlight.o(.text) refers to ota_backup_server.o(.text) for ota_backup_start
    smartlight.o(.text) refers to power_sensor.o(.text) for PowerSensor_Init
    smartlight.o(.text) refers to ntp_server.o(.text) for ntp_start
    smartlight.o(.text) refers to alarm.o(.text) for Alarm_Callback
    smartlight.o(.text) refers to cmsis_os.o(.text) for osDelay
    smartlight.o(.text) refers to heap_4.o(.text) for xPortGetFreeHeapSize
    smartlight.o(.text) refers to lwip_stats.o(.text) for stats_display_mem
    smartlight.o(.text) refers to io_control.o(.text) for IO_ToggleSetStatus
    smartlight.o(.text) refers to sms_task.o(.text) for SendReportSmsToUser
    smartlight.o(.text) refers to system_config.o(.ARM.__AT_0x1000FF80) for variableNoInit
    smartlight.o(.text) refers to system_config.o(osRam) for deviceIoStatus
    smartlight.o(.text) refers to smartlight.o(.data) for smartLightMainCnt
    smartlight.o(.text) refers to lwip_stats.o(.bss) for lwip_stats
    smartlight.o(.text) refers to system_config.o(.data) for flagSystemStatus
    smartlight.o(.text) refers to led.o(.bss) for io_network_led
    ota_server.o(.text) refers to _scanf_int.o(.text) for _scanf_int
    ota_server.o(.text) refers to _scanf_str.o(.text) for _scanf_string
    ota_server.o(.text) refers to memseta.o(.text) for __aeabi_memclr4
    ota_server.o(.text) refers to sha256.o(.text) for mbedtls_sha256_init
    ota_server.o(.text) refers to strlen.o(.text) for strlen
    ota_server.o(.text) refers to base64.o(.text) for mbedtls_base64_encode
    ota_server.o(.text) refers to printfa.o(i.__0printf) for __2printf
    ota_server.o(.text) refers to printfa.o(i.__0sprintf) for __2sprintf
    ota_server.o(.text) refers to strstr.o(.text) for strstr
    ota_server.o(.text) refers to network_mbedtls_wrapper.o(.text) for iot_tls_init
    ota_server.o(.text) refers to aws_timer.o(.text) for init_timer
    ota_server.o(.text) refers to cmsis_os.o(.text) for osDelay
    ota_server.o(.text) refers to ampm_gsm_main_task.o(.text) for Ampm_GsmGPRS_IsWorking
    ota_server.o(.text) refers to heap_4.o(.text) for pvPortMalloc
    ota_server.o(.text) refers to __0sscanf.o(.text) for __0sscanf
    ota_server.o(.text) refers to memmovea.o(.text) for __aeabi_memcpy
    ota_server.o(.text) refers to strcpy.o(.text) for strcpy
    ota_server.o(.text) refers to ota_server.o(.data) for http_request
    ota_server.o(.text) refers to ota_server.o(.conststring) for .conststring
    ota_server.o(.text) refers to sst25.o(.text) for OS_SST25_Read
    ota_server.o(.text) refers to lwip_net_socket.o(.text) for lwip_net_connect
    ota_server.o(.text) refers to system_config.o(.text) for ResetMcuSet
    ota_server.o(.text) refers to tasks.o(.text) for vTaskDelete
    ota_server.o(.text) refers to ota_server.o(.constdata) for .constdata
    ota_server.o(.constdata) refers to ota_server.o(.conststring) for .conststring
    ota_server.o(.constdata) refers to ota_server.o(.text) for vOTA_Task
    ota_server.o(.data) refers to ota_server.o(.conststring) for .conststring
    watchdog.o(.text) refers to cmsis_os.o(.text) for osSemaphoreCreate
    watchdog.o(.text) refers to printfa.o(i.__0printf) for __2printf
    watchdog.o(.text) refers to printfa.o(i.__0sprintf) for __2sprintf
    watchdog.o(.text) refers to uart5.o(.text) for mUART5_PutString
    watchdog.o(.text) refers to watchdog.o(.constdata) for os_semaphore_def_WATCHDOG_SEM
    watchdog.o(.text) refers to watchdog.o(.data) for watchdog_sem_id
    watchdog.o(.text) refers to watchdog.o(.bss) for watchdogEnable
    sms_task.o(.text) refers to _scanf_str.o(.text) for _scanf_string
    sms_task.o(.text) refers to _scanf_int.o(.text) for _scanf_int
    sms_task.o(.text) refers to scanf_fp.o(.text) for _scanf_real
    sms_task.o(.text) refers to ampm_gsm_call.o(.text) for Ampm_ComparePhoneNumber
    sms_task.o(.text) refers to stm32f4xx_hal_gpio.o(.text) for HAL_GPIO_ReadPin
    sms_task.o(.text) refers to system_config.o(.text) for OS_DeviceIoStatus_Save
    sms_task.o(.text) refers to alarm.o(.text) for RTC_UpdateNewTime
    sms_task.o(.text) refers to printfa.o(i.__0sprintf) for __2sprintf
    sms_task.o(.text) refers to strlen.o(.text) for strlen
    sms_task.o(.text) refers to ampm_gsm_sms_api.o(.text) for AmpmGsm_SendSmsText
    sms_task.o(.text) refers to printfa.o(i.__0printf) for __2printf
    sms_task.o(.text) refers to strcpy.o(.text) for strcpy
    sms_task.o(.text) refers to relay.o(.text) for relay_off
    sms_task.o(.text) refers to system_config.o(osRam) for sysCfg
    sms_task.o(.text) refers to sms_task.o(.data) for power_good_high_cnt
    sms_task.o(.text) refers to system_config.o(.ARM.__AT_0x1000FF80) for variableNoInit
    sms_task.o(.text) refers to sys_time.o(.data) for sysTime
    sms_task.o(.text) refers to ampm_gsm_call.o(.bss) for incomingCall
    sms_task.o(.text) refers to ampm_gsm_call.o(.data) for ampm_GotIncomingNumberFlag
    sms_task.o(.text) refers to sms_task.o(.bss) for imcommingPhoneNo
    sms_task.o(.text) refers to heap_4.o(.text) for pvPortMalloc
    sms_task.o(.text) refers to memseta.o(.text) for __aeabi_memclr
    sms_task.o(.text) refers to strcat.o(.text) for strcat
    sms_task.o(.text) refers to ctype_o.o(.text) for __rt_ctype_table
    sms_task.o(.text) refers to toupper.o(.text) for toupper
    sms_task.o(.text) refers to system_config.o(.bss) for deviceCfg
    sms_task.o(.text) refers to strstr.o(.text) for strstr
    sms_task.o(.text) refers to __0sscanf.o(.text) for __0sscanf
    sms_task.o(.text) refers to ampm_gsm_io.o(.text) for Ampm_SendCommand
    sms_task.o(.text) refers to cmsis_os.o(.text) for osDelay
    sms_task.o(.text) refers to comm.o(.text) for COMM_Getc
    sms_task.o(.text) refers to encoding.o(.text) for ucs2_to_utf8
    sms_task.o(.text) refers to ampm_gsm_ring.o(.text) for Ampm_RingingReset
    sms_task.o(.text) refers to ampm_gsm_sms.o(.bss) for smsSender
    sms_task.o(.text) refers to sms_task.o(.conststring) for .conststring
    sms_task.o(.text) refers to ampm_gsm_io.o(.data) for modemError
    sms_task.o(.text) refers to f2d.o(.text) for __aeabi_f2d
    sms_task.o(.text) refers to memcmp.o(.text) for memcmp
    sms_task.o(.text) refers to stm32f4xx_hal_rtc.o(.text) for HAL_RTC_GetTime
    sms_task.o(.text) refers to main.o(.bss) for hrtc
    sst25.o(.text) refers to stm32f4xx_hal_gpio.o(.text) for HAL_GPIO_WritePin
    sst25.o(.text) refers to spi1.o(.text) for halSpiWriteByte
    sst25.o(.text) refers to cmsis_os.o(.text) for osSemaphoreWait
    sst25.o(.text) refers to sst25.o(.data) for countErrTemp
    sst25.o(.text) refers to memcmp.o(.text) for memcmp
    sst25.o(.text) refers to sst25.o(osRam) for sst25buf
    sst25.o(.text) refers to sst25.o(.constdata) for os_semaphore_def_SST25_SEM
    io_control.o(.text) refers to cmsis_os.o(.text) for osSemaphoreCreate
    io_control.o(.text) refers to io_control.o(.constdata) for os_semaphore_def_IO_CONTROL_SEM
    io_control.o(.text) refers to io_control.o(.data) for io_control_sem_id
    led.o(.text) refers to io_control.o(.text) for IO_ControlInit
    led.o(.text) refers to stm32f4xx_hal_gpio.o(.text) for HAL_GPIO_WritePin
    led.o(.text) refers to led.o(.bss) for io_debug_led
    ota_backup_server.o(.text) refers to sys_tick.o(.text) for CheckTimeout
    ota_backup_server.o(.text) refers to printfa.o(i.__0printf) for __2printf
    ota_backup_server.o(.text) refers to heap_4.o(.text) for pvPortMalloc
    ota_backup_server.o(.text) refers to cmsis_os.o(.text) for osDelay
    ota_backup_server.o(.text) refers to ampm_gsm_main_task.o(.text) for Ampm_GsmGPRS_IsWorking
    ota_backup_server.o(.text) refers to lwip_net_socket.o(.text) for lwip_net_connect
    ota_backup_server.o(.text) refers to memmovea.o(.text) for __aeabi_memcpy
    ota_backup_server.o(.text) refers to app_config_task.o(.text) for CfgParserPacket
    ota_backup_server.o(.text) refers to ampm_gsm_ring.o(.text) for SmsResetIntervalCnt
    ota_backup_server.o(.text) refers to app_config_task.o(.data) for firmwareStatus
    ota_backup_server.o(.text) refers to ota_backup_server.o(.bss) for tFrimwareUpdateTimeout
    ota_backup_server.o(.text) refers to ota_backup_server.o(osRam) for fSendBuff
    ota_backup_server.o(.text) refers to ota_backup_server.o(.data) for ota_buf
    ota_backup_server.o(.text) refers to system_config.o(osRam) for sysCfg
    ota_backup_server.o(.text) refers to ota_backup_server.o(.constdata) for .constdata
    ota_backup_server.o(.constdata) refers to ota_backup_server.o(.conststring) for .conststring
    ota_backup_server.o(.constdata) refers to ota_backup_server.o(.text) for vOTA_Backup_Task
    power_sensor.o(.text) refers to _scanf_int.o(.text) for _scanf_int
    power_sensor.o(.text) refers to scanf_fp.o(.text) for _scanf_real
    power_sensor.o(.text) refers to elster_tasks.o(.text) for MeterElterTasksInit
    power_sensor.o(.text) refers to uart6.o(.text) for mUSART6_PutString
    power_sensor.o(.text) refers to __0sscanf.o(.text) for __0sscanf
    power_sensor.o(.text) refers to memmovea.o(.text) for __aeabi_memcpy4
    power_sensor.o(.text) refers to f2d.o(.text) for __aeabi_f2d
    power_sensor.o(.text) refers to ddiv.o(.text) for __aeabi_ddiv
    power_sensor.o(.text) refers to d2f.o(.text) for __aeabi_d2f
    power_sensor.o(.text) refers to shadow_thing.o(.text) for Trigger_SendReportToServer
    power_sensor.o(.text) refers to power_sensor.o(.data) for checkPowerSensorTimeout
    power_sensor.o(.text) refers to power_sensor.o(.bss) for powerLine1
    power_sensor.o(.text) refers to elster_tasks.o(.data) for meterElsterReadOk
    power_sensor.o(.text) refers to elster_tasks.o(.bss) for instantaneousValue
    power_sensor.o(.text) refers to system_config.o(.bss) for deviceCfg
    power_sensor.o(.text) refers to system_config.o(.ARM.__AT_0x1000FF80) for variableNoInit
    elster_tasks.o(.text) refers to _scanf_int.o(.text) for _scanf_int
    elster_tasks.o(.text) refers to scanf_fp.o(.text) for _scanf_real
    elster_tasks.o(.text) refers to printfa.o(i.__0vsprintf) for vsprintf
    elster_tasks.o(.text) refers to strlen.o(.text) for strlen
    elster_tasks.o(.text) refers to uart4.o(.text) for UART4_Setup
    elster_tasks.o(.text) refers to sys_tick.o(.text) for InitTimeout
    elster_tasks.o(.text) refers to ampm_list.o(.text) for list_pop
    elster_tasks.o(.text) refers to memmovea.o(.text) for __aeabi_memcpy4
    elster_tasks.o(.text) refers to atoll.o(.text) for atoll
    elster_tasks.o(.text) refers to printfa.o(i.__0sprintf) for __2sprintf
    elster_tasks.o(.text) refers to strcpy.o(.text) for strcpy
    elster_tasks.o(.text) refers to atoi.o(.text) for atoi
    elster_tasks.o(.text) refers to elster_tasks.o(.bss) for buffer
    elster_tasks.o(.text) refers to elster_tasks.o(.data) for meterElsterPhase
    elster_tasks.o(.text) refers to system_config.o(osRam) for sysCfg
    elster_tasks.o(.text) refers to strstr.o(.text) for strstr
    elster_tasks.o(.text) refers to __0sscanf.o(.text) for __0sscanf
    elster_tasks.o(.text) refers to strcmp.o(.text) for strcmp
    elster_tasks.o(.text) refers to system_config.o(.text) for DeviceCfg_Save
    elster_tasks.o(.text) refers to system_config.o(.bss) for deviceCfg
    elster_tasks.o(.text) refers to sys_time.o(.text) for TIME_FromSec
    elster_tasks.o(.text) refers to elster_tasks.o(.conststring) for .conststring
    elster_tasks.o(.text) refers to elster_tasks.o(.constdata) for historyInfoBuf
    elster_tasks.o(.text) refers to sys_time.o(.data) for sysTime
    elster_tasks.o(.text) refers to data_cmp.o(.text) for InitFindData
    elster_tasks.o(.constdata) refers to elster_tasks.o(.conststring) for .conststring
    elster_tasks.o(.constdata) refers to elster_tasks.o(.text) for ElsterWriteCmdStop
    elster_tasks.o(.constdata) refers to elster_tasks.o(.data) for elsteWriterCmd7
    elster_tasks.o(.data) refers to elster_tasks.o(.conststring) for .conststring
    uart1.o(.text) refers to stm32f4xx_hal_uart.o(.text) for HAL_UART_Receive_DMA
    uart1.o(.text) refers to ringbuf.o(.text) for RINGBUF_Init
    uart1.o(.text) refers to uart1.o(.data) for uart1_initialized
    uart1.o(.text) refers to uart1.o(.bss) for USART1_DMARxBuff
    uart1.o(.text) refers to main.o(.bss) for huart1
    uart5.o(.text) refers to stm32f4xx_hal_uart.o(.text) for HAL_UART_Receive_DMA
    uart5.o(.text) refers to ringbuf.o(.text) for RINGBUF_Init
    uart5.o(.text) refers to uart5.o(.bss) for UART5_DMARxBuff
    uart5.o(.text) refers to main.o(.bss) for huart5
    uart5.o(.text) refers to uart5.o(.data) for uart5_initialized
    spi1.o(.text) refers to stm32f4xx_hal_spi.o(.text) for HAL_SPI_TransmitReceive
    spi1.o(.text) refers to printfa.o(i.__0printf) for __2printf
    spi1.o(.text) refers to main.o(.bss) for hspi1
    uart4.o(.text) refers to stm32f4xx_hal_uart.o(.text) for HAL_UART_Receive_DMA
    uart4.o(.text) refers to ringbuf.o(.text) for RINGBUF_Init
    uart4.o(.text) refers to main.o(.text) for _Error_Handler
    uart4.o(.text) refers to uart4.o(.bss) for UART4_DMARxBuff
    uart4.o(.text) refers to main.o(.bss) for huart4
    uart4.o(.text) refers to uart4.o(.data) for uart4_initialized
    uart6.o(.text) refers to stm32f4xx_hal_uart.o(.text) for HAL_UART_Receive_DMA
    uart6.o(.text) refers to ringbuf.o(.text) for RINGBUF_Init
    uart6.o(.text) refers to stm32f4xx_hal_gpio.o(.text) for HAL_GPIO_WritePin
    uart6.o(.text) refers to uart6.o(.data) for uart6_initialized
    uart6.o(.text) refers to uart6.o(.bss) for USART6_DMARxBuff
    uart6.o(.text) refers to main.o(.bss) for huart6
    app_config_task.o(.text) refers to sst25.o(.text) for OS_SST25_Read
    app_config_task.o(.text) refers to cmsis_os.o(.text) for osSemaphoreCreate
    app_config_task.o(.text) refers to sys_tick.o(.text) for InitTimeout
    app_config_task.o(.text) refers to system_config.o(.text) for CFG_Save
    app_config_task.o(.text) refers to app_config_task.o(.data) for firmwareStatus
    app_config_task.o(.text) refers to app_config_task.o(.constdata) for os_semaphore_def_APP_CONFIG_SEM
    app_config_task.o(.text) refers to app_config_task.o(.bss) for tFirmwareTryToUpdate
    app_config_task.o(.text) refers to system_config.o(osRam) for sysCfg
    app_config_task.o(.text) refers to memseta.o(.text) for __aeabi_memset
    app_config_task.o(.text) refers to system_config.o(.bss) for deviceCfg
    uart_config_task.o(.text) refers to app_config_task.o(.text) for AppConfigTaskInit
    uart_config_task.o(.text) refers to sys_tick.o(.text) for InitTimeout
    uart_config_task.o(.text) refers to uart4.o(.text) for mUART4_PutChar
    uart_config_task.o(.text) refers to uart5.o(.text) for mUART5_PutChar
    uart_config_task.o(.text) refers to elster_tasks.o(.text) for MeterElterTasks_IsIdle
    uart_config_task.o(.text) refers to uart_config_task.o(.bss) for checkUart
    uart_config_task.o(.text) refers to uart_config_task.o(.data) for uart5_config_timeout
    alarm.o(.text) refers to stm32f4xx_hal_rtc.o(.text) for HAL_RTC_GetTime
    alarm.o(.text) refers to printfa.o(i.__0printf) for __2printf
    alarm.o(.text) refers to ntp_server.o(.text) for ntp_get_time
    alarm.o(.text) refers to sys_time.o(.text) for TIME_GetSec
    alarm.o(.text) refers to main.o(.text) for _Error_Handler
    alarm.o(.text) refers to main.o(.bss) for hrtc
    alarm.o(.text) refers to sys_time.o(.data) for sysTime
    alarm.o(.text) refers to system_config.o(.bss) for deviceCfg
    alarm.o(.text) refers to relay.o(.text) for relay_on
    alarm.o(.text) refers to heap_4.o(.text) for pvPortMalloc
    alarm.o(.text) refers to printfa.o(i.__0sprintf) for __2sprintf
    alarm.o(.text) refers to alarm.o(.data) for alarmFlag
    alarm.o(.text) refers to system_config.o(.ARM.__AT_0x1000FF80) for variableNoInit
    alarm.o(.text) refers to strlen.o(.text) for strlen
    alarm.o(.text) refers to ampm_gsm_sms_api.o(.text) for AmpmGsm_SendSmsText
    alarm.o(.text) refers to system_config.o(osRam) for sysCfg
    relay.o(.text) refers to cmsis_os.o(.text) for osSemaphoreCreate
    relay.o(.text) refers to power_sensor.o(.text) for PowerSensorPause
    relay.o(.text) refers to system_config.o(.text) for OS_DeviceIoStatus_Save
    relay.o(.text) refers to stm32f4xx_hal_gpio.o(.text) for HAL_GPIO_WritePin
    relay.o(.text) refers to relay.o(.constdata) for os_semaphore_def_REALAY_SEM
    relay.o(.text) refers to relay.o(.data) for relay_sem_id
    relay.o(.text) refers to system_config.o(.ARM.__AT_0x1000FF80) for variableNoInit
    relay.o(.text) refers to system_config.o(osRam) for deviceIoStatus
    ampm_gsm_call.o(.text) refers to _scanf_int.o(.text) for _scanf_int
    ampm_gsm_call.o(.text) refers to _scanf_str.o(.text) for _scanf_string
    ampm_gsm_call.o(.text) refers to ampm_list.o(.text) for list_init
    ampm_gsm_call.o(.text) refers to ampm_gsm_io.o(.text) for Ampm_SendAtCheck_IsEmpty
    ampm_gsm_call.o(.text) refers to sparser.o(.text) for Ampm_CmdTask_IsIdle
    ampm_gsm_call.o(.text) refers to sys_tick.o(.text) for CheckTimeout
    ampm_gsm_call.o(.text) refers to __0sscanf.o(.text) for __0sscanf
    ampm_gsm_call.o(.text) refers to memmovea.o(.text) for __aeabi_memcpy4
    ampm_gsm_call.o(.text) refers to ampm_gsm_call.o(.data) for callList
    ampm_gsm_call.o(.text) refers to ampm_gsm_call.o(.bss) for incomingCall
    ampm_gsm_call.o(.text) refers to ampm_gsm_io.o(.data) for ampm_GSM_CmdPhase
    ampm_gsm_call.o(.text) refers to ampm_gsm_call.o(.constdata) for voiceCallSendCmdProcess_Start
    ampm_gsm_call.o(.text) refers to ampm_sprintf.o(.text) for ampm_sprintf
    ampm_gsm_call.o(.text) refers to strlen.o(.text) for strlen
    ampm_gsm_call.o(.constdata) refers to ampm_gsm_call.o(.conststring) for .conststring
    ampm_gsm_call.o(.constdata) refers to ampm_gsm_call.o(.text) for Ampm_GsmCallDialStartCallback
    ampm_gsm_call.o(.constdata) refers to ampm_gsm_common.o(.constdata) for ampmAtCmd_AT
    ampm_gsm_call.o(.constdata) refers to ampm_gsm_io.o(.text) for Ampm_GsmSendCallback
    ampm_gsm_common.o(.text) refers to _scanf_int.o(.text) for _scanf_int
    ampm_gsm_common.o(.text) refers to __0sscanf.o(.text) for __0sscanf
    ampm_gsm_common.o(.text) refers to ampm_gsm_common.o(.bss) for cengBuff
    ampm_gsm_common.o(.text) refers to ampm_gsm_common.o(.data) for csqValue
    ampm_gsm_common.o(.constdata) refers to ampm_gsm_common.o(.conststring) for .conststring
    ampm_gsm_common.o(.constdata) refers to ampm_gsm_common.o(.text) for Ampm_GsmGetCSQ
    ampm_gsm_common.o(.constdata) refers to ampm_gsm_io.o(.text) for Ampm_GsmSendCallback
    ampm_gsm_dial_up.o(.text) refers to ampm_gsm_ring.o(.text) for Ampm_Ringing_RI_isActive
    ampm_gsm_dial_up.o(.text) refers to ampm_gsm_io.o(.text) for Ampm_SendAtCmdNow
    ampm_gsm_dial_up.o(.text) refers to ampm_sprintf.o(.text) for ampm_sprintf
    ampm_gsm_dial_up.o(.text) refers to sys_tick.o(.text) for InitTimeout
    ampm_gsm_dial_up.o(.text) refers to printfa.o(i.__0printf) for __2printf
    ampm_gsm_dial_up.o(.text) refers to comm.o(.text) for COMM_Putc
    ampm_gsm_dial_up.o(.text) refers to ampm_gsm_dial_up.o(.constdata) for dialupCmdProcess_Start
    ampm_gsm_dial_up.o(.text) refers to ampm_gsm_io.o(.data) for ampm_GprsApn
    ampm_gsm_dial_up.o(.text) refers to ampm_gsm_dial_up.o(.data) for ampmGsmDialupPhase
    ampm_gsm_dial_up.o(.text) refers to ampm_gsm_dial_up.o(.bss) for dialupTimeout
    ampm_gsm_dial_up.o(.text) refers to ampm_gsm_common.o(.data) for ampm_ModemResetFlag
    ampm_gsm_dial_up.o(.constdata) refers to ampm_gsm_dial_up.o(.text) for DialupAtCallback0
    ampm_gsm_dial_up.o(.constdata) refers to ampm_gsm_dial_up.o(.conststring) for .conststring
    ampm_gsm_dial_up.o(.constdata) refers to ampm_gsm_common.o(.constdata) for ampmAtCmd_AT_DIALUP
    ampm_gsm_dial_up.o(.constdata) refers to ampm_gsm_io.o(.text) for Ampm_GsmSendCallback
    ampm_gsm_io.o(.text) refers to sparser.o(.text) for Ampm_CmdCheck_IsEmpty
    ampm_gsm_io.o(.text) refers to data_cmp.o(.text) for InitFindData
    ampm_gsm_io.o(.text) refers to sys_tick.o(.text) for SysTick_DelayMs
    ampm_gsm_io.o(.text) refers to comm.o(.text) for COMM_Getc
    ampm_gsm_io.o(.text) refers to printfa.o(i.__0vsprintf) for vsprintf
    ampm_gsm_io.o(.text) refers to printfa.o(i.__0printf) for __2printf
    ampm_gsm_io.o(.text) refers to ampm_sprintf.o(.text) for ampm_vsprintf
    ampm_gsm_io.o(.text) refers to ampm_gsm_io.o(.data) for gotoCmdModeFlag
    ampm_gsm_io.o(.text) refers to ampm_gsm_io.o(.bss) for ampmGSM_CmdSend
    ampm_gsm_io.o(.data) refers to ampm_gsm_io.o(.conststring) for .conststring
    ampm_gsm_main_task.o(.text) refers to printfa.o(i.__0printf) for __2printf
    ampm_gsm_main_task.o(.text) refers to ampm_filestream.o(.text) for fgetc
    ampm_gsm_main_task.o(.text) refers to comm.o(.text) for COMM_Putc
    ampm_gsm_main_task.o(.text) refers to sys_tick.o(.text) for SysTick_DelayMs
    ampm_gsm_main_task.o(.text) refers to ampm_gsm_io.o(.text) for Ampm_SendAtCmdNow
    ampm_gsm_main_task.o(.text) refers to ampm_gsm_ring.o(.text) for Ampm_Ringing_GetPhase
    ampm_gsm_main_task.o(.text) refers to ampm_gsm_sms.o(.text) for Ampm_SmsCheckMessage_IsEmpty
    ampm_gsm_main_task.o(.text) refers to ampm_gsm_call.o(.text) for Ampm_VoiceCallCheckList_IsEmpty
    ampm_gsm_main_task.o(.text) refers to ampm_gsm_dial_up.o(.text) for Ampm_GSM_DialUp_Reset
    ampm_gsm_main_task.o(.text) refers to lwip_stack.o(.text) for mbed_lwip_core_init
    ampm_gsm_main_task.o(.text) refers to cmsis_os.o(.text) for osThreadCreate
    ampm_gsm_main_task.o(.text) refers to watchdog.o(.text) for SysWatchdogFeed
    ampm_gsm_main_task.o(.text) refers to ampm_gsm_startup.o(.text) for AMPM_GSM_Startup_Init
    ampm_gsm_main_task.o(.text) refers to ppp_lwip.o(.text) for nsapi_ppp_disconnect
    ampm_gsm_main_task.o(.text) refers to ampm_list.o(.text) for list_init
    ampm_gsm_main_task.o(.text) refers to sparser.o(.text) for Ampm_CmdTask_IsIdle
    ampm_gsm_main_task.o(.text) refers to ampm_gsm_main_task.o(.data) for ppp_status
    ampm_gsm_main_task.o(.text) refers to system_config.o(.data) for flagSystemStatus
    ampm_gsm_main_task.o(.text) refers to ampm_gsm_main_task.o(.bss) for pppStdout
    ampm_gsm_main_task.o(.text) refers to ampm_gsm_main_task.o(.constdata) for ampmMainCmdProcess_ATH
    ampm_gsm_main_task.o(.text) refers to ampm_gsm_ring.o(.data) for ampm_NewSmsFlag
    ampm_gsm_main_task.o(.text) refers to sms_task.o(.text) for Ampm_MainSmsRecvCallback
    ampm_gsm_main_task.o(.text) refers to ampm_gsm_common.o(.data) for ampm_ModemResetFlag
    ampm_gsm_main_task.o(.text) refers to ampm_gsm_sms.o(.data) for smsTaskFailCnt
    ampm_gsm_main_task.o(.text) refers to ampm_gsm_io.o(.data) for gotoDataModeFlag
    ampm_gsm_main_task.o(.text) refers to ampm_gsm_startup.o(.data) for modemJustPowerOff
    ampm_gsm_main_task.o(.text) refers to strlen.o(.text) for strlen
    ampm_gsm_main_task.o(.text) refers to strstr.o(.text) for strstr
    ampm_gsm_main_task.o(.text) refers to memcmp.o(.text) for memcmp
    ampm_gsm_main_task.o(.text) refers to strcpy.o(.text) for strcpy
    ampm_gsm_main_task.o(.text) refers to atoll.o(.text) for atoll
    ampm_gsm_main_task.o(.text) refers to system_config.o(.text) for CFG_Save
    ampm_gsm_main_task.o(.text) refers to strcmp.o(.text) for strcmp
    ampm_gsm_main_task.o(.text) refers to at_command_parser.o(.data) for ampm_AtCommandParserEnable
    ampm_gsm_main_task.o(.text) refers to ampm_gsm_io.o(.bss) for ampm_GSM_TaskTimeout
    ampm_gsm_main_task.o(.text) refers to ampm_gsm_startup.o(.bss) for gsmIMEIBuf
    ampm_gsm_main_task.o(.text) refers to system_config.o(osRam) for sysCfg
    ampm_gsm_main_task.o(.text) refers to data_cmp.o(.text) for InitFindData
    ampm_gsm_main_task.o(.constdata) refers to ampm_gsm_main_task.o(.conststring) for .conststring
    ampm_gsm_main_task.o(.constdata) refers to ampm_gsm_main_task.o(.text) for AMPM_GSM_MainTask
    ampm_gsm_main_task.o(.constdata) refers to ampm_gsm_startup.o(.text) for Ampm_GSM_GetIMEI
    ampm_gsm_main_task.o(.constdata) refers to ampm_gsm_common.o(.constdata) for ampmCmdProcess_AT
    ampm_gsm_main_task.o(.constdata) refers to ampm_gsm_io.o(.text) for Ampm_GsmSendCallback
    ampm_gsm_ring.o(.text) refers to stm32f4xx_hal_gpio.o(.text) for HAL_GPIO_ReadPin
    ampm_gsm_ring.o(.text) refers to printfa.o(i.__0printf) for __2printf
    ampm_gsm_ring.o(.text) refers to ampm_gsm_ring.o(.data) for smsCheckTimerCnt
    ampm_gsm_ring.o(.text) refers to ampm_gsm_common.o(.data) for gsmSignal
    ampm_gsm_sms.o(.text) refers to ampm_gsm_io.o(.text) for Ampm_SendAtCmdNow
    ampm_gsm_sms.o(.text) refers to cmsis_os.o(.text) for osMutexWait
    ampm_gsm_sms.o(.text) refers to heap_4.o(.text) for vPortFree
    ampm_gsm_sms.o(.text) refers to comm.o(.text) for COMM_Putc
    ampm_gsm_sms.o(.text) refers to ampm_sprintf.o(.text) for ampm_sprintf
    ampm_gsm_sms.o(.text) refers to pdu.o(.text) for pdu16_encode
    ampm_gsm_sms.o(.text) refers to stm32f4xx_hal_rtc.o(.text) for HAL_RTC_GetTime
    ampm_gsm_sms.o(.text) refers to sys_tick.o(.text) for InitTimeout
    ampm_gsm_sms.o(.text) refers to ringbuf.o(.text) for RINGBUF_GetFill
    ampm_gsm_sms.o(.text) refers to ampm_gsm_sms.o(.constdata) for smsRecvCmdProcess_00
    ampm_gsm_sms.o(.text) refers to ampm_gsm_sms.o(.data) for smsMsg
    ampm_gsm_sms.o(.text) refers to ampm_gsm_sms.o(.bss) for smsDataBuf
    ampm_gsm_sms.o(.text) refers to main.o(.bss) for hrtc
    ampm_gsm_sms.o(.text) refers to ampm_gsm_main_task.o(.data) for sysGsmTime
    ampm_gsm_sms.o(.text) refers to sparser.o(.text) for Ampm_CmdTask_IsIdle
    ampm_gsm_sms.o(.text) refers to ampm_list.o(.text) for list_init
    ampm_gsm_sms.o(.text) refers to printfa.o(i.__0printf) for __2printf
    ampm_gsm_sms.o(.text) refers to ampm_gsm_io.o(.data) for ampm_GSM_CmdPhase
    ampm_gsm_sms.o(.text) refers to memseta.o(.text) for __aeabi_memclr4
    ampm_gsm_sms.o(.text) refers to memmovea.o(.text) for __aeabi_memcpy
    ampm_gsm_sms.o(.text) refers to ampm_gsm_ring.o(.text) for Ampm_SetAtCmti
    ampm_gsm_sms.o(.text) refers to printfa.o(i.__0sprintf) for __2sprintf
    ampm_gsm_sms.o(.text) refers to at_command_parser.o(.constdata) for terminateStr
    ampm_gsm_sms.o(.constdata) refers to ampm_gsm_sms.o(.text) for Ampm_GsmSmsRecvCallback_CCLK
    ampm_gsm_sms.o(.constdata) refers to ampm_gsm_sms.o(.conststring) for .conststring
    ampm_gsm_sms.o(.constdata) refers to ampm_gsm_common.o(.constdata) for ampmAtCmd_AT
    ampm_gsm_sms.o(.constdata) refers to ampm_gsm_io.o(.text) for Ampm_GsmSendCallback
    ampm_gsm_sms.o(.constdata) refers to ampm_gsm_main_task.o(.constdata) for sendCmd_AT_CGSN
    ampm_gsm_startup.o(.text) refers to _scanf_int.o(.text) for _scanf_int
    ampm_gsm_startup.o(.text) refers to _scanf_str.o(.text) for _scanf_string
    ampm_gsm_startup.o(.text) refers to sys_tick.o(.text) for InitTimeout
    ampm_gsm_startup.o(.text) refers to printfa.o(i.__0printf) for __2printf
    ampm_gsm_startup.o(.text) refers to comm.o(.text) for MODEM_UartInit
    ampm_gsm_startup.o(.text) refers to memseta.o(.text) for __aeabi_memclr4
    ampm_gsm_startup.o(.text) refers to strstr.o(.text) for strstr
    ampm_gsm_startup.o(.text) refers to __0sscanf.o(.text) for __0sscanf
    ampm_gsm_startup.o(.text) refers to ampm_gsm_io.o(.text) for Ampm_CmdTask_SendCmd
    ampm_gsm_startup.o(.text) refers to ampm_gsm_startup.o(.data) for gsmBaudrateSaved
    ampm_gsm_startup.o(.text) refers to ampm_gsm_startup.o(.bss) for tAmpm_GsmStartupTaskDelay
    ampm_gsm_startup.o(.text) refers to ampm_gsm_io.o(.data) for ampm_GSM_CmdPhase
    ampm_gsm_startup.o(.text) refers to ampm_gsm_main_task.o(.text) for Ampm_GSM_GetATI
    ampm_gsm_startup.o(.text) refers to ampm_gsm_common.o(.text) for Ampm_GsmGetCSQ
    ampm_gsm_startup.o(.text) refers to ampm_gsm_io.o(.bss) for ampmGSM_CmdSend
    ampm_gsm_startup.o(.text) refers to strlen.o(.text) for strlen
    ampm_gsm_startup.o(.text) refers to ampm_gsm_common.o(.data) for ampm_ModemResetFlag
    at_command_parser.o(.text) refers to memmovea.o(.text) for __aeabi_memcpy
    at_command_parser.o(.text) refers to ampm_gsm_ring.o(.text) for Ampm_SetAtClip
    at_command_parser.o(.text) refers to sparser.o(.text) for StrParserInit
    at_command_parser.o(.text) refers to sys_tick.o(.text) for SysTick_Get
    at_command_parser.o(.text) refers to at_command_parser.o(.bss) for incomingCallPhoneNo
    at_command_parser.o(.text) refers to ampm_gsm_call.o(.bss) for ampm_IncomingCallPhoneNo
    at_command_parser.o(.text) refers to ampm_gsm_call.o(.data) for ampm_GotIncomingNumberFlag
    at_command_parser.o(.text) refers to at_command_parser.o(.data) for cmdCnt
    at_command_parser.o(.text) refers to at_command_parser.o(.constdata) for AT_ProcessCmd
    at_command_parser.o(.constdata) refers to at_command_parser.o(.conststring) for .conststring
    at_command_parser.o(.constdata) refers to at_command_parser.o(.text) for Ampm_URC_CLIP_Process
    at_command_parser.o(.constdata) refers to ampm_gsm_sms.o(.text) for Ampm_SMS_URC_Incomming
    at_command_parser.o(.constdata) refers to ampm_gsm_call.o(.text) for Ampm_CallListSetEmpty
    at_command_parser.o(.data) refers to at_command_parser.o(.conststring) for .conststring
    comm.o(.text) refers to uart1.o(.text) for mUSART1_PutChar
    comm.o(.text) refers to ringbuf.o(.text) for RINGBUF_Init
    comm.o(.text) refers to stm32f4xx_hal_gpio.o(.text) for HAL_GPIO_WritePin
    comm.o(.text) refers to comm.o(.data) for comm_initialized
    comm.o(.text) refers to comm.o(.bss) for COMM_RxBuff
    pdu.o(.text) refers to strlen.o(.text) for strlen
    pdu.o(.text) refers to memmovea.o(.text) for __aeabi_memcpy
    pdu.o(.text) refers to m_time.o(.text) for mktime
    ampm_gsm_sms_api.o(.text) refers to strlen.o(.text) for strlen
    ampm_gsm_sms_api.o(.text) refers to malloc.o(i.malloc) for malloc
    ampm_gsm_sms_api.o(.text) refers to encoding.o(.text) for utf8s_to_ucs2s
    ampm_gsm_sms_api.o(.text) refers to ampm_gsm_sms.o(.text) for Ampm_Sms_SendMsg
    ampm_gsm_sms_api.o(.text) refers to heap_4.o(.text) for vPortFree
    ampm_gsm_sms_api.o(.text) refers to printfa.o(i.__0printf) for __2printf
    ampm_gsm_sms_api.o(.text) refers to cmsis_os.o(.text) for osDelay
    aws_iot_json_utils.o(.text) refers to _scanf_int.o(.text) for _scanf_int
    aws_iot_json_utils.o(.text) refers to scanf_fp.o(.text) for _scanf_real
    aws_iot_json_utils.o(.text) refers to strlen.o(.text) for strlen
    aws_iot_json_utils.o(.text) refers to strncmp.o(.text) for strncmp
    aws_iot_json_utils.o(.text) refers to printfa.o(i.__0printf) for __2printf
    aws_iot_json_utils.o(.text) refers to __0sscanf.o(.text) for __0sscanf
    aws_iot_json_utils.o(.text) refers to memmovea.o(.text) for __aeabi_memcpy
    aws_iot_json_utils.o(.text) refers to aws_iot_json_utils.o(.constdata) for __func__
    aws_iot_mqtt_client.o(.text) refers to memmovea.o(.text) for __aeabi_memcpy4
    aws_iot_mqtt_client.o(.text) refers to network_mbedtls_wrapper.o(.text) for iot_tls_init
    aws_iot_mqtt_client.o(.text) refers to aws_timer.o(.text) for init_timer
    aws_iot_mqtt_client.o(.text) refers to printfa.o(i.__0printf) for __2printf
    aws_iot_mqtt_client.o(.text) refers to aws_iot_mqtt_client.o(.constdata) for .constdata
    aws_iot_mqtt_client_common_internal.o(.text) refers to memmovea.o(.text) for __aeabi_memcpy
    aws_iot_mqtt_client_common_internal.o(.text) refers to aws_timer.o(.text) for has_timer_expired
    aws_iot_mqtt_client_common_internal.o(.text) refers to aws_iot_mqtt_client.o(.text) for aws_iot_mqtt_get_client_state
    aws_iot_mqtt_client_common_internal.o(.text) refers to strncmp.o(.text) for strncmp
    aws_iot_mqtt_client_common_internal.o(.text) refers to aws_iot_mqtt_client_publish.o(.text) for aws_iot_mqtt_internal_deserialize_publish
    aws_iot_mqtt_client_connect.o(.text) refers to aws_iot_mqtt_client_common_internal.o(.text) for aws_iot_mqtt_internal_get_final_packet_length_from_remaining_length
    aws_iot_mqtt_client_connect.o(.text) refers to aws_iot_mqtt_client.o(.text) for aws_iot_mqtt_set_connect_params
    aws_iot_mqtt_client_connect.o(.text) refers to aws_timer.o(.text) for init_timer
    aws_iot_mqtt_client_connect.o(.text) refers to printfa.o(i.__0printf) for __2printf
    aws_iot_mqtt_client_connect.o(.text) refers to aws_iot_mqtt_client_subscribe.o(.text) for aws_iot_mqtt_resubscribe
    aws_iot_mqtt_client_publish.o(.text) refers to aws_iot_mqtt_client_common_internal.o(.text) for aws_iot_mqtt_internal_read_uint16_t
    aws_iot_mqtt_client_publish.o(.text) refers to memmovea.o(.text) for __aeabi_memcpy
    aws_iot_mqtt_client_publish.o(.text) refers to aws_timer.o(.text) for init_timer
    aws_iot_mqtt_client_publish.o(.text) refers to aws_iot_mqtt_client.o(.text) for aws_iot_mqtt_get_next_packet_id
    aws_iot_mqtt_client_subscribe.o(.text) refers to aws_iot_mqtt_client_common_internal.o(.text) for aws_iot_mqtt_internal_get_final_packet_length_from_remaining_length
    aws_iot_mqtt_client_subscribe.o(.text) refers to aws_timer.o(.text) for init_timer
    aws_iot_mqtt_client_subscribe.o(.text) refers to aws_iot_mqtt_client.o(.text) for aws_iot_mqtt_get_next_packet_id
    aws_iot_mqtt_client_unsubscribe.o(.text) refers to aws_iot_mqtt_client_common_internal.o(.text) for aws_iot_mqtt_internal_get_final_packet_length_from_remaining_length
    aws_iot_mqtt_client_unsubscribe.o(.text) refers to aws_iot_mqtt_client_publish.o(.text) for aws_iot_mqtt_internal_deserialize_ack
    aws_iot_mqtt_client_unsubscribe.o(.text) refers to strcmp.o(.text) for strcmp
    aws_iot_mqtt_client_unsubscribe.o(.text) refers to aws_timer.o(.text) for init_timer
    aws_iot_mqtt_client_unsubscribe.o(.text) refers to aws_iot_mqtt_client.o(.text) for aws_iot_mqtt_get_next_packet_id
    aws_iot_mqtt_client_yield.o(.text) refers to aws_iot_mqtt_client_connect.o(.text) for aws_iot_mqtt_disconnect
    aws_iot_mqtt_client_yield.o(.text) refers to aws_timer.o(.text) for has_timer_expired
    aws_iot_mqtt_client_yield.o(.text) refers to aws_iot_mqtt_client.o(.text) for aws_iot_mqtt_set_client_state
    aws_iot_mqtt_client_yield.o(.text) refers to aws_iot_mqtt_client_common_internal.o(.text) for aws_iot_mqtt_internal_serialize_zero
    aws_iot_shadow.o(.text) refers to aws_iot_mqtt_client.o(.text) for aws_iot_mqtt_init
    aws_iot_shadow.o(.text) refers to aws_iot_shadow_json.o(.text) for resetClientTokenSequenceNum
    aws_iot_shadow.o(.text) refers to aws_iot_shadow_records.o(.text) for initDeltaTokens
    aws_iot_shadow.o(.text) refers to memmovea.o(.text) for __aeabi_memcpy4
    aws_iot_shadow.o(.text) refers to printfa.o(i.__0snprintf) for __2snprintf
    aws_iot_shadow.o(.text) refers to aws_iot_mqtt_client_connect.o(.text) for aws_iot_mqtt_connect
    aws_iot_shadow.o(.text) refers to strlen.o(.text) for strlen
    aws_iot_shadow.o(.text) refers to aws_iot_mqtt_client_subscribe.o(.text) for aws_iot_mqtt_subscribe
    aws_iot_shadow.o(.text) refers to aws_iot_mqtt_client_yield.o(.text) for aws_iot_mqtt_yield
    aws_iot_shadow.o(.text) refers to aws_iot_shadow_actions.o(.text) for aws_iot_shadow_internal_action
    aws_iot_shadow.o(.text) refers to aws_iot_shadow_records.o(.data) for shadowJsonVersionNum
    aws_iot_shadow.o(.text) refers to aws_iot_mqtt_client.o(.constdata) for iotClientConnectParamsDefault
    aws_iot_shadow.o(.text) refers to aws_iot_shadow_records.o(.bss) for myThingName
    aws_iot_shadow.o(.constdata) refers to system_config.o(osRam) for sysCfg
    aws_iot_shadow_actions.o(.text) refers to aws_iot_shadow_json.o(.text) for extractClientToken
    aws_iot_shadow_actions.o(.text) refers to aws_iot_shadow_records.o(.text) for getNextFreeIndexOfAckWaitList
    aws_iot_shadow_json.o(.text) refers to printfa.o(i.__0sprintf) for __2sprintf
    aws_iot_shadow_json.o(.text) refers to strlen.o(.text) for strlen
    aws_iot_shadow_json.o(.text) refers to printfa.o(i.__0snprintf) for __2snprintf
    aws_iot_shadow_json.o(.text) refers to f2d.o(.text) for __aeabi_f2d
    aws_iot_shadow_json.o(.text) refers to aws_iot_shadow_json.o(.data) for clientTokenNum
    aws_iot_shadow_json.o(.text) refers to jsmn.o(.text) for jsmn_init
    aws_iot_shadow_json.o(.text) refers to printfa.o(i.__0printf) for __2printf
    aws_iot_shadow_json.o(.text) refers to system_config.o(osRam) for sysCfg
    aws_iot_shadow_json.o(.text) refers to aws_iot_shadow_json.o(.bss) for shadowJsonParser
    aws_iot_shadow_json.o(.text) refers to aws_iot_shadow_json.o(.constdata) for __func__
    aws_iot_shadow_json.o(.text) refers to aws_iot_json_utils.o(.text) for parseBooleanValue
    aws_iot_shadow_json.o(.text) refers to strncpy.o(.text) for strncpy
    aws_iot_shadow_records.o(.text) refers to printfa.o(i.__0printf) for __2printf
    aws_iot_shadow_records.o(.text) refers to memmovea.o(.text) for __aeabi_memcpy
    aws_iot_shadow_records.o(.text) refers to aws_iot_shadow_json.o(.text) for isJsonValidAndParse
    aws_iot_shadow_records.o(.text) refers to printfa.o(i.__0snprintf) for __2snprintf
    aws_iot_shadow_records.o(.text) refers to strlen.o(.text) for strlen
    aws_iot_shadow_records.o(.text) refers to aws_iot_mqtt_client_subscribe.o(.text) for aws_iot_mqtt_subscribe
    aws_iot_shadow_records.o(.text) refers to strncpy.o(.text) for strncpy
    aws_iot_shadow_records.o(.text) refers to strstr.o(.text) for strstr
    aws_iot_shadow_records.o(.text) refers to strcmp.o(.text) for strcmp
    aws_iot_shadow_records.o(.text) refers to aws_iot_mqtt_client_unsubscribe.o(.text) for aws_iot_mqtt_unsubscribe
    aws_iot_shadow_records.o(.text) refers to aws_iot_shadow_records.o(.bss) for tokenTable
    aws_iot_shadow_records.o(.text) refers to aws_iot_shadow_records.o(.data) for tokenTableIndex
    aws_iot_shadow_records.o(.text) refers to aws_iot_shadow_records.o(.constdata) for __func__
    aws_iot_shadow_records.o(.text) refers to system_config.o(osRam) for sysCfg
    aws_iot_shadow_records.o(.text) refers to aws_timer.o(.text) for init_timer
    aws_iot_shadow_records.o(.text) refers to aws_iot_mqtt_client_publish.o(.text) for aws_iot_mqtt_publish
    aws_timer.o(.text) refers to tasks.o(.text) for xTaskGetTickCount
    net_socket.o(.text) refers to printfa.o(i.__0printf) for __2printf
    net_socket.o(.text) refers to memseta.o(.text) for __aeabi_memclr4
    net_socket.o(.text) refers to lwip_netdb.o(.text) for lwip_getaddrinfo
    net_socket.o(.text) refers to lwip_sockets.o(.text) for lwip_socket
    net_socket.o(.text) refers to lwip_sys_arch.o(.data) for errno
    network_mbedtls_wrapper.o(.text) refers to printfa.o(i.__0printf) for __2printf
    network_mbedtls_wrapper.o(.text) refers to x509_crt.o(.text) for mbedtls_x509_crt_info
    network_mbedtls_wrapper.o(.text) refers to net_socket.o(.text) for mbedtls_net_free
    network_mbedtls_wrapper.o(.text) refers to ssl_tls.o(.text) for mbedtls_ssl_free
    network_mbedtls_wrapper.o(.text) refers to ctr_drbg.o(.text) for mbedtls_ctr_drbg_free
    network_mbedtls_wrapper.o(.text) refers to entropy.o(.text) for mbedtls_entropy_free
    network_mbedtls_wrapper.o(.text) refers to aws_timer.o(.text) for has_timer_expired
    network_mbedtls_wrapper.o(.text) refers to strlen.o(.text) for strlen
    network_mbedtls_wrapper.o(.text) refers to printfa.o(i.__0snprintf) for __2snprintf
    network_mbedtls_wrapper.o(.text) refers to network_mbedtls_wrapper.o(.constdata) for __func__
    network_mbedtls_wrapper.o(.text) refers to network_mbedtls_wrapper.o(.conststring) for .conststring
    aes.o(.text) refers to memseta.o(.text) for __aeabi_memclr4
    aes.o(.text) refers to aes.o(.constdata) for RCON
    aes.o(.text) refers to memmovea.o(.text) for __aeabi_memcpy
    aes.o(.text) refers to printfa.o(i.__0printf) for __2printf
    aes.o(.text) refers to memcmp.o(.text) for memcmp
    asn1parse.o(.text) refers to bignum.o(.text) for mbedtls_mpi_read_binary
    asn1parse.o(.text) refers to memcmp.o(.text) for memcmp
    asn1parse.o(.text) refers to platform.o(.data) for mbedtls_calloc
    asn1write.o(.text) refers to memmovea.o(.text) for __aeabi_memcpy
    asn1write.o(.text) refers to bignum.o(.text) for mbedtls_mpi_size
    asn1write.o(.text) refers to asn1parse.o(.text) for mbedtls_asn1_find_named_data
    asn1write.o(.text) refers to platform.o(.data) for mbedtls_calloc
    base64.o(.text) refers to printfa.o(i.__0printf) for __2printf
    base64.o(.text) refers to memcmp.o(.text) for memcmp
    base64.o(.text) refers to base64.o(.constdata) for base64_enc_map
    bignum.o(.text) refers to memmovea.o(.text) for __aeabi_memcpy4
    bignum.o(.text) refers to memseta.o(.text) for __aeabi_memclr4
    bignum.o(.text) refers to platform.o(.data) for mbedtls_free
    bignum.o(.text) refers to strlen.o(.text) for strlen
    bignum.o(.text) refers to uldiv.o(.text) for __aeabi_uldivmod
    bignum.o(.text) refers to printfa.o(i.__0printf) for __2printf
    bignum.o(.text) refers to bignum.o(.conststring) for .conststring
    bignum.o(.text) refers to bignum.o(.constdata) for gcd_pairs
    ccm.o(.text) refers to memseta.o(.text) for __aeabi_memclr4
    ccm.o(.text) refers to cipher.o(.text) for mbedtls_cipher_info_from_values
    ccm.o(.text) refers to memmovea.o(.text) for __aeabi_memcpy
    ccm.o(.text) refers to printfa.o(i.__0printf) for __2printf
    ccm.o(.text) refers to memcmp.o(.text) for memcmp
    ccm.o(.text) refers to ccm.o(.constdata) for key
    certs.o(.data) refers to certs.o(.constdata) for mbedtls_test_ca_crt_rsa_sha1
    cipher.o(.text) refers to strcmp.o(.text) for strcmp
    cipher.o(.text) refers to memseta.o(.text) for __aeabi_memclr4
    cipher.o(.text) refers to memmovea.o(.text) for __aeabi_memcpy
    cipher.o(.text) refers to gcm.o(.text) for mbedtls_gcm_starts
    cipher.o(.text) refers to cipher.o(.data) for supported_init
    cipher.o(.text) refers to cipher_wrap.o(.constdata) for mbedtls_cipher_definitions
    cipher.o(.text) refers to cipher_wrap.o(.bss) for mbedtls_cipher_supported
    cipher.o(.text) refers to ccm.o(.text) for mbedtls_ccm_encrypt_and_tag
    cipher_wrap.o(.text) refers to gcm.o(.text) for mbedtls_gcm_init
    cipher_wrap.o(.text) refers to ccm.o(.text) for mbedtls_ccm_init
    cipher_wrap.o(.text) refers to aes.o(.text) for mbedtls_aes_crypt_ecb
    cipher_wrap.o(.text) refers to platform.o(.data) for mbedtls_calloc
    cipher_wrap.o(.constdata) refers to cipher_wrap.o(.text) for aes_crypt_ecb_wrap
    cipher_wrap.o(.constdata) refers to cipher_wrap.o(.conststring) for .conststring
    ctr_drbg.o(.text) refers to memseta.o(.text) for __aeabi_memclr4
    ctr_drbg.o(.text) refers to aes.o(.text) for mbedtls_aes_crypt_ecb
    ctr_drbg.o(.text) refers to memmovea.o(.text) for __aeabi_memcpy
    ctr_drbg.o(.text) refers to printfa.o(i.__0printf) for __2printf
    ctr_drbg.o(.text) refers to memcmp.o(.text) for memcmp
    ctr_drbg.o(.text) refers to ctr_drbg.o(.data) for test_offset
    ctr_drbg.o(.text) refers to ctr_drbg.o(.constdata) for nonce_pers_pr
    debug.o(.text) refers to printfa.o(i.__0vsnprintf) for vsnprintf
    debug.o(.text) refers to printfa.o(i.__0snprintf) for __2snprintf
    debug.o(.text) refers to memseta.o(.text) for __aeabi_memclr4
    debug.o(.text) refers to debug.o(.data) for debug_threshold
    debug.o(.text) refers to pk.o(.text) for mbedtls_pk_debug
    debug.o(.text) refers to memmovea.o(.text) for __aeabi_memcpy
    debug.o(.text) refers to x509_crt.o(.text) for mbedtls_x509_crt_info
    ecdh.o(.text) refers to ecp.o(.text) for mbedtls_ecp_gen_keypair
    ecdh.o(.text) refers to bignum.o(.text) for mbedtls_mpi_copy
    ecdh.o(.text) refers to memseta.o(.text) for __aeabi_memclr4
    ecdsa.o(.text) refers to bignum.o(.text) for mbedtls_mpi_read_binary
    ecdsa.o(.text) refers to ecp.o(.text) for mbedtls_ecp_point_init
    ecdsa.o(.text) refers to md.o(.text) for mbedtls_md_info_from_type
    ecdsa.o(.text) refers to hmac_drbg.o(.text) for mbedtls_hmac_drbg_init
    ecdsa.o(.text) refers to asn1write.o(.text) for mbedtls_asn1_write_mpi
    ecdsa.o(.text) refers to memmovea.o(.text) for __aeabi_memcpy
    ecdsa.o(.text) refers to asn1parse.o(.text) for mbedtls_asn1_get_tag
    ecdsa.o(.text) refers to ecp_curves.o(.text) for mbedtls_ecp_group_load
    ecp.o(.text) refers to strcmp.o(.text) for strcmp
    ecp.o(.text) refers to bignum.o(.text) for mbedtls_mpi_init
    ecp.o(.text) refers to memseta.o(.text) for __aeabi_memclr4
    ecp.o(.text) refers to ecp_curves.o(.text) for mbedtls_ecp_group_load
    ecp.o(.text) refers to ecp.o(.constdata) for ecp_supported_curves
    ecp.o(.text) refers to ecp.o(.data) for init_done
    ecp.o(.text) refers to platform.o(.data) for mbedtls_free
    ecp.o(.text) refers to memmovea.o(.text) for __aeabi_memcpy4
    ecp.o(.text) refers to printfa.o(i.__0printf) for __2printf
    ecp.o(.constdata) refers to ecp.o(.conststring) for .conststring
    ecp_curves.o(.text) refers to bignum.o(.text) for mbedtls_mpi_bitlen
    ecp_curves.o(.text) refers to ecp.o(.text) for mbedtls_ecp_group_free
    ecp_curves.o(.text) refers to memseta.o(.text) for __aeabi_memclr4
    ecp_curves.o(.text) refers to memmovea.o(.text) for __aeabi_memcpy4
    ecp_curves.o(.text) refers to ecp_curves.o(.data) for one
    ecp_curves.o(.text) refers to ecp_curves.o(.constdata) for secp256r1_n
    entropy.o(.text) refers to memseta.o(.text) for __aeabi_memclr4
    entropy.o(.text) refers to sha512.o(.text) for mbedtls_sha512_starts
    entropy.o(.text) refers to memmovea.o(.text) for __aeabi_memcpy
    entropy.o(.text) refers to hardware_rng.o(.text) for mbedtls_hardware_poll
    entropy.o(.text) refers to printfa.o(i.__0printf) for __2printf
    entropy.o(.text) refers to memcmp.o(.text) for memcmp
    error.o(.text) refers to memseta.o(.text) for __aeabi_memclr
    error.o(.text) refers to printfa.o(i.__0snprintf) for __2snprintf
    error.o(.text) refers to error.o(.conststring) for .conststring
    error.o(.text) refers to strlen.o(.text) for strlen
    gcm.o(.text) refers to memseta.o(.text) for __aeabi_memclr4
    gcm.o(.text) refers to cipher.o(.text) for mbedtls_cipher_update
    gcm.o(.text) refers to memmovea.o(.text) for __aeabi_memcpy
    gcm.o(.text) refers to printfa.o(i.__0printf) for __2printf
    gcm.o(.text) refers to memcmp.o(.text) for memcmp
    gcm.o(.text) refers to gcm.o(.constdata) for last4
    hmac_drbg.o(.text) refers to memseta.o(.text) for __aeabi_memclr4
    hmac_drbg.o(.text) refers to md.o(.text) for mbedtls_md_get_size
    hmac_drbg.o(.text) refers to memmovea.o(.text) for __aeabi_memcpy
    hmac_drbg.o(.text) refers to printfa.o(i.__0printf) for __2printf
    hmac_drbg.o(.text) refers to memcmp.o(.text) for memcmp
    hmac_drbg.o(.text) refers to hmac_drbg.o(.data) for test_offset
    hmac_drbg.o(.text) refers to hmac_drbg.o(.constdata) for entropy_pr
    md.o(.text) refers to strcmp.o(.text) for strcmp
    md.o(.text) refers to memseta.o(.text) for __aeabi_memset
    md.o(.text) refers to md.o(.constdata) for supported_digests
    md.o(.text) refers to md_wrap.o(.constdata) for mbedtls_sha1_info
    md.o(.text) refers to platform.o(.data) for mbedtls_free
    md_wrap.o(.text) refers to sha1.o(.text) for mbedtls_sha1_starts
    md_wrap.o(.text) refers to sha256.o(.text) for mbedtls_sha256_starts
    md_wrap.o(.text) refers to sha512.o(.text) for mbedtls_sha512_starts
    md_wrap.o(.text) refers to platform.o(.data) for mbedtls_calloc
    md_wrap.o(.constdata) refers to md_wrap.o(.conststring) for .conststring
    md_wrap.o(.constdata) refers to md_wrap.o(.text) for sha1_starts_wrap
    md_wrap.o(.constdata) refers to sha1.o(.text) for mbedtls_sha1
    memory_buffer_alloc.o(.text) refers to printfa.o(i.__0fprintf) for __2fprintf
    memory_buffer_alloc.o(.text) refers to memseta.o(.text) for __aeabi_memclr
    memory_buffer_alloc.o(.text) refers to memory_buffer_alloc.o(.conststring) for .conststring
    memory_buffer_alloc.o(.text) refers to stderr.o(.data) for __stderr
    memory_buffer_alloc.o(.text) refers to memory_buffer_alloc.o(.bss) for heap
    memory_buffer_alloc.o(.text) refers to platform.o(.data) for mbedtls_exit
    memory_buffer_alloc.o(.text) refers to platform.o(.text) for mbedtls_platform_set_calloc_free
    memory_buffer_alloc.o(.text) refers to printfa.o(i.__0printf) for __2printf
    oid.o(.text) refers to memcmp.o(.text) for memcmp
    oid.o(.text) refers to printfa.o(i.__0snprintf) for __2snprintf
    oid.o(.text) refers to oid.o(.constdata) for oid_x520_attr_type
    oid.o(.constdata) refers to oid.o(.conststring) for .conststring
    oid.o(.constdata) refers to oid.o(.conststrlit) for .conststrlit
    pem.o(.text) refers to strstr.o(.text) for strstr
    pem.o(.text) refers to strlen.o(.text) for strlen
    pem.o(.text) refers to memcmp.o(.text) for memcmp
    pem.o(.text) refers to base64.o(.text) for mbedtls_base64_decode
    pem.o(.text) refers to platform.o(.data) for mbedtls_calloc
    pk.o(.text) refers to md.o(.text) for mbedtls_md_info_from_type
    pk.o(.text) refers to rsa.o(.text) for mbedtls_rsa_rsassa_pss_verify_ext
    pk.o(.text) refers to pk_wrap.o(.constdata) for mbedtls_rsa_info
    pk_wrap.o(.text) refers to rsa.o(.text) for mbedtls_rsa_pkcs1_verify
    pk_wrap.o(.text) refers to ecdsa.o(.text) for mbedtls_ecdsa_read_signature
    pk_wrap.o(.text) refers to ecp.o(.text) for mbedtls_ecp_check_pub_priv
    pk_wrap.o(.text) refers to memseta.o(.text) for __aeabi_memset
    pk_wrap.o(.text) refers to platform.o(.data) for mbedtls_calloc
    pk_wrap.o(.constdata) refers to pk_wrap.o(.conststring) for .conststring
    pk_wrap.o(.constdata) refers to pk_wrap.o(.text) for rsa_get_bitlen
    pkparse.o(.text) refers to asn1parse.o(.text) for mbedtls_asn1_get_tag
    pkparse.o(.text) refers to oid.o(.text) for mbedtls_oid_get_ec_grp
    pkparse.o(.text) refers to ecp_curves.o(.text) for mbedtls_ecp_group_load
    pkparse.o(.text) refers to ecp.o(.text) for mbedtls_ecp_point_read_binary
    pkparse.o(.text) refers to rsa.o(.text) for mbedtls_rsa_check_pubkey
    pkparse.o(.text) refers to bignum.o(.text) for mbedtls_mpi_size
    pkparse.o(.text) refers to pk.o(.text) for mbedtls_pk_info_from_type
    pkparse.o(.text) refers to pem.o(.text) for mbedtls_pem_init
    pkwrite.o(.text) refers to asn1write.o(.text) for mbedtls_asn1_write_mpi
    pkwrite.o(.text) refers to ecp.o(.text) for mbedtls_ecp_point_write_binary
    pkwrite.o(.text) refers to memmovea.o(.text) for __aeabi_memcpy
    pkwrite.o(.text) refers to oid.o(.text) for mbedtls_oid_get_oid_by_ec_grp
    pkwrite.o(.text) refers to pk.o(.text) for mbedtls_pk_get_type
    platform.o(.text) refers to platform.o(.data) for mbedtls_calloc
    platform.o(.data) refers to calloc.o(.text) for calloc
    platform.o(.data) refers to malloc.o(i.free) for free
    platform.o(.data) refers to platform.o(.text) for platform_exit_uninit
    rsa.o(.text) refers to memseta.o(.text) for __aeabi_memclr4
    rsa.o(.text) refers to bignum.o(.text) for mbedtls_mpi_bitlen
    rsa.o(.text) refers to md.o(.text) for mbedtls_md_get_size
    rsa.o(.text) refers to memmovea.o(.text) for __aeabi_memcpy
    rsa.o(.text) refers to oid.o(.text) for mbedtls_oid_get_oid_by_md
    rsa.o(.text) refers to platform.o(.data) for mbedtls_calloc
    rsa.o(.text) refers to memcmp.o(.text) for memcmp
    rsa.o(.text) refers to asn1parse.o(.text) for mbedtls_asn1_get_tag
    rsa.o(.text) refers to rand.o(.text) for rand
    rsa.o(.text) refers to rsa.o(.conststring) for .conststring
    rsa.o(.text) refers to printfa.o(i.__0printf) for __2printf
    rsa.o(.text) refers to sha1.o(.text) for mbedtls_sha1
    sha1.o(.text) refers to memseta.o(.text) for __aeabi_memclr4
    sha1.o(.text) refers to memmovea.o(.text) for __aeabi_memcpy4
    sha1.o(.text) refers to printfa.o(i.__0printf) for __2printf
    sha1.o(.text) refers to memcmp.o(.text) for memcmp
    sha1.o(.text) refers to sha1.o(.constdata) for sha1_padding
    sha256.o(.text) refers to memseta.o(.text) for __aeabi_memclr4
    sha256.o(.text) refers to memmovea.o(.text) for __aeabi_memcpy4
    sha256.o(.text) refers to sha256.o(.constdata) for K
    sha256.o(.text) refers to printfa.o(i.__0printf) for __2printf
    sha256.o(.text) refers to memcmp.o(.text) for memcmp
    sha256.o(.text) refers to platform.o(.data) for mbedtls_calloc
    sha512.o(.text) refers to memseta.o(.text) for __aeabi_memclr4
    sha512.o(.text) refers to memmovea.o(.text) for __aeabi_memcpy4
    sha512.o(.text) refers to sha512.o(.constdata) for K
    sha512.o(.text) refers to printfa.o(i.__0printf) for __2printf
    sha512.o(.text) refers to memcmp.o(.text) for memcmp
    sha512.o(.text) refers to platform.o(.data) for mbedtls_calloc
    ssl_cache.o(.text) refers to memcmp.o(.text) for memcmp
    ssl_cache.o(.text) refers to memmovea.o(.text) for __aeabi_memcpy4
    ssl_cache.o(.text) refers to x509_crt.o(.text) for mbedtls_x509_crt_init
    ssl_cache.o(.text) refers to ssl_tls.o(.text) for mbedtls_ssl_session_free
    ssl_cache.o(.text) refers to sys_time.o(.text) for TIME_GET
    ssl_cache.o(.text) refers to platform.o(.data) for mbedtls_calloc
    ssl_ciphersuites.o(.text) refers to strcmp.o(.text) for strcmp
    ssl_ciphersuites.o(.text) refers to ssl_ciphersuites.o(.constdata) for ciphersuite_definitions
    ssl_ciphersuites.o(.text) refers to ssl_ciphersuites.o(.data) for supported_init
    ssl_ciphersuites.o(.text) refers to ssl_ciphersuites.o(.bss) for supported_ciphersuites
    ssl_ciphersuites.o(.constdata) refers to ssl_ciphersuites.o(.conststring) for .conststring
    ssl_cli.o(.text) refers to debug.o(.text) for mbedtls_debug_print_msg
    ssl_cli.o(.text) refers to strlen.o(.text) for strlen
    ssl_cli.o(.text) refers to memmovea.o(.text) for __aeabi_memcpy
    ssl_cli.o(.text) refers to ssl_tls.o(.text) for mbedtls_ssl_hash_from_md_alg
    ssl_cli.o(.text) refers to ecp.o(.text) for mbedtls_ecp_curve_info_from_grp_id
    ssl_cli.o(.text) refers to sys_time.o(.text) for TIME_GET
    ssl_cli.o(.text) refers to ssl_cli.o(.conststring) for .conststring
    ssl_cli.o(.text) refers to ssl_ciphersuites.o(.text) for mbedtls_ssl_ciphersuite_from_id
    ssl_cli.o(.text) refers to memcmp.o(.text) for memcmp
    ssl_cli.o(.text) refers to platform.o(.data) for mbedtls_free
    ssl_cli.o(.text) refers to ecdh.o(.text) for mbedtls_ecdh_read_params
    ssl_cli.o(.text) refers to md.o(.text) for mbedtls_md_init
    ssl_cli.o(.text) refers to pk.o(.text) for mbedtls_pk_can_do
    ssl_cookie.o(.text) refers to md.o(.text) for mbedtls_md_init
    ssl_cookie.o(.text) refers to memmovea.o(.text) for __aeabi_memcpy
    ssl_cookie.o(.text) refers to sys_time.o(.text) for TIME_GET
    ssl_ticket.o(.text) refers to memseta.o(.text) for __aeabi_memclr4
    ssl_ticket.o(.text) refers to cipher.o(.text) for mbedtls_cipher_setkey
    ssl_ticket.o(.text) refers to memmovea.o(.text) for __aeabi_memcpy
    ssl_ticket.o(.text) refers to x509_crt.o(.text) for mbedtls_x509_crt_init
    ssl_ticket.o(.text) refers to memcmp.o(.text) for memcmp
    ssl_ticket.o(.text) refers to sys_time.o(.text) for TIME_GET
    ssl_ticket.o(.text) refers to platform.o(.data) for mbedtls_calloc
    ssl_tls.o(.text) refers to debug.o(.text) for mbedtls_debug_print_msg
    ssl_tls.o(.text) refers to x509_crt.o(.text) for mbedtls_x509_crt_free
    ssl_tls.o(.text) refers to memmovea.o(.text) for __aeabi_memcpy4
    ssl_tls.o(.text) refers to md.o(.text) for mbedtls_md_init
    ssl_tls.o(.text) refers to strlen.o(.text) for strlen
    ssl_tls.o(.text) refers to sha256.o(.text) for mbedtls_sha256_init
    ssl_tls.o(.text) refers to platform.o(.data) for mbedtls_free
    ssl_tls.o(.text) refers to sha512.o(.text) for mbedtls_sha512_init
    ssl_tls.o(.text) refers to cipher.o(.text) for mbedtls_cipher_info_from_type
    ssl_tls.o(.text) refers to ssl_ciphersuites.o(.text) for mbedtls_ssl_get_ciphersuite_name
    ssl_tls.o(.text) refers to memseta.o(.text) for __aeabi_memclr
    ssl_tls.o(.text) refers to ecdh.o(.text) for mbedtls_ecdh_calc_secret
    ssl_tls.o(.text) refers to ssl_tls.o(.conststring) for .conststring
    ssl_tls.o(.text) refers to printfa.o(i.__0printf) for __2printf
    ssl_tls.o(.text) refers to memcmp.o(.text) for memcmp
    ssl_tls.o(.text) refers to llshl.o(.text) for __aeabi_llsl
    ssl_tls.o(.text) refers to pk.o(.text) for mbedtls_pk_can_do
    ssl_tls.o(.text) refers to ssl_cli.o(.text) for mbedtls_ssl_handshake_client_step
    ssl_tls.o(.text) refers to ssl_tls.o(.data) for mfl_code_to_length
    ssl_tls.o(.text) refers to ecp.o(.text) for mbedtls_ecp_grp_id_list
    ssl_tls.o(.text) refers to x509_crt.o(.constdata) for mbedtls_x509_crt_profile_suiteb
    version.o(.text) refers to memmovea.o(.text) for __aeabi_memcpy
    version_features.o(.text) refers to strcmp.o(.text) for strcmp
    version_features.o(.text) refers to version_features.o(.data) for features
    version_features.o(.data) refers to version_features.o(.conststring) for .conststring
    x509.o(.text) refers to asn1parse.o(.text) for mbedtls_asn1_get_len
    x509.o(.text) refers to platform.o(.data) for mbedtls_calloc
    x509.o(.text) refers to oid.o(.text) for mbedtls_oid_get_sig_alg
    x509.o(.text) refers to memseta.o(.text) for __aeabi_memclr4
    x509.o(.text) refers to printfa.o(i.__0snprintf) for __2snprintf
    x509.o(.text) refers to printfa.o(i.__0printf) for __2printf
    x509.o(.text) refers to x509_crt.o(.text) for mbedtls_x509_crt_init
    x509.o(.text) refers to certs.o(.constdata) for mbedtls_test_cli_crt_len
    x509.o(.text) refers to certs.o(.data) for mbedtls_test_cli_crt
    x509_crl.o(.text) refers to asn1parse.o(.text) for mbedtls_asn1_get_int
    x509_crl.o(.text) refers to x509.o(.text) for mbedtls_x509_get_ext
    x509_crl.o(.text) refers to memseta.o(.text) for __aeabi_memclr4
    x509_crl.o(.text) refers to memmovea.o(.text) for __aeabi_memcpy
    x509_crl.o(.text) refers to platform.o(.data) for mbedtls_calloc
    x509_crl.o(.text) refers to memcmp.o(.text) for memcmp
    x509_crl.o(.text) refers to pem.o(.text) for mbedtls_pem_init
    x509_crl.o(.text) refers to printfa.o(i.__0snprintf) for __2snprintf
    x509_crt.o(.text) refers to pk.o(.text) for mbedtls_pk_get_bitlen
    x509_crt.o(.text) refers to asn1parse.o(.text) for mbedtls_asn1_get_tag
    x509_crt.o(.text) refers to x509.o(.text) for mbedtls_x509_get_time
    x509_crt.o(.text) refers to oid.o(.text) for mbedtls_oid_get_x509_ext_type
    x509_crt.o(.text) refers to platform.o(.data) for mbedtls_calloc
    x509_crt.o(.text) refers to memmovea.o(.text) for __aeabi_memcpy
    x509_crt.o(.text) refers to pkparse.o(.text) for mbedtls_pk_parse_subpubkey
    x509_crt.o(.text) refers to memcmp.o(.text) for memcmp
    x509_crt.o(.text) refers to memseta.o(.text) for __aeabi_memclr4
    x509_crt.o(.text) refers to strstr.o(.text) for strstr
    x509_crt.o(.text) refers to pem.o(.text) for mbedtls_pem_init
    x509_crt.o(.text) refers to printfa.o(i.__0snprintf) for __2snprintf
    x509_crt.o(.text) refers to x509_crt.o(.constdata) for x509_crt_verify_strings
    x509_crt.o(.text) refers to md.o(.text) for mbedtls_md_info_from_type
    x509_crt.o(.text) refers to strlen.o(.text) for strlen
    x509_crt.o(.constdata) refers to x509_crt.o(.conststring) for .conststring
    lwip_api_lib.o(.text) refers to lwip_tcpip.o(.text) for tcpip_send_msg_wait_sem
    lwip_api_lib.o(.text) refers to lwip_api_msg.o(.text) for netconn_alloc
    lwip_api_lib.o(.text) refers to lwip_sys_arch.o(.text) for assert_printf
    lwip_api_lib.o(.text) refers to lwip_memp.o(.text) for memp_free
    lwip_api_lib.o(.text) refers to lwip_ip4_addr.o(.constdata) for ip_addr_any
    lwip_api_lib.o(.text) refers to lwip_api_msg.o(.data) for netconn_aborted
    lwip_api_msg.o(.text) refers to lwip_sys_arch.o(.text) for assert_printf
    lwip_api_msg.o(.text) refers to lwip_pbuf.o(.text) for pbuf_free
    lwip_api_msg.o(.text) refers to lwip_memp.o(.text) for memp_malloc_fn
    lwip_api_msg.o(.text) refers to lwip_netbuf.o(.text) for netbuf_delete
    lwip_api_msg.o(.text) refers to lwip_tcp.o(.text) for tcp_recved
    lwip_api_msg.o(.text) refers to lwip_tcp_out.o(.text) for tcp_write
    lwip_api_msg.o(.text) refers to lwip_udp.o(.text) for udp_new_ip_type
    lwip_api_msg.o(.text) refers to lwip_api_msg.o(.data) for netconn_aborted
    lwip_api_msg.o(.text) refers to lwip_tcpip.o(.data) for lock_tcpip_core
    lwip_api_msg.o(.text) refers to lwip_igmp.o(.text) for igmp_joingroup
    lwip_api_msg.o(.text) refers to lwip_dns.o(.text) for dns_gethostbyname_addrtype
    lwip_err.o(.text) refers to lwip_err.o(.constdata) for err_to_errno_table
    lwip_err.o(.text) refers to lwip_err.o(.data) for err_strerr
    lwip_err.o(.data) refers to lwip_err.o(.conststring) for .conststring
    lwip_netbuf.o(.text) refers to lwip_memp.o(.text) for memp_malloc_fn
    lwip_netbuf.o(.text) refers to lwip_pbuf.o(.text) for pbuf_free
    lwip_netbuf.o(.text) refers to lwip_sys_arch.o(.text) for assert_printf
    lwip_netdb.o(.text) refers to lwip_api_lib.o(.text) for netconn_gethostbyname
    lwip_netdb.o(.text) refers to strncpy.o(.text) for strncpy
    lwip_netdb.o(.text) refers to strlen.o(.text) for strlen
    lwip_netdb.o(.text) refers to memmovea.o(.text) for __aeabi_memcpy
    lwip_netdb.o(.text) refers to lwip_memp.o(.text) for memp_free
    lwip_netdb.o(.text) refers to atoi.o(.text) for atoi
    lwip_netdb.o(.text) refers to lwip_ip4_addr.o(.text) for ip4addr_aton
    lwip_netdb.o(.text) refers to lwip_sys_arch.o(.text) for assert_printf
    lwip_netdb.o(.text) refers to memseta.o(.text) for __aeabi_memclr4
    lwip_netdb.o(.text) refers to lwip_def.o(.text) for lwip_htons
    lwip_netdb.o(.text) refers to lwip_netdb.o(.data) for h_errno
    lwip_netdb.o(.text) refers to lwip_netdb.o(.bss) for s_hostname
    lwip_sockets.o(.text) refers to lwip_sys_arch.o(.text) for sys_arch_protect
    lwip_sockets.o(.text) refers to lwip_pbuf.o(.text) for pbuf_free
    lwip_sockets.o(.text) refers to lwip_netbuf.o(.text) for netbuf_delete
    lwip_sockets.o(.text) refers to lwip_api_lib.o(.text) for netconn_accept
    lwip_sockets.o(.text) refers to lwip_err.o(.text) for err_to_errno
    lwip_sockets.o(.text) refers to lwip_sys_arch.o(.data) for errno
    lwip_sockets.o(.text) refers to lwip_sockets.o(.bss) for sockets
    lwip_sockets.o(.text) refers to lwip_sockets.o(.data) for select_cb_list
    lwip_sockets.o(.text) refers to lwip_def.o(.text) for lwip_htons
    lwip_sockets.o(.text) refers to memmovea.o(.text) for __aeabi_memcpy
    lwip_sockets.o(.text) refers to lwip_tcpip.o(.data) for lock_tcpip_core
    lwip_sockets.o(.text) refers to lwip_igmp.o(.text) for igmp_joingroup
    lwip_tcpip.o(.text) refers to lwip_sys_arch.o(.text) for sys_mutex_lock
    lwip_tcpip.o(.text) refers to lwip_timeouts.o(.text) for sys_timeouts_mbox_fetch
    lwip_tcpip.o(.text) refers to lwip_memp.o(.text) for memp_free
    lwip_tcpip.o(.text) refers to lwip_init.o(.text) for lwip_init
    lwip_tcpip.o(.text) refers to lwip_pbuf.o(.text) for pbuf_free
    lwip_tcpip.o(.text) refers to lwip_tcpip.o(.data) for tcpip_init_done
    lwip_tcpip.o(.text) refers to lwip_ip4.o(.text) for ip4_input
    lwip_tcpip.o(.text) refers to lwip_mem.o(.text) for mem_free
    lwip_net_socket.o(.text) refers to memseta.o(.text) for __aeabi_memclr4
    lwip_net_socket.o(.text) refers to lwip_netdb.o(.text) for lwip_getaddrinfo
    lwip_net_socket.o(.text) refers to lwip_sockets.o(.text) for lwip_socket
    lwip_net_socket.o(.text) refers to lwip_sys_arch.o(.data) for errno
    lwip_sys_arch.o(.text) refers to cmsis_os.o(.text) for osMessageCreate
    lwip_sys_arch.o(.text) refers to memseta.o(.text) for __aeabi_memclr4
    lwip_sys_arch.o(.text) refers to tasks.o(.text) for xTaskGetTickCount
    lwip_sys_arch.o(.text) refers to printfa.o(i.__0printf) for __2printf
    lwip_sys_arch.o(.text) refers to lwip_sys_arch.o(.constdata) for .constdata
    lwip_sys_arch.o(.text) refers to lwip_stats.o(.bss) for lwip_stats
    lwip_sys_arch.o(.text) refers to lwip_sys_arch.o(.data) for lwip_sys_mutex
    lwip_def.o(.text) refers to strlen.o(.text) for strlen
    lwip_def.o(.text) refers to strncmp.o(.text) for strncmp
    lwip_def.o(.text) refers to lwip_def.o(.conststring) for .conststring
    lwip_dns.o(.text) refers to lwip_udp.o(.text) for udp_remove
    lwip_dns.o(.text) refers to lwip_sys_arch.o(.text) for assert_printf
    lwip_dns.o(.text) refers to strlen.o(.text) for strlen
    lwip_dns.o(.text) refers to lwip_pbuf.o(.text) for pbuf_alloc
    lwip_dns.o(.text) refers to lwip_def.o(.text) for lwip_htons
    lwip_dns.o(.text) refers to lwip_random.o(.text) for lwip_get_random
    lwip_dns.o(.text) refers to lwip_dns.o(.data) for dns_servers
    lwip_dns.o(.text) refers to lwip_ip4_addr.o(.constdata) for ip_addr_any
    lwip_dns.o(.text) refers to lwip_dns.o(.bss) for dns_requests
    lwip_dns.o(.text) refers to memmovea.o(.text) for __aeabi_memcpy
    lwip_dns.o(.text) refers to lwip_ip4_addr.o(.text) for ip4addr_aton
    lwip_inet_chksum.o(.text) refers to lwip_def.o(.text) for lwip_htons
    lwip_inet_chksum.o(.text) refers to lwip_sys_arch.o(.text) for assert_printf
    lwip_inet_chksum.o(.text) refers to lwip_inet_chksum.o(.conststring) for .conststring
    lwip_init.o(.text) refers to lwip_sys_arch.o(.text) for assert_printf
    lwip_init.o(.text) refers to lwip_stats.o(.text) for stats_init
    lwip_init.o(.text) refers to lwip_mem.o(.text) for mem_init
    lwip_init.o(.text) refers to lwip_memp.o(.text) for memp_init
    lwip_init.o(.text) refers to lwip_netif.o(.text) for netif_init
    lwip_init.o(.text) refers to lwip_udp.o(.text) for udp_init
    lwip_init.o(.text) refers to lwip_tcp.o(.text) for tcp_init
    lwip_init.o(.text) refers to lwip_igmp.o(.text) for igmp_init
    lwip_init.o(.text) refers to lwip_dns.o(.text) for dns_init
    lwip_init.o(.text) refers to lwip_ppp.o(.text) for ppp_init
    lwip_init.o(.text) refers to lwip_timeouts.o(.text) for sys_timeouts_init
    lwip_init.o(.text) refers to lwip_init.o(.conststring) for .conststring
    lwip_mem.o(.text) refers to lwip_sys_arch.o(.text) for assert_printf
    lwip_mem.o(.text) refers to lwip_mem.o(.data) for ram
    lwip_mem.o(.text) refers to lwip_mem.o(.bss) for ram_heap
    lwip_mem.o(.text) refers to lwip_stats.o(.bss) for lwip_stats
    lwip_mem.o(.text) refers to memseta.o(.text) for __aeabi_memclr
    lwip_memp.o(.text) refers to memmovea.o(.text) for __aeabi_memcpy4
    lwip_memp.o(.text) refers to strcat.o(.text) for strcat
    lwip_memp.o(.text) refers to lwip_sys_arch.o(.text) for assert_printf
    lwip_memp.o(.text) refers to memseta.o(.text) for __aeabi_memset
    lwip_memp.o(.text) refers to lwip_memp.o(.constdata) for .constdata
    lwip_memp.o(.text) refers to lwip_stats.o(.bss) for lwip_stats
    lwip_memp.o(.constdata) refers to lwip_memp.o(.conststring) for .conststring
    lwip_memp.o(.constdata) refers to lwip_memp.o(.bss) for memp_stats_UDP_PCB
    lwip_memp.o(.constdata) refers to lwip_memp.o(.data) for memp_tab_UDP_PCB
    lwip_netif.o(.text) refers to lwip_ip4.o(.text) for ip4_input
    lwip_netif.o(.text) refers to lwip_igmp.o(.text) for igmp_report_groups
    lwip_netif.o(.text) refers to lwip_tcp.o(.text) for tcp_netif_ip_addr_changed
    lwip_netif.o(.text) refers to lwip_udp.o(.text) for udp_netif_ip_addr_changed
    lwip_netif.o(.text) refers to lwip_sys_arch.o(.text) for assert_printf
    lwip_netif.o(.text) refers to lwip_ip4_addr.o(.constdata) for ip_addr_any
    lwip_netif.o(.text) refers to lwip_netif.o(.data) for netif_num
    lwip_pbuf.o(.text) refers to lwip_sys_arch.o(.text) for assert_printf
    lwip_pbuf.o(.text) refers to lwip_memp.o(.text) for memp_free
    lwip_pbuf.o(.text) refers to lwip_mem.o(.text) for mem_free
    lwip_pbuf.o(.text) refers to memmovea.o(.text) for __aeabi_memcpy
    lwip_pbuf.o(.text) refers to strlen.o(.text) for strlen
    lwip_stats.o(.text) refers to printfa.o(i.__0printf) for __2printf
    lwip_stats.o(.text) refers to lwip_stats.o(.bss) for lwip_stats
    lwip_tcp.o(.text) refers to lwip_random.o(.text) for lwip_get_random
    lwip_tcp.o(.text) refers to lwip_pbuf.o(.text) for pbuf_free
    lwip_tcp.o(.text) refers to lwip_memp.o(.text) for memp_free
    lwip_tcp.o(.text) refers to lwip_sys_arch.o(.text) for assert_printf
    lwip_tcp.o(.text) refers to lwip_tcp_out.o(.text) for tcp_zero_window_probe
    lwip_tcp.o(.text) refers to lwip_tcp.o(.data) for tcp_port
    lwip_tcp.o(.text) refers to lwip_tcp.o(.constdata) for tcp_persist_backoff
    lwip_tcp.o(.text) refers to lwip_timeouts.o(.text) for tcp_timer_needed
    lwip_tcp.o(.text) refers to lwip_tcp_in.o(.text) for tcp_trigger_input_pcb_close
    lwip_tcp.o(.text) refers to lwip_tcp_in.o(.data) for tcp_input_pcb
    lwip_tcp.o(.text) refers to lwip_ip4_addr.o(.constdata) for ip_addr_any
    lwip_tcp.o(.text) refers to lwip_ip4.o(.text) for ip4_route
    lwip_tcp.o(.text) refers to lwip_tcp_isn.o(.text) for lwip_hook_tcp_isn
    lwip_tcp.o(.text) refers to memseta.o(.text) for __aeabi_memclr4
    lwip_tcp.o(.text) refers to lwip_stats.o(.bss) for lwip_stats
    lwip_tcp.o(.constdata) refers to lwip_tcp.o(.conststring) for .conststring
    lwip_tcp.o(.constdata) refers to lwip_tcp.o(.data) for tcp_listen_pcbs
    lwip_tcp_in.o(.text) refers to lwip_sys_arch.o(.text) for assert_printf
    lwip_tcp_in.o(.text) refers to lwip_tcp_out.o(.text) for tcp_rexmit_fast
    lwip_tcp_in.o(.text) refers to lwip_pbuf.o(.text) for pbuf_clen
    lwip_tcp_in.o(.text) refers to lwip_tcp.o(.text) for tcp_seg_free
    lwip_tcp_in.o(.text) refers to lwip_def.o(.text) for lwip_htonl
    lwip_tcp_in.o(.text) refers to lwip_tcp_in.o(.data) for flags
    lwip_tcp_in.o(.text) refers to lwip_tcp.o(.data) for tcp_ticks
    lwip_tcp_in.o(.text) refers to lwip_tcp_in.o(.bss) for inseg
    lwip_tcp_in.o(.text) refers to lwip_ip.o(.bss) for ip_data
    lwip_tcp_in.o(.text) refers to lwip_timeouts.o(.text) for tcp_timer_needed
    lwip_tcp_in.o(.text) refers to lwip_ip4_addr.o(.text) for ip4_addr_isbroadcast_u32
    lwip_tcp_in.o(.text) refers to lwip_inet_chksum.o(.text) for ip_chksum_pseudo
    lwip_tcp_in.o(.text) refers to lwip_memp.o(.text) for memp_free
    lwip_tcp_out.o(.text) refers to lwip_pbuf.o(.text) for pbuf_alloc
    lwip_tcp_out.o(.text) refers to lwip_sys_arch.o(.text) for assert_printf
    lwip_tcp_out.o(.text) refers to lwip_def.o(.text) for lwip_htons
    lwip_tcp_out.o(.text) refers to lwip_memp.o(.text) for memp_malloc_fn
    lwip_tcp_out.o(.text) refers to lwip_tcp.o(.text) for tcp_seg_free
    lwip_tcp_out.o(.text) refers to lwip_tcp_out.o(.conststring) for .conststring
    lwip_tcp_out.o(.text) refers to memmovea.o(.text) for __aeabi_memcpy
    lwip_tcp_out.o(.text) refers to lwip_ip4.o(.text) for ip4_route
    lwip_tcp_out.o(.text) refers to lwip_inet_chksum.o(.text) for ip_chksum_pseudo
    lwip_tcp_out.o(.text) refers to lwip_tcp.o(.data) for tcp_ticks
    lwip_tcp_out.o(.text) refers to lwip_tcp_in.o(.data) for tcp_input_pcb
    lwip_timeouts.o(.text) refers to lwip_memp.o(.text) for memp_malloc_fn
    lwip_timeouts.o(.text) refers to lwip_sys_arch.o(.text) for assert_printf
    lwip_timeouts.o(.text) refers to lwip_tcp.o(.text) for tcp_tmr
    lwip_timeouts.o(.text) refers to lwip_timeouts.o(.conststring) for .conststring
    lwip_timeouts.o(.text) refers to lwip_timeouts.o(.data) for next_timeout
    lwip_timeouts.o(.text) refers to lwip_tcp.o(.data) for tcp_active_pcbs
    lwip_timeouts.o(.text) refers to lwip_timeouts.o(.constdata) for lwip_cyclic_timers
    lwip_timeouts.o(.text) refers to lwip_tcpip.o(.data) for lock_tcpip_core
    lwip_timeouts.o(.constdata) refers to lwip_tcp.o(.text) for tcp_tmr
    lwip_timeouts.o(.constdata) refers to lwip_ip4_frag.o(.text) for ip_reass_tmr
    lwip_timeouts.o(.constdata) refers to lwip_igmp.o(.text) for igmp_tmr
    lwip_timeouts.o(.constdata) refers to lwip_dns.o(.text) for dns_tmr
    lwip_udp.o(.text) refers to lwip_random.o(.text) for lwip_get_random
    lwip_udp.o(.text) refers to lwip_pbuf.o(.text) for pbuf_free
    lwip_udp.o(.text) refers to lwip_ip4_addr.o(.text) for ip4_addr_isbroadcast_u32
    lwip_udp.o(.text) refers to lwip_def.o(.text) for lwip_htons
    lwip_udp.o(.text) refers to lwip_inet_chksum.o(.text) for ip_chksum_pseudo
    lwip_udp.o(.text) refers to lwip_sys_arch.o(.text) for assert_printf
    lwip_udp.o(.text) refers to lwip_icmp.o(.text) for icmp_dest_unreach
    lwip_udp.o(.text) refers to lwip_udp.o(.data) for udp_port
    lwip_udp.o(.text) refers to lwip_ip.o(.bss) for ip_data
    lwip_udp.o(.text) refers to lwip_ip4_addr.o(.constdata) for ip_addr_any
    lwip_udp.o(.text) refers to lwip_ip4.o(.text) for ip4_output_if_src
    lwip_udp.o(.text) refers to lwip_memp.o(.text) for memp_free
    lwip_udp.o(.text) refers to memseta.o(.text) for __aeabi_memclr4
    lwip_icmp.o(.text) refers to lwip_ip4_addr.o(.text) for ip4_addr_isbroadcast_u32
    lwip_icmp.o(.text) refers to lwip_inet_chksum.o(.text) for inet_chksum_pbuf
    lwip_icmp.o(.text) refers to lwip_pbuf.o(.text) for pbuf_free
    lwip_icmp.o(.text) refers to memmovea.o(.text) for __aeabi_memcpy
    lwip_icmp.o(.text) refers to lwip_sys_arch.o(.text) for assert_printf
    lwip_icmp.o(.text) refers to lwip_ip4.o(.text) for ip4_output_if
    lwip_icmp.o(.text) refers to lwip_ip.o(.bss) for ip_data
    lwip_icmp.o(.text) refers to lwip_icmp.o(.conststring) for .conststring
    lwip_igmp.o(.text) refers to lwip_memp.o(.text) for memp_malloc_fn
    lwip_igmp.o(.text) refers to lwip_sys_arch.o(.text) for assert_printf
    lwip_igmp.o(.text) refers to lwip_random.o(.text) for lwip_get_random
    lwip_igmp.o(.text) refers to lwip_pbuf.o(.text) for pbuf_free
    lwip_igmp.o(.text) refers to lwip_inet_chksum.o(.text) for inet_chksum
    lwip_igmp.o(.text) refers to lwip_ip4.o(.text) for ip4_output_if_opt
    lwip_igmp.o(.text) refers to lwip_igmp.o(.data) for allsystems
    lwip_igmp.o(.text) refers to lwip_igmp.o(.conststring) for .conststring
    lwip_igmp.o(.text) refers to lwip_ip4_addr.o(.constdata) for ip_addr_any
    lwip_igmp.o(.text) refers to lwip_netif.o(.data) for netif_list
    lwip_ip4.o(.text) refers to lwip_pbuf.o(.text) for pbuf_free
    lwip_ip4.o(.text) refers to lwip_def.o(.text) for lwip_htons
    lwip_ip4.o(.text) refers to lwip_inet_chksum.o(.text) for inet_chksum
    lwip_ip4.o(.text) refers to lwip_igmp.o(.text) for igmp_lookfor_group
    lwip_ip4.o(.text) refers to lwip_ip4_addr.o(.text) for ip4_addr_isbroadcast_u32
    lwip_ip4.o(.text) refers to lwip_ip4_frag.o(.text) for ip4_reass
    lwip_ip4.o(.text) refers to lwip_udp.o(.text) for udp_input
    lwip_ip4.o(.text) refers to lwip_tcp_in.o(.text) for tcp_input
    lwip_ip4.o(.text) refers to lwip_icmp.o(.text) for icmp_input
    lwip_ip4.o(.text) refers to lwip_sys_arch.o(.text) for assert_printf
    lwip_ip4.o(.text) refers to memmovea.o(.text) for __aeabi_memcpy
    lwip_ip4.o(.text) refers to memseta.o(.text) for __aeabi_memclr
    lwip_ip4.o(.text) refers to lwip_ip4.o(.data) for ip4_default_multicast_netif
    lwip_ip4.o(.text) refers to lwip_netif.o(.data) for netif_list
    lwip_ip4.o(.text) refers to lwip_ip.o(.bss) for ip_data
    lwip_ip4.o(.text) refers to lwip_ip4.o(.conststring) for .conststring
    lwip_ip4.o(.text) refers to lwip_ip4_addr.o(.constdata) for ip_addr_any
    lwip_ip4_addr.o(.text) refers to lwip_def.o(.text) for lwip_htonl
    lwip_ip4_addr.o(.text) refers to lwip_sys_arch.o(.text) for assert_printf
    lwip_ip4_addr.o(.text) refers to lwip_ip4_addr.o(.conststring) for .conststring
    lwip_ip4_addr.o(.text) refers to lwip_ip4_addr.o(.bss) for str
    lwip_ip4_frag.o(.text) refers to lwip_sys_arch.o(.text) for assert_printf
    lwip_ip4_frag.o(.text) refers to lwip_memp.o(.text) for memp_free
    lwip_ip4_frag.o(.text) refers to memmovea.o(.text) for __aeabi_memcpy
    lwip_ip4_frag.o(.text) refers to lwip_icmp.o(.text) for icmp_time_exceeded
    lwip_ip4_frag.o(.text) refers to lwip_pbuf.o(.text) for pbuf_clen
    lwip_ip4_frag.o(.text) refers to memseta.o(.text) for __aeabi_memclr4
    lwip_ip4_frag.o(.text) refers to lwip_def.o(.text) for lwip_htons
    lwip_ip4_frag.o(.text) refers to lwip_ip4_frag.o(.data) for reassdatagrams
    lwip_ip4_frag.o(.text) refers to lwip_ip4_frag.o(.conststring) for .conststring
    lwip_ip4_frag.o(.text) refers to lwip_inet_chksum.o(.text) for inet_chksum
    lwip_sio.o(.text) refers to lwip_sio.o(.data) for m_abort
    lwip_slipif.o(.text) refers to lwip_sys_arch.o(.text) for assert_printf
    lwip_slipif.o(.text) refers to lwip_sio.o(.text) for sio_send
    lwip_slipif.o(.text) refers to lwip_pbuf.o(.text) for pbuf_realloc
    lwip_slipif.o(.text) refers to lwip_mem.o(.text) for mem_malloc
    lwip_slipif.o(.text) refers to lwip_slipif.o(.conststring) for .conststring
    lwip_auth.o(.text) refers to lwip_ppp.o(.text) for new_phase
    lwip_auth.o(.text) refers to lwip_utils.o(.text) for ppp_notice
    lwip_auth.o(.text) refers to lwip_lcp.o(.text) for lcp_lowerdown
    lwip_auth.o(.text) refers to lwip_chap-new.o(.text) for chap_auth_with_peer
    lwip_auth.o(.text) refers to strcmp.o(.text) for strcmp
    lwip_auth.o(.text) refers to strlen.o(.text) for strlen
    lwip_auth.o(.text) refers to memmovea.o(.text) for __aeabi_memcpy
    lwip_auth.o(.text) refers to lwip_ppp.o(.constdata) for protocols
    lwip_chap-md5.o(.text) refers to lwip_md5.o(.text) for md5_starts
    lwip_chap-md5.o(.constdata) refers to lwip_chap-md5.o(.text) for chap_md5_make_response
    lwip_chap-new.o(.text) refers to lwip_utils.o(.text) for ppp_error
    lwip_chap-new.o(.text) refers to lwip_pbuf.o(.text) for pbuf_alloc
    lwip_chap-new.o(.text) refers to lwip_auth.o(.text) for get_secret
    lwip_chap-new.o(.text) refers to memseta.o(.text) for __aeabi_memclr4
    lwip_chap-new.o(.text) refers to strlen.o(.text) for strlen
    lwip_chap-new.o(.text) refers to memmovea.o(.text) for __aeabi_memcpy
    lwip_chap-new.o(.text) refers to lwip_ppp.o(.text) for ppp_write
    lwip_chap-new.o(.text) refers to lwip_chap-new.o(.constdata) for chap_digests
    lwip_chap-new.o(.constdata) refers to lwip_chap-md5.o(.constdata) for md5_digest
    lwip_chap-new.o(.constdata) refers to lwip_chap-new.o(.text) for chap_init
    lwip_fsm.o(.text) refers to lwip_pbuf.o(.text) for pbuf_alloc
    lwip_fsm.o(.text) refers to memmovea.o(.text) for __aeabi_memcpy
    lwip_fsm.o(.text) refers to lwip_ppp.o(.text) for ppp_write
    lwip_fsm.o(.text) refers to lwip_timeouts.o(.text) for sys_untimeout
    lwip_fsm.o(.text) refers to lwip_utils.o(.text) for ppp_warn
    lwip_fsm.o(.text) refers to lwip_sys_arch.o(.text) for assert_printf
    lwip_fsm.o(.text) refers to strlen.o(.text) for strlen
    lwip_fsm.o(.text) refers to lwip_fsm.o(.conststring) for .conststring
    lwip_ipcp.o(.text) refers to lwip_fsm.o(.text) for fsm_init
    lwip_ipcp.o(.text) refers to memmovea.o(.text) for __aeabi_memcpy4
    lwip_ipcp.o(.text) refers to memseta.o(.text) for __aeabi_memclr4
    lwip_ipcp.o(.text) refers to lwip_def.o(.text) for lwip_htonl
    lwip_ipcp.o(.text) refers to lwip_ipcp.o(.constdata) for ipcp_callbacks
    lwip_ipcp.o(.text) refers to lwip_utils.o(.text) for ppp_error
    lwip_ipcp.o(.text) refers to lwip_ppp.o(.text) for sdns
    lwip_ipcp.o(.text) refers to lwip_auth.o(.text) for np_up
    lwip_ipcp.o(.constdata) refers to lwip_ipcp.o(.text) for ipcp_resetci
    lwip_ipcp.o(.constdata) refers to lwip_ipcp.o(.conststring) for .conststring
    lwip_lcp.o(.text) refers to lwip_fsm.o(.text) for fsm_init
    lwip_lcp.o(.text) refers to memseta.o(.text) for __aeabi_memclr4
    lwip_lcp.o(.text) refers to lwip_auth.o(.text) for link_terminated
    lwip_lcp.o(.text) refers to lwip_ppp.o(.text) for new_phase
    lwip_lcp.o(.text) refers to lwip_timeouts.o(.text) for sys_untimeout
    lwip_lcp.o(.text) refers to lwip_utils.o(.text) for ppp_dbglog
    lwip_lcp.o(.text) refers to lwip_lcp.o(.constdata) for lcp_callbacks
    lwip_lcp.o(.text) refers to lwip_ppp.o(.constdata) for protocols
    lwip_lcp.o(.text) refers to lwip_magic.o(.text) for magic
    lwip_lcp.o(.text) refers to memmovea.o(.text) for __aeabi_memcpy4
    lwip_lcp.o(.text) refers to lwip_pbuf.o(.text) for pbuf_alloc
    lwip_lcp.o(.constdata) refers to lwip_lcp.o(.text) for lcp_resetci
    lwip_lcp.o(.constdata) refers to lwip_lcp.o(.conststring) for .conststring
    lwip_magic.o(.text) refers to lwip_md5.o(.text) for md5_starts
    lwip_magic.o(.text) refers to lwip_sys_arch.o(.text) for sys_jiffies
    lwip_magic.o(.text) refers to lwip_random.o(.text) for lwip_get_random
    lwip_magic.o(.text) refers to memmovea.o(.text) for __aeabi_memcpy
    lwip_magic.o(.text) refers to lwip_magic.o(.bss) for magic_randpool
    lwip_magic.o(.text) refers to lwip_magic.o(.data) for magic_randomseed
    lwip_ppp.o(.text) refers to lwip_sys_arch.o(.text) for assert_printf
    lwip_ppp.o(.text) refers to lwip_timeouts.o(.text) for sys_timeout
    lwip_ppp.o(.text) refers to lwip_lcp.o(.text) for lcp_lowerdown
    lwip_ppp.o(.text) refers to lwip_auth.o(.text) for link_terminated
    lwip_ppp.o(.text) refers to lwip_netif.o(.text) for netif_remove
    lwip_ppp.o(.text) refers to lwip_memp.o(.text) for memp_free_pool
    lwip_ppp.o(.text) refers to lwip_pbuf.o(.text) for pbuf_free
    lwip_ppp.o(.text) refers to lwip_magic.o(.text) for magic_init
    lwip_ppp.o(.text) refers to memseta.o(.text) for __aeabi_memclr4
    lwip_ppp.o(.text) refers to memmovea.o(.text) for __aeabi_memcpy
    lwip_ppp.o(.text) refers to lwip_utils.o(.text) for ppp_dbglog
    lwip_ppp.o(.text) refers to lwip_ip4.o(.text) for ip4_input
    lwip_ppp.o(.text) refers to lwip_ppp.o(.conststring) for .conststring
    lwip_ppp.o(.text) refers to lwip_ppp.o(.constdata) for memp_PPP_PCB
    lwip_ppp.o(.text) refers to lwip_pppos.o(.constdata) for memp_PPPOS_PCB
    lwip_ppp.o(.text) refers to lwip_ip4_addr.o(.constdata) for ip_addr_any
    lwip_ppp.o(.text) refers to lwip_dns.o(.text) for dns_setserver
    lwip_ppp.o(.constdata) refers to lwip_ppp.o(.conststring) for .conststring
    lwip_ppp.o(.constdata) refers to lwip_ppp.o(.bss) for memp_stats_PPP_PCB
    lwip_ppp.o(.constdata) refers to lwip_ppp.o(.data) for memp_tab_PPP_PCB
    lwip_ppp.o(.constdata) refers to lwip_lcp.o(.constdata) for lcp_protent
    lwip_ppp.o(.constdata) refers to lwip_chap-new.o(.constdata) for chap_protent
    lwip_ppp.o(.constdata) refers to lwip_ipcp.o(.constdata) for ipcp_protent
    lwip_pppapi.o(.text) refers to lwip_netif.o(.text) for netif_set_default
    lwip_pppapi.o(.text) refers to lwip_tcpip.o(.text) for tcpip_api_call
    lwip_pppapi.o(.text) refers to lwip_pppos.o(.text) for pppos_create
    lwip_pppapi.o(.text) refers to lwip_ppp.o(.text) for ppp_connect
    lwip_pppos.o(.text) refers to lwip_memp.o(.text) for memp_malloc_pool_fn
    lwip_pppos.o(.text) refers to lwip_ppp.o(.text) for ppp_new
    lwip_pppos.o(.text) refers to memseta.o(.text) for __aeabi_memclr4
    lwip_pppos.o(.text) refers to lwip_sys_arch.o(.text) for sys_now
    lwip_pppos.o(.text) refers to lwip_pbuf.o(.text) for pbuf_free
    lwip_pppos.o(.text) refers to lwip_pppos.o(.conststring) for .conststring
    lwip_pppos.o(.text) refers to lwip_pppos.o(.constdata) for memp_PPPOS_PCB
    lwip_pppos.o(.text) refers to printfa.o(i.__0printf) for __2printf
    lwip_pppos.o(.text) refers to lwip_tcpip.o(.text) for tcpip_callback_with_block
    lwip_pppos.o(.constdata) refers to lwip_pppos.o(.conststring) for .conststring
    lwip_pppos.o(.constdata) refers to lwip_pppos.o(.bss) for memp_stats_PPPOS_PCB
    lwip_pppos.o(.constdata) refers to lwip_pppos.o(.data) for memp_tab_PPPOS_PCB
    lwip_pppos.o(.constdata) refers to lwip_pppos.o(.text) for pppos_connect
    lwip_utils.o(.text) refers to strlen.o(.text) for strlen
    lwip_utils.o(.text) refers to strcpy.o(.text) for strcpy
    lwip_utils.o(.text) refers to strncpy.o(.text) for strncpy
    lwip_utils.o(.text) refers to memmovea.o(.text) for __aeabi_memcpy
    lwip_utils.o(.text) refers to ctype_o.o(.text) for __rt_ctype_table
    lwip_utils.o(.text) refers to lwip_def.o(.text) for lwip_htonl
    lwip_utils.o(.text) refers to lwip_utils.o(.data) for hexchars
    lwip_utils.o(.text) refers to lwip_sys_arch.o(.text) for assert_printf
    lwip_utils.o(.text) refers to lwip_utils.o(.conststring) for .conststring
    lwip_md5.o(.text) refers to memmovea.o(.text) for __aeabi_memcpy
    lwip_md5.o(.text) refers to lwip_md5.o(.constdata) for md5_padding
    lwip_random.o(.text) refers to rand.o(.text) for rand
    lwip_tcp_isn.o(.text) refers to memseta.o(.text) for __aeabi_memclr
    lwip_tcp_isn.o(.text) refers to memmovea.o(.text) for __aeabi_memcpy
    lwip_tcp_isn.o(.text) refers to lwip_md5.o(.text) for md5_starts
    lwip_tcp_isn.o(.text) refers to lwip_sys_arch.o(.text) for sys_now
    lwip_tcp_isn.o(.text) refers to lwip_tcp_isn.o(.bss) for input
    lwip_tcp_isn.o(.text) refers to lwip_tcp_isn.o(.data) for base_time
    lwip_stack.o(.text) refers to lwip_dns.o(.text) for dns_setserver
    lwip_stack.o(.text) refers to lwip_sys_arch.o(.text) for sys_sem_signal
    lwip_stack.o(.text) refers to lwip_ip4_addr.o(.text) for ip4addr_ntoa_r
    lwip_stack.o(.text) refers to lwip_random.o(.text) for lwip_seed_random
    lwip_stack.o(.text) refers to lwip_tcp_isn.o(.text) for lwip_init_tcp_isn
    lwip_stack.o(.text) refers to lwip_tcpip.o(.text) for tcpip_init
    lwip_stack.o(.text) refers to ppp_lwip.o(.text) for ppp_lwip_if_init
    lwip_stack.o(.text) refers to lwip_netif.o(.text) for netif_set_default
    lwip_stack.o(.text) refers to lwip_stack.o(.constdata) for .constdata
    lwip_stack.o(.text) refers to lwip_stack.o(.data) for lwip_tcpip_inited
    lwip_stack.o(.text) refers to lwip_stack.o(.bss) for lwip_mac_address
    ppp_lwip.o(.text) refers to ampm_filestream.o(.text) for fflush
    ppp_lwip.o(.text) refers to fwrite.o(i.fwrite) for fwrite
    ppp_lwip.o(.text) refers to printfa.o(i.__0printf) for __2printf
    ppp_lwip.o(.text) refers to lwip_ip4_addr.o(.text) for ip4addr_ntoa
    ppp_lwip.o(.text) refers to lwip_dns.o(.text) for dns_getserver
    ppp_lwip.o(.text) refers to lwip_sys_arch.o(.text) for sys_sem_signal
    ppp_lwip.o(.text) refers to lwip_ppp.o(.text) for ppp_close
    ppp_lwip.o(.text) refers to fread.o(i.fread) for fread
    ppp_lwip.o(.text) refers to lwip_pppos.o(.text) for pppos_input
    ppp_lwip.o(.text) refers to ppp_lwip.o(.data) for my_stream_out
    ppp_lwip.o(.text) refers to lwip_stack.o(.text) for mbed_lwip_ppp_bringdown
    ppp_lwip.o(.text) refers to ppp_lwip.o(.bss) for ip_addr
    entry.o(.ARM.Collect$$$$00000000) refers (Special) to entry10a.o(.ARM.Collect$$$$0000000D) for __rt_final_cpp
    entry.o(.ARM.Collect$$$$00000000) refers (Special) to entry11a.o(.ARM.Collect$$$$0000000F) for __rt_final_exit
    entry.o(.ARM.Collect$$$$00000000) refers (Special) to entry7b.o(.ARM.Collect$$$$00000008) for _main_clock
    entry.o(.ARM.Collect$$$$00000000) refers (Special) to entry8b.o(.ARM.Collect$$$$0000000A) for _main_cpp_init
    entry.o(.ARM.Collect$$$$00000000) refers (Special) to entry9a.o(.ARM.Collect$$$$0000000B) for _main_init
    entry.o(.ARM.Collect$$$$00000000) refers (Special) to entry5.o(.ARM.Collect$$$$00000004) for _main_scatterload
    entry.o(.ARM.Collect$$$$00000000) refers (Special) to entry2.o(.ARM.Collect$$$$00000001) for _main_stk
    fwrite.o(i.fwrite) refers to ampm_filestream.o(.text) for fputc
    fread.o(i.fread) refers to ampm_filestream.o(.text) for fgetc
    fwrite_e.o(.text) refers to ampm_filestream.o(.text) for fputc
    uldiv.o(.text) refers to llushr.o(.text) for __aeabi_llsr
    uldiv.o(.text) refers to llshl.o(.text) for __aeabi_llsl
    ctype_o.o(.text) refers to ctype_o.o(.constdata) for .constdata
    ctype_o.o(.constdata) refers to ctype_o.o(.constdata) for __ctype_table
    isalnum_o.o(.text) refers to ctype_o.o(.text) for __rt_ctype_table
    isalpha_o.o(.text) refers to ctype_o.o(.text) for __rt_ctype_table
    isblank_o.o(.text) refers to ctype_o.o(.constdata) for __ctype_table
    iscntrl_o.o(.text) refers to ctype_o.o(.text) for __rt_ctype_table
    isdigit_o.o(.text) refers to ctype_o.o(.text) for __rt_ctype_table
    isgraph_o.o(.text) refers to ctype_o.o(.text) for __rt_ctype_table
    islower_o.o(.text) refers to ctype_o.o(.text) for __rt_ctype_table
    isprint_o.o(.text) refers to ctype_o.o(.text) for __rt_ctype_table
    ispunct_o.o(.text) refers to ctype_o.o(.text) for __rt_ctype_table
    isspace_o.o(.text) refers to ctype_o.o(.text) for __rt_ctype_table
    isupper_o.o(.text) refers to ctype_o.o(.text) for __rt_ctype_table
    isxdigit_o.o(.text) refers to ctype_o.o(.text) for __rt_ctype_table
    rand.o(.text) refers to rand.o(.data) for .data
    printfb.o(i.__0fprintf$bare) refers to printfb.o(i._printf_core) for _printf_core
    printfb.o(i.__0fprintf$bare) refers to ampm_filestream.o(.text) for fputc
    printfb.o(i.__0printf$bare) refers to printfb.o(i._printf_core) for _printf_core
    printfb.o(i.__0printf$bare) refers to ampm_filestream.o(.text) for fputc
    printfb.o(i.__0printf$bare) refers to stdout.o(.data) for __stdout
    printfb.o(i.__0snprintf$bare) refers to printfb.o(i._printf_core) for _printf_core
    printfb.o(i.__0snprintf$bare) refers to printfb.o(i._snputc) for _snputc
    printfb.o(i.__0sprintf$bare) refers to printfb.o(i._printf_core) for _printf_core
    printfb.o(i.__0sprintf$bare) refers to printfb.o(i._sputc) for _sputc
    printfb.o(i.__0vfprintf$bare) refers to printfb.o(i._printf_core) for _printf_core
    printfb.o(i.__0vfprintf$bare) refers to ampm_filestream.o(.text) for fputc
    printfb.o(i.__0vprintf$bare) refers to printfb.o(i._printf_core) for _printf_core
    printfb.o(i.__0vprintf$bare) refers to ampm_filestream.o(.text) for fputc
    printfb.o(i.__0vprintf$bare) refers to stdout.o(.data) for __stdout
    printfb.o(i.__0vsnprintf$bare) refers to printfb.o(i._printf_core) for _printf_core
    printfb.o(i.__0vsnprintf$bare) refers to printfb.o(i._snputc) for _snputc
    printfb.o(i.__0vsprintf$bare) refers to printfb.o(i._printf_core) for _printf_core
    printfb.o(i.__0vsprintf$bare) refers to printfb.o(i._sputc) for _sputc
    printf0.o(i.__0fprintf$0) refers to printf0.o(i._printf_core) for _printf_core
    printf0.o(i.__0fprintf$0) refers to ampm_filestream.o(.text) for fputc
    printf0.o(i.__0printf$0) refers to printf0.o(i._printf_core) for _printf_core
    printf0.o(i.__0printf$0) refers to ampm_filestream.o(.text) for fputc
    printf0.o(i.__0printf$0) refers to stdout.o(.data) for __stdout
    printf0.o(i.__0snprintf$0) refers to printf0.o(i._printf_core) for _printf_core
    printf0.o(i.__0snprintf$0) refers to printf0.o(i._snputc) for _snputc
    printf0.o(i.__0sprintf$0) refers to printf0.o(i._printf_core) for _printf_core
    printf0.o(i.__0sprintf$0) refers to printf0.o(i._sputc) for _sputc
    printf0.o(i.__0vfprintf$0) refers to printf0.o(i._printf_core) for _printf_core
    printf0.o(i.__0vfprintf$0) refers to ampm_filestream.o(.text) for fputc
    printf0.o(i.__0vprintf$0) refers to printf0.o(i._printf_core) for _printf_core
    printf0.o(i.__0vprintf$0) refers to ampm_filestream.o(.text) for fputc
    printf0.o(i.__0vprintf$0) refers to stdout.o(.data) for __stdout
    printf0.o(i.__0vsnprintf$0) refers to printf0.o(i._printf_core) for _printf_core
    printf0.o(i.__0vsnprintf$0) refers to printf0.o(i._snputc) for _snputc
    printf0.o(i.__0vsprintf$0) refers to printf0.o(i._printf_core) for _printf_core
    printf0.o(i.__0vsprintf$0) refers to printf0.o(i._sputc) for _sputc
    printf1.o(i.__0fprintf$1) refers to printf1.o(i._printf_core) for _printf_core
    printf1.o(i.__0fprintf$1) refers to ampm_filestream.o(.text) for fputc
    printf1.o(i.__0printf$1) refers to printf1.o(i._printf_core) for _printf_core
    printf1.o(i.__0printf$1) refers to ampm_filestream.o(.text) for fputc
    printf1.o(i.__0printf$1) refers to stdout.o(.data) for __stdout
    printf1.o(i.__0snprintf$1) refers to printf1.o(i._printf_core) for _printf_core
    printf1.o(i.__0snprintf$1) refers to printf1.o(i._snputc) for _snputc
    printf1.o(i.__0sprintf$1) refers to printf1.o(i._printf_core) for _printf_core
    printf1.o(i.__0sprintf$1) refers to printf1.o(i._sputc) for _sputc
    printf1.o(i.__0vfprintf$1) refers to printf1.o(i._printf_core) for _printf_core
    printf1.o(i.__0vfprintf$1) refers to ampm_filestream.o(.text) for fputc
    printf1.o(i.__0vprintf$1) refers to printf1.o(i._printf_core) for _printf_core
    printf1.o(i.__0vprintf$1) refers to ampm_filestream.o(.text) for fputc
    printf1.o(i.__0vprintf$1) refers to stdout.o(.data) for __stdout
    printf1.o(i.__0vsnprintf$1) refers to printf1.o(i._printf_core) for _printf_core
    printf1.o(i.__0vsnprintf$1) refers to printf1.o(i._snputc) for _snputc
    printf1.o(i.__0vsprintf$1) refers to printf1.o(i._printf_core) for _printf_core
    printf1.o(i.__0vsprintf$1) refers to printf1.o(i._sputc) for _sputc
    printf1.o(i._printf_core) refers to uidiv.o(.text) for __aeabi_uidivmod
    printf2.o(i.__0fprintf$2) refers to printf2.o(i._printf_core) for _printf_core
    printf2.o(i.__0fprintf$2) refers to ampm_filestream.o(.text) for fputc
    printf2.o(i.__0printf$2) refers to printf2.o(i._printf_core) for _printf_core
    printf2.o(i.__0printf$2) refers to ampm_filestream.o(.text) for fputc
    printf2.o(i.__0printf$2) refers to stdout.o(.data) for __stdout
    printf2.o(i.__0snprintf$2) refers to printf2.o(i._printf_core) for _printf_core
    printf2.o(i.__0snprintf$2) refers to printf2.o(i._snputc) for _snputc
    printf2.o(i.__0sprintf$2) refers to printf2.o(i._printf_core) for _printf_core
    printf2.o(i.__0sprintf$2) refers to printf2.o(i._sputc) for _sputc
    printf2.o(i.__0vfprintf$2) refers to printf2.o(i._printf_core) for _printf_core
    printf2.o(i.__0vfprintf$2) refers to ampm_filestream.o(.text) for fputc
    printf2.o(i.__0vprintf$2) refers to printf2.o(i._printf_core) for _printf_core
    printf2.o(i.__0vprintf$2) refers to ampm_filestream.o(.text) for fputc
    printf2.o(i.__0vprintf$2) refers to stdout.o(.data) for __stdout
    printf2.o(i.__0vsnprintf$2) refers to printf2.o(i._printf_core) for _printf_core
    printf2.o(i.__0vsnprintf$2) refers to printf2.o(i._snputc) for _snputc
    printf2.o(i.__0vsprintf$2) refers to printf2.o(i._printf_core) for _printf_core
    printf2.o(i.__0vsprintf$2) refers to printf2.o(i._sputc) for _sputc
    printf3.o(i.__0fprintf$3) refers to printf3.o(i._printf_core) for _printf_core
    printf3.o(i.__0fprintf$3) refers to ampm_filestream.o(.text) for fputc
    printf3.o(i.__0printf$3) refers to printf3.o(i._printf_core) for _printf_core
    printf3.o(i.__0printf$3) refers to ampm_filestream.o(.text) for fputc
    printf3.o(i.__0printf$3) refers to stdout.o(.data) for __stdout
    printf3.o(i.__0snprintf$3) refers to printf3.o(i._printf_core) for _printf_core
    printf3.o(i.__0snprintf$3) refers to printf3.o(i._snputc) for _snputc
    printf3.o(i.__0sprintf$3) refers to printf3.o(i._printf_core) for _printf_core
    printf3.o(i.__0sprintf$3) refers to printf3.o(i._sputc) for _sputc
    printf3.o(i.__0vfprintf$3) refers to printf3.o(i._printf_core) for _printf_core
    printf3.o(i.__0vfprintf$3) refers to ampm_filestream.o(.text) for fputc
    printf3.o(i.__0vprintf$3) refers to printf3.o(i._printf_core) for _printf_core
    printf3.o(i.__0vprintf$3) refers to ampm_filestream.o(.text) for fputc
    printf3.o(i.__0vprintf$3) refers to stdout.o(.data) for __stdout
    printf3.o(i.__0vsnprintf$3) refers to printf3.o(i._printf_core) for _printf_core
    printf3.o(i.__0vsnprintf$3) refers to printf3.o(i._snputc) for _snputc
    printf3.o(i.__0vsprintf$3) refers to printf3.o(i._printf_core) for _printf_core
    printf3.o(i.__0vsprintf$3) refers to printf3.o(i._sputc) for _sputc
    printf3.o(i._printf_core) refers to uidiv.o(.text) for __aeabi_uidivmod
    printf4.o(i.__0fprintf$4) refers to printf4.o(i._printf_core) for _printf_core
    printf4.o(i.__0fprintf$4) refers to ampm_filestream.o(.text) for fputc
    printf4.o(i.__0printf$4) refers to printf4.o(i._printf_core) for _printf_core
    printf4.o(i.__0printf$4) refers to ampm_filestream.o(.text) for fputc
    printf4.o(i.__0printf$4) refers to stdout.o(.data) for __stdout
    printf4.o(i.__0snprintf$4) refers to printf4.o(i._printf_core) for _printf_core
    printf4.o(i.__0snprintf$4) refers to printf4.o(i._snputc) for _snputc
    printf4.o(i.__0sprintf$4) refers to printf4.o(i._printf_core) for _printf_core
    printf4.o(i.__0sprintf$4) refers to printf4.o(i._sputc) for _sputc
    printf4.o(i.__0vfprintf$4) refers to printf4.o(i._printf_core) for _printf_core
    printf4.o(i.__0vfprintf$4) refers to ampm_filestream.o(.text) for fputc
    printf4.o(i.__0vprintf$4) refers to printf4.o(i._printf_core) for _printf_core
    printf4.o(i.__0vprintf$4) refers to ampm_filestream.o(.text) for fputc
    printf4.o(i.__0vprintf$4) refers to stdout.o(.data) for __stdout
    printf4.o(i.__0vsnprintf$4) refers to printf4.o(i._printf_core) for _printf_core
    printf4.o(i.__0vsnprintf$4) refers to printf4.o(i._snputc) for _snputc
    printf4.o(i.__0vsprintf$4) refers to printf4.o(i._printf_core) for _printf_core
    printf4.o(i.__0vsprintf$4) refers to printf4.o(i._sputc) for _sputc
    printf4.o(i._printf_core) refers to uldiv.o(.text) for __aeabi_uldivmod
    printf5.o(i.__0fprintf$5) refers to printf5.o(i._printf_core) for _printf_core
    printf5.o(i.__0fprintf$5) refers to ampm_filestream.o(.text) for fputc
    printf5.o(i.__0printf$5) refers to printf5.o(i._printf_core) for _printf_core
    printf5.o(i.__0printf$5) refers to ampm_filestream.o(.text) for fputc
    printf5.o(i.__0printf$5) refers to stdout.o(.data) for __stdout
    printf5.o(i.__0snprintf$5) refers to printf5.o(i._printf_core) for _printf_core
    printf5.o(i.__0snprintf$5) refers to printf5.o(i._snputc) for _snputc
    printf5.o(i.__0sprintf$5) refers to printf5.o(i._printf_core) for _printf_core
    printf5.o(i.__0sprintf$5) refers to printf5.o(i._sputc) for _sputc
    printf5.o(i.__0vfprintf$5) refers to printf5.o(i._printf_core) for _printf_core
    printf5.o(i.__0vfprintf$5) refers to ampm_filestream.o(.text) for fputc
    printf5.o(i.__0vprintf$5) refers to printf5.o(i._printf_core) for _printf_core
    printf5.o(i.__0vprintf$5) refers to ampm_filestream.o(.text) for fputc
    printf5.o(i.__0vprintf$5) refers to stdout.o(.data) for __stdout
    printf5.o(i.__0vsnprintf$5) refers to printf5.o(i._printf_core) for _printf_core
    printf5.o(i.__0vsnprintf$5) refers to printf5.o(i._snputc) for _snputc
    printf5.o(i.__0vsprintf$5) refers to printf5.o(i._printf_core) for _printf_core
    printf5.o(i.__0vsprintf$5) refers to printf5.o(i._sputc) for _sputc
    printf5.o(i._printf_core) refers to uldiv.o(.text) for __aeabi_uldivmod
    printf6.o(i.__0fprintf$6) refers to printf6.o(i._printf_core) for _printf_core
    printf6.o(i.__0fprintf$6) refers to ampm_filestream.o(.text) for fputc
    printf6.o(i.__0printf$6) refers to printf6.o(i._printf_core) for _printf_core
    printf6.o(i.__0printf$6) refers to ampm_filestream.o(.text) for fputc
    printf6.o(i.__0printf$6) refers to stdout.o(.data) for __stdout
    printf6.o(i.__0snprintf$6) refers to printf6.o(i._printf_core) for _printf_core
    printf6.o(i.__0snprintf$6) refers to printf6.o(i._snputc) for _snputc
    printf6.o(i.__0sprintf$6) refers to printf6.o(i._printf_core) for _printf_core
    printf6.o(i.__0sprintf$6) refers to printf6.o(i._sputc) for _sputc
    printf6.o(i.__0vfprintf$6) refers to printf6.o(i._printf_core) for _printf_core
    printf6.o(i.__0vfprintf$6) refers to ampm_filestream.o(.text) for fputc
    printf6.o(i.__0vprintf$6) refers to printf6.o(i._printf_core) for _printf_core
    printf6.o(i.__0vprintf$6) refers to ampm_filestream.o(.text) for fputc
    printf6.o(i.__0vprintf$6) refers to stdout.o(.data) for __stdout
    printf6.o(i.__0vsnprintf$6) refers to printf6.o(i._printf_core) for _printf_core
    printf6.o(i.__0vsnprintf$6) refers to printf6.o(i._snputc) for _snputc
    printf6.o(i.__0vsprintf$6) refers to printf6.o(i._printf_core) for _printf_core
    printf6.o(i.__0vsprintf$6) refers to printf6.o(i._sputc) for _sputc
    printf6.o(i._printf_core) refers to printf6.o(i._printf_pre_padding) for _printf_pre_padding
    printf6.o(i._printf_core) refers to uidiv.o(.text) for __aeabi_uidivmod
    printf6.o(i._printf_core) refers to printf6.o(i._printf_post_padding) for _printf_post_padding
    printf7.o(i.__0fprintf$7) refers to printf7.o(i._printf_core) for _printf_core
    printf7.o(i.__0fprintf$7) refers to ampm_filestream.o(.text) for fputc
    printf7.o(i.__0printf$7) refers to printf7.o(i._printf_core) for _printf_core
    printf7.o(i.__0printf$7) refers to ampm_filestream.o(.text) for fputc
    printf7.o(i.__0printf$7) refers to stdout.o(.data) for __stdout
    printf7.o(i.__0snprintf$7) refers to printf7.o(i._printf_core) for _printf_core
    printf7.o(i.__0snprintf$7) refers to printf7.o(i._snputc) for _snputc
    printf7.o(i.__0sprintf$7) refers to printf7.o(i._printf_core) for _printf_core
    printf7.o(i.__0sprintf$7) refers to printf7.o(i._sputc) for _sputc
    printf7.o(i.__0vfprintf$7) refers to printf7.o(i._printf_core) for _printf_core
    printf7.o(i.__0vfprintf$7) refers to ampm_filestream.o(.text) for fputc
    printf7.o(i.__0vprintf$7) refers to printf7.o(i._printf_core) for _printf_core
    printf7.o(i.__0vprintf$7) refers to ampm_filestream.o(.text) for fputc
    printf7.o(i.__0vprintf$7) refers to stdout.o(.data) for __stdout
    printf7.o(i.__0vsnprintf$7) refers to printf7.o(i._printf_core) for _printf_core
    printf7.o(i.__0vsnprintf$7) refers to printf7.o(i._snputc) for _snputc
    printf7.o(i.__0vsprintf$7) refers to printf7.o(i._printf_core) for _printf_core
    printf7.o(i.__0vsprintf$7) refers to printf7.o(i._sputc) for _sputc
    printf7.o(i._printf_core) refers to printf7.o(i._printf_pre_padding) for _printf_pre_padding
    printf7.o(i._printf_core) refers to uldiv.o(.text) for __aeabi_uldivmod
    printf7.o(i._printf_core) refers to printf7.o(i._printf_post_padding) for _printf_post_padding
    printf8.o(i.__0fprintf$8) refers to printf8.o(i._printf_core) for _printf_core
    printf8.o(i.__0fprintf$8) refers to ampm_filestream.o(.text) for fputc
    printf8.o(i.__0printf$8) refers to printf8.o(i._printf_core) for _printf_core
    printf8.o(i.__0printf$8) refers to ampm_filestream.o(.text) for fputc
    printf8.o(i.__0printf$8) refers to stdout.o(.data) for __stdout
    printf8.o(i.__0snprintf$8) refers to printf8.o(i._printf_core) for _printf_core
    printf8.o(i.__0snprintf$8) refers to printf8.o(i._snputc) for _snputc
    printf8.o(i.__0sprintf$8) refers to printf8.o(i._printf_core) for _printf_core
    printf8.o(i.__0sprintf$8) refers to printf8.o(i._sputc) for _sputc
    printf8.o(i.__0vfprintf$8) refers to printf8.o(i._printf_core) for _printf_core
    printf8.o(i.__0vfprintf$8) refers to ampm_filestream.o(.text) for fputc
    printf8.o(i.__0vprintf$8) refers to printf8.o(i._printf_core) for _printf_core
    printf8.o(i.__0vprintf$8) refers to ampm_filestream.o(.text) for fputc
    printf8.o(i.__0vprintf$8) refers to stdout.o(.data) for __stdout
    printf8.o(i.__0vsnprintf$8) refers to printf8.o(i._printf_core) for _printf_core
    printf8.o(i.__0vsnprintf$8) refers to printf8.o(i._snputc) for _snputc
    printf8.o(i.__0vsprintf$8) refers to printf8.o(i._printf_core) for _printf_core
    printf8.o(i.__0vsprintf$8) refers to printf8.o(i._sputc) for _sputc
    printf8.o(i._printf_core) refers to printf8.o(i._printf_pre_padding) for _printf_pre_padding
    printf8.o(i._printf_core) refers to uldiv.o(.text) for __aeabi_uldivmod
    printf8.o(i._printf_core) refers to printf8.o(i._printf_post_padding) for _printf_post_padding
    printfa.o(i.__0fprintf) refers (Special) to iusefp.o(.text) for __I$use$fp
    printfa.o(i.__0fprintf) refers to printfa.o(i._printf_core) for _printf_core
    printfa.o(i.__0fprintf) refers to ampm_filestream.o(.text) for fputc
    printfa.o(i.__0printf) refers (Special) to iusefp.o(.text) for __I$use$fp
    printfa.o(i.__0printf) refers to printfa.o(i._printf_core) for _printf_core
    printfa.o(i.__0printf) refers to ampm_filestream.o(.text) for fputc
    printfa.o(i.__0printf) refers to stdout.o(.data) for __stdout
    printfa.o(i.__0snprintf) refers (Special) to iusefp.o(.text) for __I$use$fp
    printfa.o(i.__0snprintf) refers to printfa.o(i._printf_core) for _printf_core
    printfa.o(i.__0snprintf) refers to printfa.o(i._snputc) for _snputc
    printfa.o(i.__0sprintf) refers (Special) to iusefp.o(.text) for __I$use$fp
    printfa.o(i.__0sprintf) refers to printfa.o(i._printf_core) for _printf_core
    printfa.o(i.__0sprintf) refers to printfa.o(i._sputc) for _sputc
    printfa.o(i.__0vfprintf) refers (Special) to iusefp.o(.text) for __I$use$fp
    printfa.o(i.__0vfprintf) refers to printfa.o(i._printf_core) for _printf_core
    printfa.o(i.__0vfprintf) refers to ampm_filestream.o(.text) for fputc
    printfa.o(i.__0vprintf) refers (Special) to iusefp.o(.text) for __I$use$fp
    printfa.o(i.__0vprintf) refers to printfa.o(i._printf_core) for _printf_core
    printfa.o(i.__0vprintf) refers to ampm_filestream.o(.text) for fputc
    printfa.o(i.__0vprintf) refers to stdout.o(.data) for __stdout
    printfa.o(i.__0vsnprintf) refers (Special) to iusefp.o(.text) for __I$use$fp
    printfa.o(i.__0vsnprintf) refers to printfa.o(i._printf_core) for _printf_core
    printfa.o(i.__0vsnprintf) refers to printfa.o(i._snputc) for _snputc
    printfa.o(i.__0vsprintf) refers (Special) to iusefp.o(.text) for __I$use$fp
    printfa.o(i.__0vsprintf) refers to printfa.o(i._printf_core) for _printf_core
    printfa.o(i.__0vsprintf) refers to printfa.o(i._sputc) for _sputc
    printfa.o(i._fp_digits) refers (Special) to iusefp.o(.text) for __I$use$fp
    printfa.o(i._fp_digits) refers to dmul.o(.text) for __aeabi_dmul
    printfa.o(i._fp_digits) refers to ddiv.o(.text) for __aeabi_ddiv
    printfa.o(i._fp_digits) refers to cdrcmple.o(.text) for __aeabi_cdrcmple
    printfa.o(i._fp_digits) refers to dadd.o(.text) for __aeabi_dadd
    printfa.o(i._fp_digits) refers to dfixul.o(.text) for __aeabi_d2ulz
    printfa.o(i._fp_digits) refers to uldiv.o(.text) for __aeabi_uldivmod
    printfa.o(i._printf_core) refers (Special) to iusefp.o(.text) for __I$use$fp
    printfa.o(i._printf_core) refers to printfa.o(i._printf_pre_padding) for _printf_pre_padding
    printfa.o(i._printf_core) refers to uldiv.o(.text) for __aeabi_uldivmod
    printfa.o(i._printf_core) refers to printfa.o(i._printf_post_padding) for _printf_post_padding
    printfa.o(i._printf_core) refers to printfa.o(i._fp_digits) for _fp_digits
    printfa.o(i._printf_core) refers to uidiv.o(.text) for __aeabi_uidivmod
    printfa.o(i._printf_post_padding) refers (Special) to iusefp.o(.text) for __I$use$fp
    printfa.o(i._printf_pre_padding) refers (Special) to iusefp.o(.text) for __I$use$fp
    printfa.o(i._snputc) refers (Special) to iusefp.o(.text) for __I$use$fp
    printfa.o(i._sputc) refers (Special) to iusefp.o(.text) for __I$use$fp
    malloc.o(i.free) refers to mvars.o(.data) for __microlib_freelist
    malloc.o(i.malloc) refers to mvars.o(.data) for __microlib_freelist_initialised
    malloc.o(i.malloc) refers to mvars.o(.data) for __microlib_freelist
    malloc.o(i.malloc) refers to startup_stm32f407xx.o(HEAP) for __heap_base
    mallocr.o(i.__free$realloc) refers to mvars.o(.data) for __microlib_freelist
    mallocr.o(i.__malloc$realloc) refers to mallocr.o(i.internal_alloc) for internal_alloc
    mallocr.o(i.__malloc$realloc) refers to mvars.o(.data) for __microlib_freelist_initialised
    mallocr.o(i.__malloc$realloc) refers to startup_stm32f407xx.o(HEAP) for __heap_base
    mallocr.o(i.__malloc$realloc) refers to mvars.o(.data) for __microlib_freelist
    mallocr.o(i.internal_alloc) refers to memmovea.o(.text) for __aeabi_memcpy
    mallocr.o(i.internal_alloc) refers to mvars.o(.data) for __microlib_freelist
    mallocr.o(i.realloc) refers to mallocr.o(i.__free$realloc) for __free$realloc
    mallocr.o(i.realloc) refers to mallocr.o(i.internal_alloc) for internal_alloc
    mallocr.o(i.realloc) refers to mallocr.o(i.__malloc$realloc) for __malloc$realloc
    mallocr.o(i.realloc) refers to mvars.o(.data) for __microlib_freelist
    malloca.o(i.__aligned_malloc) refers to mvars.o(.data) for __microlib_freelist_initialised
    malloca.o(i.__aligned_malloc) refers to mvars.o(.data) for __microlib_freelist
    malloca.o(i.__aligned_malloc) refers to startup_stm32f407xx.o(HEAP) for __heap_base
    malloca.o(i.__free$memalign) refers to mvars.o(.data) for __microlib_freelist
    malloca.o(i.__malloc$memalign) refers to malloca.o(i.__aligned_malloc) for __aligned_malloc
    mallocra.o(i.__aligned_malloc$realloc) refers to mallocra.o(i.internal_alloc) for internal_alloc
    mallocra.o(i.__aligned_malloc$realloc) refers to mvars.o(.data) for __microlib_freelist_initialised
    mallocra.o(i.__aligned_malloc$realloc) refers to startup_stm32f407xx.o(HEAP) for __heap_base
    mallocra.o(i.__aligned_malloc$realloc) refers to mvars.o(.data) for __microlib_freelist
    mallocra.o(i.__free$realloc$memalign) refers to mvars.o(.data) for __microlib_freelist
    mallocra.o(i.__malloc$realloc$memalign) refers to mallocra.o(i.__aligned_malloc$realloc) for __aligned_malloc$realloc
    mallocra.o(i.__realloc$memalign) refers to mallocra.o(i.__free$realloc$memalign) for __free$realloc$memalign
    mallocra.o(i.__realloc$memalign) refers to mallocra.o(i.internal_alloc) for internal_alloc
    mallocra.o(i.__realloc$memalign) refers to mallocra.o(i.__malloc$realloc$memalign) for __malloc$realloc$memalign
    mallocra.o(i.__realloc$memalign) refers to mvars.o(.data) for __microlib_freelist
    mallocra.o(i.internal_alloc) refers to memmovea.o(.text) for __aeabi_memcpy
    mallocra.o(i.internal_alloc) refers to mvars.o(.data) for __microlib_freelist
    calloc.o(.text) refers to malloc.o(i.malloc) for malloc
    __0sscanf.o(.text) refers to scanf_char.o(.text) for __vfscanf_char
    __0sscanf.o(.text) refers to _sgetc.o(.text) for _sgetc
    _scanf_int.o(.text) refers to _chval.o(.text) for _chval
    scanf_fp.o(.text) refers (Special) to iusefp.o(.text) for __I$use$fp
    scanf_fp.o(.text) refers to dfltul.o(.text) for __aeabi_ul2d
    scanf_fp.o(.text) refers to dmul.o(.text) for __aeabi_dmul
    scanf_fp.o(.text) refers to ddiv.o(.text) for __aeabi_ddiv
    scanf_fp.o(.text) refers to scanf_fp.o(i._is_digit) for _is_digit
    scanf_fp.o(.text) refers to d2f.o(.text) for __aeabi_d2f
    atoi.o(.text) refers to errno.o(i.__aeabi_errno_addr) for __aeabi_errno_addr
    atoi.o(.text) refers to strtol.o(.text) for strtol
    atoll.o(.text) refers to errno.o(i.__aeabi_errno_addr) for __aeabi_errno_addr
    atoll.o(.text) refers to __strtoll.o(.text) for __strtoll
    ddiv.o(.text) refers (Special) to iusefp.o(.text) for __I$use$fp
    ddiv.o(.text) refers to depilogue.o(.text) for _double_round
    f2d.o(.text) refers (Special) to iusefp.o(.text) for __I$use$fp
    d2f.o(.text) refers (Special) to iusefp.o(.text) for __I$use$fp
    d2f.o(.text) refers to fepilogue.o(.text) for _float_round
    entry2.o(.ARM.Collect$$$$00000001) refers to entry2.o(.ARM.Collect$$$$00002712) for __lit__00000000
    entry2.o(.ARM.Collect$$$$00002712) refers to startup_stm32f407xx.o(STACK) for __initial_sp
    entry2.o(__vectab_stack_and_reset_area) refers to startup_stm32f407xx.o(STACK) for __initial_sp
    entry2.o(__vectab_stack_and_reset_area) refers to entry.o(.ARM.Collect$$$$00000000) for __main
    entry5.o(.ARM.Collect$$$$00000004) refers to init.o(.text) for __scatterload
    entry9a.o(.ARM.Collect$$$$0000000B) refers to main.o(.text) for main
    entry9b.o(.ARM.Collect$$$$0000000C) refers to main.o(.text) for main
    errno.o(i.__aeabi_errno_addr) refers to errno.o(.data) for .data
    errno.o(i.__read_errno) refers to errno.o(.data) for .data
    errno.o(i.__set_errno) refers to errno.o(.data) for .data
    scanf_char.o(.text) refers to _scanf.o(.text) for __vfscanf
    scanf_char.o(.text) refers to isspace_o.o(.text) for isspace
    strtol.o(.text) refers to ctype_o.o(.text) for __rt_ctype_table
    strtol.o(.text) refers to _strtoul.o(.text) for _strtoul
    strtol.o(.text) refers to errno.o(i.__aeabi_errno_addr) for __aeabi_errno_addr
    __strtoll.o(.text) refers to ctype_o.o(.text) for __rt_ctype_table
    __strtoll.o(.text) refers to _strtoull.o(.text) for _strtoull
    __strtoll.o(.text) refers to errno.o(i.__aeabi_errno_addr) for __aeabi_errno_addr
    depilogue.o(.text) refers to llshl.o(.text) for __aeabi_llsl
    depilogue.o(.text) refers to llushr.o(.text) for __aeabi_llsr
    dadd.o(.text) refers to llshl.o(.text) for __aeabi_llsl
    dadd.o(.text) refers to llsshr.o(.text) for __aeabi_lasr
    dadd.o(.text) refers to depilogue.o(.text) for _double_epilogue
    dmul.o(.text) refers to depilogue.o(.text) for _double_epilogue
    dfltul.o(.text) refers to depilogue.o(.text) for _double_epilogue
    dfixul.o(.text) refers to llushr.o(.text) for __aeabi_llsr
    dfixul.o(.text) refers to llshl.o(.text) for __aeabi_llsl
    init.o(.text) refers to entry5.o(.ARM.Collect$$$$00000004) for __main_after_scatterload
    isspace_c.o(.text) refers to ctype_c.o(.text) for __ctype_lookup
    _scanf.o(.text) refers (Weak) to scanf_fp.o(.text) for _scanf_real
    _scanf.o(.text) refers (Weak) to _scanf_int.o(.text) for _scanf_int
    _scanf.o(.text) refers (Weak) to _scanf_str.o(.text) for _scanf_string
    _strtoul.o(.text) refers to _chval.o(.text) for _chval
    _strtoul.o(.text) refers to errno.o(i.__aeabi_errno_addr) for __aeabi_errno_addr
    _strtoull.o(.text) refers to _chval.o(.text) for _chval
    _strtoull.o(.text) refers to errno.o(i.__aeabi_errno_addr) for __aeabi_errno_addr
    ctype_c.o(.text) refers to ctype_c.o(.constdata) for .constdata
    scanf_fp.o(i._is_digit) refers (Special) to iusefp.o(.text) for __I$use$fp


==============================================================================

Removing Unused input sections from the image.

    Removing event_groups.o(.text), (1128 bytes).
    Removing cmsis_os.o(.rev16_text), (4 bytes).
    Removing cmsis_os.o(.revsh_text), (4 bytes).
    Removing crc16.o(.text), (44 bytes).
    Removing crc16.o(.constdata), (512 bytes).
    Removing dtmf.o(.text), (944 bytes).
    Removing dtmf.o(.bss), (256 bytes).
    Removing fcs.o(.text), (68 bytes).
    Removing fcs.o(.constdata), (512 bytes).
    Removing packet_queue.o(.text), (364 bytes).
    Removing stm32f4xx_hal_flash_ex.o(.rev16_text), (4 bytes).
    Removing stm32f4xx_hal_flash_ex.o(.revsh_text), (4 bytes).
    Removing stm32f4xx_hal_flash_ex.o(.rrx_text), (6 bytes).
    Removing stm32f4xx_hal_rng.o(.rev16_text), (4 bytes).
    Removing stm32f4xx_hal_rng.o(.revsh_text), (4 bytes).
    Removing stm32f4xx_hal_rng.o(.rrx_text), (6 bytes).
    Removing stm32f4xx_hal_dma.o(.rev16_text), (4 bytes).
    Removing stm32f4xx_hal_dma.o(.revsh_text), (4 bytes).
    Removing stm32f4xx_hal_dma.o(.rrx_text), (6 bytes).
    Removing stm32f4xx_hal_rcc_ex.o(.rev16_text), (4 bytes).
    Removing stm32f4xx_hal_rcc_ex.o(.revsh_text), (4 bytes).
    Removing stm32f4xx_hal_rcc_ex.o(.rrx_text), (6 bytes).
    Removing stm32f4xx_hal_rtc_ex.o(.rev16_text), (4 bytes).
    Removing stm32f4xx_hal_rtc_ex.o(.revsh_text), (4 bytes).
    Removing stm32f4xx_hal_rtc_ex.o(.rrx_text), (6 bytes).
    Removing stm32f4xx_hal_pwr_ex.o(.rev16_text), (4 bytes).
    Removing stm32f4xx_hal_pwr_ex.o(.revsh_text), (4 bytes).
    Removing stm32f4xx_hal_pwr_ex.o(.rrx_text), (6 bytes).
    Removing stm32f4xx_hal_pwr_ex.o(.text), (256 bytes).
    Removing stm32f4xx_hal_pwr.o(.rev16_text), (4 bytes).
    Removing stm32f4xx_hal_pwr.o(.revsh_text), (4 bytes).
    Removing stm32f4xx_hal_pwr.o(.rrx_text), (6 bytes).
    Removing stm32f4xx_hal_pwr.o(.text), (476 bytes).
    Removing stm32f4xx_hal_adc_ex.o(.rev16_text), (4 bytes).
    Removing stm32f4xx_hal_adc_ex.o(.revsh_text), (4 bytes).
    Removing stm32f4xx_hal_adc_ex.o(.rrx_text), (6 bytes).
    Removing stm32f4xx_hal_tim.o(.rev16_text), (4 bytes).
    Removing stm32f4xx_hal_tim.o(.revsh_text), (4 bytes).
    Removing stm32f4xx_hal_tim.o(.rrx_text), (6 bytes).
    Removing stm32f4xx_hal_uart.o(.rev16_text), (4 bytes).
    Removing stm32f4xx_hal_uart.o(.revsh_text), (4 bytes).
    Removing stm32f4xx_hal_uart.o(.rrx_text), (6 bytes).
    Removing stm32f4xx_hal_gpio.o(.rev16_text), (4 bytes).
    Removing stm32f4xx_hal_gpio.o(.revsh_text), (4 bytes).
    Removing stm32f4xx_hal_gpio.o(.rrx_text), (6 bytes).
    Removing stm32f4xx_hal_rtc.o(.rev16_text), (4 bytes).
    Removing stm32f4xx_hal_rtc.o(.revsh_text), (4 bytes).
    Removing stm32f4xx_hal_rtc.o(.rrx_text), (6 bytes).
    Removing stm32f4xx_hal_dma_ex.o(.rev16_text), (4 bytes).
    Removing stm32f4xx_hal_dma_ex.o(.revsh_text), (4 bytes).
    Removing stm32f4xx_hal_dma_ex.o(.rrx_text), (6 bytes).
    Removing stm32f4xx_hal_dma_ex.o(.text), (4232 bytes).
    Removing stm32f4xx_hal_iwdg.o(.rev16_text), (4 bytes).
    Removing stm32f4xx_hal_iwdg.o(.revsh_text), (4 bytes).
    Removing stm32f4xx_hal_iwdg.o(.rrx_text), (6 bytes).
    Removing stm32f4xx_hal_cortex.o(.rev16_text), (4 bytes).
    Removing stm32f4xx_hal_cortex.o(.revsh_text), (4 bytes).
    Removing stm32f4xx_hal_cortex.o(.rrx_text), (6 bytes).
    Removing stm32f4xx_hal_tim_ex.o(.rev16_text), (4 bytes).
    Removing stm32f4xx_hal_tim_ex.o(.revsh_text), (4 bytes).
    Removing stm32f4xx_hal_tim_ex.o(.rrx_text), (6 bytes).
    Removing stm32f4xx_hal.o(.rev16_text), (4 bytes).
    Removing stm32f4xx_hal.o(.revsh_text), (4 bytes).
    Removing stm32f4xx_hal.o(.rrx_text), (6 bytes).
    Removing stm32f4xx_hal_flash_ramfunc.o(.rev16_text), (4 bytes).
    Removing stm32f4xx_hal_flash_ramfunc.o(.revsh_text), (4 bytes).
    Removing stm32f4xx_hal_flash_ramfunc.o(.rrx_text), (6 bytes).
    Removing stm32f4xx_hal_flash.o(.rev16_text), (4 bytes).
    Removing stm32f4xx_hal_flash.o(.revsh_text), (4 bytes).
    Removing stm32f4xx_hal_flash.o(.rrx_text), (6 bytes).
    Removing stm32f4xx_hal_adc.o(.rev16_text), (4 bytes).
    Removing stm32f4xx_hal_adc.o(.revsh_text), (4 bytes).
    Removing stm32f4xx_hal_adc.o(.rrx_text), (6 bytes).
    Removing stm32f4xx_hal_rcc.o(.rev16_text), (4 bytes).
    Removing stm32f4xx_hal_rcc.o(.revsh_text), (4 bytes).
    Removing stm32f4xx_hal_rcc.o(.rrx_text), (6 bytes).
    Removing stm32f4xx_hal_spi.o(.rev16_text), (4 bytes).
    Removing stm32f4xx_hal_spi.o(.revsh_text), (4 bytes).
    Removing stm32f4xx_hal_spi.o(.rrx_text), (6 bytes).
    Removing system_stm32f4xx.o(.rev16_text), (4 bytes).
    Removing system_stm32f4xx.o(.revsh_text), (4 bytes).
    Removing system_stm32f4xx.o(.rrx_text), (6 bytes).
    Removing stm32f4xx_hal_timebase_tim.o(.rev16_text), (4 bytes).
    Removing stm32f4xx_hal_timebase_tim.o(.revsh_text), (4 bytes).
    Removing stm32f4xx_hal_timebase_tim.o(.rrx_text), (6 bytes).
    Removing stm32f4xx_hal_timebase_tim.o(.data), (4 bytes).
    Removing stm32f4xx_it.o(.rev16_text), (4 bytes).
    Removing stm32f4xx_it.o(.revsh_text), (4 bytes).
    Removing stm32f4xx_it.o(.rrx_text), (6 bytes).
    Removing main.o(.rev16_text), (4 bytes).
    Removing main.o(.revsh_text), (4 bytes).
    Removing main.o(.rrx_text), (6 bytes).
    Removing stm32f4xx_hal_msp.o(.rev16_text), (4 bytes).
    Removing stm32f4xx_hal_msp.o(.revsh_text), (4 bytes).
    Removing stm32f4xx_hal_msp.o(.rrx_text), (6 bytes).
    Removing system_config.o(.rev16_text), (4 bytes).
    Removing system_config.o(.revsh_text), (4 bytes).
    Removing system_config.o(.rrx_text), (6 bytes).
    Removing hardware_rng.o(.rev16_text), (4 bytes).
    Removing hardware_rng.o(.revsh_text), (4 bytes).
    Removing hardware_rng.o(.rrx_text), (6 bytes).
    Removing shadow_thing.o(.rev16_text), (4 bytes).
    Removing shadow_thing.o(.revsh_text), (4 bytes).
    Removing shadow_thing.o(.rrx_text), (6 bytes).
    Removing ntp_server.o(.rev16_text), (4 bytes).
    Removing ntp_server.o(.revsh_text), (4 bytes).
    Removing ntp_server.o(.rrx_text), (6 bytes).
    Removing smartlight.o(.rev16_text), (4 bytes).
    Removing smartlight.o(.revsh_text), (4 bytes).
    Removing smartlight.o(.rrx_text), (6 bytes).
    Removing smartlight.o(.bss), (100 bytes).
    Removing ota_server.o(.rev16_text), (4 bytes).
    Removing ota_server.o(.revsh_text), (4 bytes).
    Removing ota_server.o(.rrx_text), (6 bytes).
    Removing ota_server.o(.text), (3120 bytes).
    Removing ota_server.o(.constdata), (20 bytes).
    Removing ota_server.o(.conststring), (293 bytes).
    Removing ota_server.o(.data), (64 bytes).
    Removing watchdog.o(.rev16_text), (4 bytes).
    Removing watchdog.o(.revsh_text), (4 bytes).
    Removing watchdog.o(.rrx_text), (6 bytes).
    Removing sms_task.o(.rev16_text), (4 bytes).
    Removing sms_task.o(.revsh_text), (4 bytes).
    Removing sms_task.o(.rrx_text), (6 bytes).
    Removing sms_task.o(.constdata), (25 bytes).
    Removing sst25.o(.rev16_text), (4 bytes).
    Removing sst25.o(.revsh_text), (4 bytes).
    Removing sst25.o(.rrx_text), (6 bytes).
    Removing led.o(.rev16_text), (4 bytes).
    Removing led.o(.revsh_text), (4 bytes).
    Removing led.o(.rrx_text), (6 bytes).
    Removing ota_backup_server.o(.rev16_text), (4 bytes).
    Removing ota_backup_server.o(.revsh_text), (4 bytes).
    Removing ota_backup_server.o(.rrx_text), (6 bytes).
    Removing power_sensor.o(.rev16_text), (4 bytes).
    Removing power_sensor.o(.revsh_text), (4 bytes).
    Removing power_sensor.o(.rrx_text), (6 bytes).
    Removing elster_tasks.o(.rev16_text), (4 bytes).
    Removing elster_tasks.o(.revsh_text), (4 bytes).
    Removing elster_tasks.o(.rrx_text), (6 bytes).
    Removing uart1.o(.rev16_text), (4 bytes).
    Removing uart1.o(.revsh_text), (4 bytes).
    Removing uart1.o(.rrx_text), (6 bytes).
    Removing uart5.o(.rev16_text), (4 bytes).
    Removing uart5.o(.revsh_text), (4 bytes).
    Removing uart5.o(.rrx_text), (6 bytes).
    Removing spi1.o(.rev16_text), (4 bytes).
    Removing spi1.o(.revsh_text), (4 bytes).
    Removing spi1.o(.rrx_text), (6 bytes).
    Removing uart4.o(.rev16_text), (4 bytes).
    Removing uart4.o(.revsh_text), (4 bytes).
    Removing uart4.o(.rrx_text), (6 bytes).
    Removing uart6.o(.rev16_text), (4 bytes).
    Removing uart6.o(.revsh_text), (4 bytes).
    Removing uart6.o(.rrx_text), (6 bytes).
    Removing app_config_task.o(.rev16_text), (4 bytes).
    Removing app_config_task.o(.revsh_text), (4 bytes).
    Removing app_config_task.o(.rrx_text), (6 bytes).
    Removing uart_config_task.o(.rev16_text), (4 bytes).
    Removing uart_config_task.o(.revsh_text), (4 bytes).
    Removing uart_config_task.o(.rrx_text), (6 bytes).
    Removing alarm.o(.rev16_text), (4 bytes).
    Removing alarm.o(.revsh_text), (4 bytes).
    Removing alarm.o(.rrx_text), (6 bytes).
    Removing ac_line_out_alert.o(.text), (4 bytes).
    Removing relay.o(.rev16_text), (4 bytes).
    Removing relay.o(.revsh_text), (4 bytes).
    Removing relay.o(.rrx_text), (6 bytes).
    Removing ampm_gsm_main_task.o(.rev16_text), (4 bytes).
    Removing ampm_gsm_main_task.o(.revsh_text), (4 bytes).
    Removing ampm_gsm_main_task.o(.rrx_text), (6 bytes).
    Removing ampm_gsm_ring.o(.rev16_text), (4 bytes).
    Removing ampm_gsm_ring.o(.revsh_text), (4 bytes).
    Removing ampm_gsm_ring.o(.rrx_text), (6 bytes).
    Removing ampm_gsm_sms.o(.rev16_text), (4 bytes).
    Removing ampm_gsm_sms.o(.revsh_text), (4 bytes).
    Removing ampm_gsm_sms.o(.rrx_text), (6 bytes).
    Removing ampm_gsm_startup.o(.constdata), (8 bytes).
    Removing comm.o(.rev16_text), (4 bytes).
    Removing comm.o(.revsh_text), (4 bytes).
    Removing comm.o(.rrx_text), (6 bytes).
    Removing aws_iot_mqtt_client.o(.rev16_text), (4 bytes).
    Removing aws_iot_mqtt_client.o(.revsh_text), (4 bytes).
    Removing aws_iot_mqtt_client.o(.rrx_text), (6 bytes).
    Removing aws_iot_mqtt_client_common_internal.o(.rev16_text), (4 bytes).
    Removing aws_iot_mqtt_client_common_internal.o(.revsh_text), (4 bytes).
    Removing aws_iot_mqtt_client_common_internal.o(.rrx_text), (6 bytes).
    Removing aws_iot_mqtt_client_connect.o(.rev16_text), (4 bytes).
    Removing aws_iot_mqtt_client_connect.o(.revsh_text), (4 bytes).
    Removing aws_iot_mqtt_client_connect.o(.rrx_text), (6 bytes).
    Removing aws_iot_mqtt_client_publish.o(.rev16_text), (4 bytes).
    Removing aws_iot_mqtt_client_publish.o(.revsh_text), (4 bytes).
    Removing aws_iot_mqtt_client_publish.o(.rrx_text), (6 bytes).
    Removing aws_iot_mqtt_client_subscribe.o(.rev16_text), (4 bytes).
    Removing aws_iot_mqtt_client_subscribe.o(.revsh_text), (4 bytes).
    Removing aws_iot_mqtt_client_subscribe.o(.rrx_text), (6 bytes).
    Removing aws_iot_mqtt_client_unsubscribe.o(.rev16_text), (4 bytes).
    Removing aws_iot_mqtt_client_unsubscribe.o(.revsh_text), (4 bytes).
    Removing aws_iot_mqtt_client_unsubscribe.o(.rrx_text), (6 bytes).
    Removing aws_iot_mqtt_client_yield.o(.rev16_text), (4 bytes).
    Removing aws_iot_mqtt_client_yield.o(.revsh_text), (4 bytes).
    Removing aws_iot_mqtt_client_yield.o(.rrx_text), (6 bytes).
    Removing aws_iot_shadow.o(.rev16_text), (4 bytes).
    Removing aws_iot_shadow.o(.revsh_text), (4 bytes).
    Removing aws_iot_shadow.o(.rrx_text), (6 bytes).
    Removing aws_iot_shadow_actions.o(.rev16_text), (4 bytes).
    Removing aws_iot_shadow_actions.o(.revsh_text), (4 bytes).
    Removing aws_iot_shadow_actions.o(.rrx_text), (6 bytes).
    Removing aws_iot_shadow_json.o(.rev16_text), (4 bytes).
    Removing aws_iot_shadow_json.o(.revsh_text), (4 bytes).
    Removing aws_iot_shadow_json.o(.rrx_text), (6 bytes).
    Removing aws_iot_shadow_records.o(.rev16_text), (4 bytes).
    Removing aws_iot_shadow_records.o(.revsh_text), (4 bytes).
    Removing aws_iot_shadow_records.o(.rrx_text), (6 bytes).
    Removing aws_timer.o(.rev16_text), (4 bytes).
    Removing aws_timer.o(.revsh_text), (4 bytes).
    Removing aws_timer.o(.rrx_text), (6 bytes).
    Removing net_socket.o(.rev16_text), (4 bytes).
    Removing net_socket.o(.revsh_text), (4 bytes).
    Removing net_socket.o(.rrx_text), (6 bytes).
    Removing network_mbedtls_wrapper.o(.rev16_text), (4 bytes).
    Removing network_mbedtls_wrapper.o(.revsh_text), (4 bytes).
    Removing network_mbedtls_wrapper.o(.rrx_text), (6 bytes).
    Removing error.o(.rev16_text), (4 bytes).
    Removing error.o(.revsh_text), (4 bytes).
    Removing error.o(.rrx_text), (6 bytes).
    Removing error.o(.text), (8624 bytes).
    Removing error.o(.conststring), (2455 bytes).
    Removing pkwrite.o(.text), (1356 bytes).
    Removing ssl_cache.o(.text), (584 bytes).
    Removing ssl_cookie.o(.text), (564 bytes).
    Removing ssl_ticket.o(.text), (1248 bytes).
    Removing version.o(.text), (60 bytes).
    Removing version_features.o(.text), (56 bytes).
    Removing version_features.o(.conststring), (2029 bytes).
    Removing version_features.o(.data), (328 bytes).
    Removing x509_crl.o(.text), (2436 bytes).
    Removing lwip_net_socket.o(.rev16_text), (4 bytes).
    Removing lwip_net_socket.o(.revsh_text), (4 bytes).
    Removing lwip_net_socket.o(.rrx_text), (6 bytes).
    Removing lwip_dns.o(.constdata), (4 bytes).
    Removing lwip_sio.o(.text), (76 bytes).
    Removing lwip_sio.o(.data), (1 bytes).
    Removing lwip_slipif.o(.text), (820 bytes).
    Removing lwip_slipif.o(.conststring), (65 bytes).
    Removing lwip_pppapi.o(.text), (316 bytes).

246 unused section(s) (total 34426 bytes) removed from the image.

==============================================================================

Image Symbol Table

    Local Symbols

    Symbol Name                              Value     Ov Type        Size  Object(Section)

    ../Drivers/STM32F4xx_HAL_Driver/Src/stm32f4xx_hal.c 0x00000000   Number         0  stm32f4xx_hal.o ABSOLUTE
    ../Drivers/STM32F4xx_HAL_Driver/Src/stm32f4xx_hal_adc.c 0x00000000   Number         0  stm32f4xx_hal_adc.o ABSOLUTE
    ../Drivers/STM32F4xx_HAL_Driver/Src/stm32f4xx_hal_adc_ex.c 0x00000000   Number         0  stm32f4xx_hal_adc_ex.o ABSOLUTE
    ../Drivers/STM32F4xx_HAL_Driver/Src/stm32f4xx_hal_cortex.c 0x00000000   Number         0  stm32f4xx_hal_cortex.o ABSOLUTE
    ../Drivers/STM32F4xx_HAL_Driver/Src/stm32f4xx_hal_dma.c 0x00000000   Number         0  stm32f4xx_hal_dma.o ABSOLUTE
    ../Drivers/STM32F4xx_HAL_Driver/Src/stm32f4xx_hal_dma_ex.c 0x00000000   Number         0  stm32f4xx_hal_dma_ex.o ABSOLUTE
    ../Drivers/STM32F4xx_HAL_Driver/Src/stm32f4xx_hal_flash.c 0x00000000   Number         0  stm32f4xx_hal_flash.o ABSOLUTE
    ../Drivers/STM32F4xx_HAL_Driver/Src/stm32f4xx_hal_flash_ex.c 0x00000000   Number         0  stm32f4xx_hal_flash_ex.o ABSOLUTE
    ../Drivers/STM32F4xx_HAL_Driver/Src/stm32f4xx_hal_flash_ramfunc.c 0x00000000   Number         0  stm32f4xx_hal_flash_ramfunc.o ABSOLUTE
    ../Drivers/STM32F4xx_HAL_Driver/Src/stm32f4xx_hal_gpio.c 0x00000000   Number         0  stm32f4xx_hal_gpio.o ABSOLUTE
    ../Drivers/STM32F4xx_HAL_Driver/Src/stm32f4xx_hal_iwdg.c 0x00000000   Number         0  stm32f4xx_hal_iwdg.o ABSOLUTE
    ../Drivers/STM32F4xx_HAL_Driver/Src/stm32f4xx_hal_pwr.c 0x00000000   Number         0  stm32f4xx_hal_pwr.o ABSOLUTE
    ../Drivers/STM32F4xx_HAL_Driver/Src/stm32f4xx_hal_pwr_ex.c 0x00000000   Number         0  stm32f4xx_hal_pwr_ex.o ABSOLUTE
    ../Drivers/STM32F4xx_HAL_Driver/Src/stm32f4xx_hal_rcc.c 0x00000000   Number         0  stm32f4xx_hal_rcc.o ABSOLUTE
    ../Drivers/STM32F4xx_HAL_Driver/Src/stm32f4xx_hal_rcc_ex.c 0x00000000   Number         0  stm32f4xx_hal_rcc_ex.o ABSOLUTE
    ../Drivers/STM32F4xx_HAL_Driver/Src/stm32f4xx_hal_rng.c 0x00000000   Number         0  stm32f4xx_hal_rng.o ABSOLUTE
    ../Drivers/STM32F4xx_HAL_Driver/Src/stm32f4xx_hal_rtc.c 0x00000000   Number         0  stm32f4xx_hal_rtc.o ABSOLUTE
    ../Drivers/STM32F4xx_HAL_Driver/Src/stm32f4xx_hal_rtc_ex.c 0x00000000   Number         0  stm32f4xx_hal_rtc_ex.o ABSOLUTE
    ../Drivers/STM32F4xx_HAL_Driver/Src/stm32f4xx_hal_spi.c 0x00000000   Number         0  stm32f4xx_hal_spi.o ABSOLUTE
    ../Drivers/STM32F4xx_HAL_Driver/Src/stm32f4xx_hal_tim.c 0x00000000   Number         0  stm32f4xx_hal_tim.o ABSOLUTE
    ../Drivers/STM32F4xx_HAL_Driver/Src/stm32f4xx_hal_tim_ex.c 0x00000000   Number         0  stm32f4xx_hal_tim_ex.o ABSOLUTE
    ../Drivers/STM32F4xx_HAL_Driver/Src/stm32f4xx_hal_uart.c 0x00000000   Number         0  stm32f4xx_hal_uart.o ABSOLUTE
    ../Middlewares/Third_Party/FreeRTOS/Source/CMSIS_RTOS/cmsis_os.c 0x00000000   Number         0  cmsis_os.o ABSOLUTE
    ../Middlewares/Third_Party/FreeRTOS/Source/croutine.c 0x00000000   Number         0  croutine.o ABSOLUTE
    ../Middlewares/Third_Party/FreeRTOS/Source/event_groups.c 0x00000000   Number         0  event_groups.o ABSOLUTE
    ../Middlewares/Third_Party/FreeRTOS/Source/list.c 0x00000000   Number         0  list.o ABSOLUTE
    ../Middlewares/Third_Party/FreeRTOS/Source/portable/MemMang/heap_4.c 0x00000000   Number         0  heap_4.o ABSOLUTE
    ../Middlewares/Third_Party/FreeRTOS/Source/portable/RVDS/ARM_CM4F/port.c 0x00000000   Number         0  port.o ABSOLUTE
    ../Middlewares/Third_Party/FreeRTOS/Source/queue.c 0x00000000   Number         0  queue.o ABSOLUTE
    ../Middlewares/Third_Party/FreeRTOS/Source/tasks.c 0x00000000   Number         0  tasks.o ABSOLUTE
    ../Middlewares/Third_Party/FreeRTOS/Source/timers.c 0x00000000   Number         0  timers.o ABSOLUTE
    ../Src/freertos.c                        0x00000000   Number         0  freertos.o ABSOLUTE
    ../Src/main.c                            0x00000000   Number         0  main.o ABSOLUTE
    ../Src/stm32f4xx_hal_msp.c               0x00000000   Number         0  stm32f4xx_hal_msp.o ABSOLUTE
    ../Src/stm32f4xx_hal_timebase_TIM.c      0x00000000   Number         0  stm32f4xx_hal_timebase_tim.o ABSOLUTE
    ../Src/stm32f4xx_it.c                    0x00000000   Number         0  stm32f4xx_it.o ABSOLUTE
    ../Src/system_stm32f4xx.c                0x00000000   Number         0  system_stm32f4xx.o ABSOLUTE
    ../clib/../cmprslib/zerorunl2.c          0x00000000   Number         0  __dczerorl2.o ABSOLUTE
    ../clib/microlib/ctype/ctype.c           0x00000000   Number         0  isblank_o.o ABSOLUTE
    ../clib/microlib/ctype/ctype.c           0x00000000   Number         0  isgraph_o.o ABSOLUTE
    ../clib/microlib/ctype/ctype.c           0x00000000   Number         0  isprint_o.o ABSOLUTE
    ../clib/microlib/ctype/ctype.c           0x00000000   Number         0  islower_o.o ABSOLUTE
    ../clib/microlib/ctype/ctype.c           0x00000000   Number         0  isspace_o.o ABSOLUTE
    ../clib/microlib/ctype/ctype.c           0x00000000   Number         0  isspace_c.o ABSOLUTE
    ../clib/microlib/ctype/ctype.c           0x00000000   Number         0  isupper_o.o ABSOLUTE
    ../clib/microlib/ctype/ctype.c           0x00000000   Number         0  isxdigit_o.o ABSOLUTE
    ../clib/microlib/ctype/ctype.c           0x00000000   Number         0  ctype_c.o ABSOLUTE
    ../clib/microlib/ctype/ctype.c           0x00000000   Number         0  isalnum_o.o ABSOLUTE
    ../clib/microlib/ctype/ctype.c           0x00000000   Number         0  isdigit_o.o ABSOLUTE
    ../clib/microlib/ctype/ctype.c           0x00000000   Number         0  isalpha_o.o ABSOLUTE
    ../clib/microlib/ctype/ctype.c           0x00000000   Number         0  iscntrl_o.o ABSOLUTE
    ../clib/microlib/ctype/ctype.c           0x00000000   Number         0  ctype_o.o ABSOLUTE
    ../clib/microlib/ctype/ctype.c           0x00000000   Number         0  ispunct_o.o ABSOLUTE
    ../clib/microlib/ctype/toupper.c         0x00000000   Number         0  toupper.o ABSOLUTE
    ../clib/microlib/division.c              0x00000000   Number         0  uldiv.o ABSOLUTE
    ../clib/microlib/division.c              0x00000000   Number         0  uidiv.o ABSOLUTE
    ../clib/microlib/errno.c                 0x00000000   Number         0  errno.o ABSOLUTE
    ../clib/microlib/init/entry.s            0x00000000   Number         0  entry10b.o ABSOLUTE
    ../clib/microlib/init/entry.s            0x00000000   Number         0  entry10a.o ABSOLUTE
    ../clib/microlib/init/entry.s            0x00000000   Number         0  entry11a.o ABSOLUTE
    ../clib/microlib/init/entry.s            0x00000000   Number         0  entry11b.o ABSOLUTE
    ../clib/microlib/init/entry.s            0x00000000   Number         0  entry9b.o ABSOLUTE
    ../clib/microlib/init/entry.s            0x00000000   Number         0  entry9a.o ABSOLUTE
    ../clib/microlib/init/entry.s            0x00000000   Number         0  entry8b.o ABSOLUTE
    ../clib/microlib/init/entry.s            0x00000000   Number         0  entry8a.o ABSOLUTE
    ../clib/microlib/init/entry.s            0x00000000   Number         0  entry7b.o ABSOLUTE
    ../clib/microlib/init/entry.s            0x00000000   Number         0  entry7a.o ABSOLUTE
    ../clib/microlib/init/entry.s            0x00000000   Number         0  entry5.o ABSOLUTE
    ../clib/microlib/init/entry.s            0x00000000   Number         0  entry2.o ABSOLUTE
    ../clib/microlib/init/entry.s            0x00000000   Number         0  entry.o ABSOLUTE
    ../clib/microlib/longlong.c              0x00000000   Number         0  llshl.o ABSOLUTE
    ../clib/microlib/longlong.c              0x00000000   Number         0  llsshr.o ABSOLUTE
    ../clib/microlib/longlong.c              0x00000000   Number         0  llushr.o ABSOLUTE
    ../clib/microlib/malloc/calloc.c         0x00000000   Number         0  calloc.o ABSOLUTE
    ../clib/microlib/malloc/malloc.c         0x00000000   Number         0  malloc.o ABSOLUTE
    ../clib/microlib/malloc/malloc.c         0x00000000   Number         0  mallocr.o ABSOLUTE
    ../clib/microlib/malloc/malloc.c         0x00000000   Number         0  malloca.o ABSOLUTE
    ../clib/microlib/malloc/malloc.c         0x00000000   Number         0  mallocra.o ABSOLUTE
    ../clib/microlib/malloc/mvars.c          0x00000000   Number         0  mvars.o ABSOLUTE
    ../clib/microlib/printf/printf.c         0x00000000   Number         0  printf2.o ABSOLUTE
    ../clib/microlib/printf/printf.c         0x00000000   Number         0  printf3.o ABSOLUTE
    ../clib/microlib/printf/printf.c         0x00000000   Number         0  printfa.o ABSOLUTE
    ../clib/microlib/printf/printf.c         0x00000000   Number         0  printf7.o ABSOLUTE
    ../clib/microlib/printf/printf.c         0x00000000   Number         0  printf6.o ABSOLUTE
    ../clib/microlib/printf/printf.c         0x00000000   Number         0  printf4.o ABSOLUTE
    ../clib/microlib/printf/printf.c         0x00000000   Number         0  printfb.o ABSOLUTE
    ../clib/microlib/printf/printf.c         0x00000000   Number         0  printf0.o ABSOLUTE
    ../clib/microlib/printf/printf.c         0x00000000   Number         0  printf1.o ABSOLUTE
    ../clib/microlib/printf/printf.c         0x00000000   Number         0  printf5.o ABSOLUTE
    ../clib/microlib/printf/printf.c         0x00000000   Number         0  printf8.o ABSOLUTE
    ../clib/microlib/printf/stubs.s          0x00000000   Number         0  stubs.o ABSOLUTE
    ../clib/microlib/stdio/fread.c           0x00000000   Number         0  fread.o ABSOLUTE
    ../clib/microlib/stdio/fwrite.c          0x00000000   Number         0  fwrite.o ABSOLUTE
    ../clib/microlib/stdio/fwrite.c          0x00000000   Number         0  fwrite_e.o ABSOLUTE
    ../clib/microlib/stdio/streams.c         0x00000000   Number         0  stderr.o ABSOLUTE
    ../clib/microlib/stdio/streams.c         0x00000000   Number         0  stdout.o ABSOLUTE
    ../clib/microlib/stdio/streams.c         0x00000000   Number         0  stdin.o ABSOLUTE
    ../clib/microlib/stdlib/rand.c           0x00000000   Number         0  rand.o ABSOLUTE
    ../clib/microlib/string/memcmp.c         0x00000000   Number         0  memcmp.o ABSOLUTE
    ../clib/microlib/string/memcpy.c         0x00000000   Number         0  memcpya.o ABSOLUTE
    ../clib/microlib/string/memcpy.c         0x00000000   Number         0  memmovea.o ABSOLUTE
    ../clib/microlib/string/memcpy.c         0x00000000   Number         0  memcpyb.o ABSOLUTE
    ../clib/microlib/string/memcpy.c         0x00000000   Number         0  memmoveb.o ABSOLUTE
    ../clib/microlib/string/memset.c         0x00000000   Number         0  memseta.o ABSOLUTE
    ../clib/microlib/string/strcat.c         0x00000000   Number         0  strcat.o ABSOLUTE
    ../clib/microlib/string/strcmp.c         0x00000000   Number         0  strcmp.o ABSOLUTE
    ../clib/microlib/string/strcpy.c         0x00000000   Number         0  strcpy.o ABSOLUTE
    ../clib/microlib/string/strlen.c         0x00000000   Number         0  strlen.o ABSOLUTE
    ../clib/microlib/string/strncmp.c        0x00000000   Number         0  strncmp.o ABSOLUTE
    ../clib/microlib/string/strncpy.c        0x00000000   Number         0  strncpy.o ABSOLUTE
    ../clib/microlib/string/strstr.c         0x00000000   Number         0  strstr.o ABSOLUTE
    ../clib/microlib/stubs.s                 0x00000000   Number         0  iusefp.o ABSOLUTE
    ../clib/scanf.c                          0x00000000   Number         0  _strtoull.o ABSOLUTE
    ../clib/scanf.c                          0x00000000   Number         0  __strtoll.o ABSOLUTE
    ../clib/scanf.c                          0x00000000   Number         0  strtol.o ABSOLUTE
    ../clib/scanf.c                          0x00000000   Number         0  _sgetc.o ABSOLUTE
    ../clib/scanf.c                          0x00000000   Number         0  scanf_char.o ABSOLUTE
    ../clib/scanf.c                          0x00000000   Number         0  _chval.o ABSOLUTE
    ../clib/scanf.c                          0x00000000   Number         0  _strtoul.o ABSOLUTE
    ../clib/scanf.c                          0x00000000   Number         0  scanf_fp.o ABSOLUTE
    ../clib/scanf.c                          0x00000000   Number         0  atoi.o ABSOLUTE
    ../clib/scanf.c                          0x00000000   Number         0  atoll.o ABSOLUTE
    ../clib/scanf.c                          0x00000000   Number         0  __0sscanf.o ABSOLUTE
    ../clib/scanf.c                          0x00000000   Number         0  _scanf.o ABSOLUTE
    ../clib/scanf.c                          0x00000000   Number         0  _scanf_int.o ABSOLUTE
    ../clib/scanf.c                          0x00000000   Number         0  _scanf_str.o ABSOLUTE
    ../fplib/microlib/d2f.c                  0x00000000   Number         0  d2f.o ABSOLUTE
    ../fplib/microlib/f2d.c                  0x00000000   Number         0  f2d.o ABSOLUTE
    ../fplib/microlib/fpadd.c                0x00000000   Number         0  dadd.o ABSOLUTE
    ../fplib/microlib/fpdiv.c                0x00000000   Number         0  ddiv.o ABSOLUTE
    ../fplib/microlib/fpepilogue.c           0x00000000   Number         0  fepilogue.o ABSOLUTE
    ../fplib/microlib/fpepilogue.c           0x00000000   Number         0  depilogue.o ABSOLUTE
    ../fplib/microlib/fpfix.c                0x00000000   Number         0  dfixul.o ABSOLUTE
    ../fplib/microlib/fpflt.c                0x00000000   Number         0  dfltul.o ABSOLUTE
    ../fplib/microlib/fpmul.c                0x00000000   Number         0  dmul.o ABSOLUTE
    ..\Drivers\STM32F4xx_HAL_Driver\Src\stm32f4xx_hal.c 0x00000000   Number         0  stm32f4xx_hal.o ABSOLUTE
    ..\Drivers\STM32F4xx_HAL_Driver\Src\stm32f4xx_hal_adc.c 0x00000000   Number         0  stm32f4xx_hal_adc.o ABSOLUTE
    ..\Drivers\STM32F4xx_HAL_Driver\Src\stm32f4xx_hal_adc_ex.c 0x00000000   Number         0  stm32f4xx_hal_adc_ex.o ABSOLUTE
    ..\Drivers\STM32F4xx_HAL_Driver\Src\stm32f4xx_hal_cortex.c 0x00000000   Number         0  stm32f4xx_hal_cortex.o ABSOLUTE
    ..\Drivers\STM32F4xx_HAL_Driver\Src\stm32f4xx_hal_dma.c 0x00000000   Number         0  stm32f4xx_hal_dma.o ABSOLUTE
    ..\Drivers\STM32F4xx_HAL_Driver\Src\stm32f4xx_hal_dma_ex.c 0x00000000   Number         0  stm32f4xx_hal_dma_ex.o ABSOLUTE
    ..\Drivers\STM32F4xx_HAL_Driver\Src\stm32f4xx_hal_flash.c 0x00000000   Number         0  stm32f4xx_hal_flash.o ABSOLUTE
    ..\Drivers\STM32F4xx_HAL_Driver\Src\stm32f4xx_hal_flash_ex.c 0x00000000   Number         0  stm32f4xx_hal_flash_ex.o ABSOLUTE
    ..\Drivers\STM32F4xx_HAL_Driver\Src\stm32f4xx_hal_flash_ramfunc.c 0x00000000   Number         0  stm32f4xx_hal_flash_ramfunc.o ABSOLUTE
    ..\Drivers\STM32F4xx_HAL_Driver\Src\stm32f4xx_hal_gpio.c 0x00000000   Number         0  stm32f4xx_hal_gpio.o ABSOLUTE
    ..\Drivers\STM32F4xx_HAL_Driver\Src\stm32f4xx_hal_iwdg.c 0x00000000   Number         0  stm32f4xx_hal_iwdg.o ABSOLUTE
    ..\Drivers\STM32F4xx_HAL_Driver\Src\stm32f4xx_hal_pwr.c 0x00000000   Number         0  stm32f4xx_hal_pwr.o ABSOLUTE
    ..\Drivers\STM32F4xx_HAL_Driver\Src\stm32f4xx_hal_pwr_ex.c 0x00000000   Number         0  stm32f4xx_hal_pwr_ex.o ABSOLUTE
    ..\Drivers\STM32F4xx_HAL_Driver\Src\stm32f4xx_hal_rcc.c 0x00000000   Number         0  stm32f4xx_hal_rcc.o ABSOLUTE
    ..\Drivers\STM32F4xx_HAL_Driver\Src\stm32f4xx_hal_rcc_ex.c 0x00000000   Number         0  stm32f4xx_hal_rcc_ex.o ABSOLUTE
    ..\Drivers\STM32F4xx_HAL_Driver\Src\stm32f4xx_hal_rng.c 0x00000000   Number         0  stm32f4xx_hal_rng.o ABSOLUTE
    ..\Drivers\STM32F4xx_HAL_Driver\Src\stm32f4xx_hal_rtc.c 0x00000000   Number         0  stm32f4xx_hal_rtc.o ABSOLUTE
    ..\Drivers\STM32F4xx_HAL_Driver\Src\stm32f4xx_hal_rtc_ex.c 0x00000000   Number         0  stm32f4xx_hal_rtc_ex.o ABSOLUTE
    ..\Drivers\STM32F4xx_HAL_Driver\Src\stm32f4xx_hal_spi.c 0x00000000   Number         0  stm32f4xx_hal_spi.o ABSOLUTE
    ..\Drivers\STM32F4xx_HAL_Driver\Src\stm32f4xx_hal_tim.c 0x00000000   Number         0  stm32f4xx_hal_tim.o ABSOLUTE
    ..\Drivers\STM32F4xx_HAL_Driver\Src\stm32f4xx_hal_tim_ex.c 0x00000000   Number         0  stm32f4xx_hal_tim_ex.o ABSOLUTE
    ..\Drivers\STM32F4xx_HAL_Driver\Src\stm32f4xx_hal_uart.c 0x00000000   Number         0  stm32f4xx_hal_uart.o ABSOLUTE
    ..\EthernetInterface\lwip-interface\lwip-sys\arch\lwip_checksum.c 0x00000000   Number         0  lwip_checksum.o ABSOLUTE
    ..\EthernetInterface\lwip-interface\lwip-sys\arch\lwip_memcpy.c 0x00000000   Number         0  lwip_memcpy.o ABSOLUTE
    ..\EthernetInterface\lwip-interface\lwip-sys\arch\lwip_sys_arch.c 0x00000000   Number         0  lwip_sys_arch.o ABSOLUTE
    ..\EthernetInterface\lwip-interface\lwip-sys\lwip_random.c 0x00000000   Number         0  lwip_random.o ABSOLUTE
    ..\EthernetInterface\lwip-interface\lwip-sys\lwip_tcp_isn.c 0x00000000   Number         0  lwip_tcp_isn.o ABSOLUTE
    ..\EthernetInterface\lwip-interface\lwip\src\api\lwip_api_lib.c 0x00000000   Number         0  lwip_api_lib.o ABSOLUTE
    ..\EthernetInterface\lwip-interface\lwip\src\api\lwip_api_msg.c 0x00000000   Number         0  lwip_api_msg.o ABSOLUTE
    ..\EthernetInterface\lwip-interface\lwip\src\api\lwip_err.c 0x00000000   Number         0  lwip_err.o ABSOLUTE
    ..\EthernetInterface\lwip-interface\lwip\src\api\lwip_net_socket.c 0x00000000   Number         0  lwip_net_socket.o ABSOLUTE
    ..\EthernetInterface\lwip-interface\lwip\src\api\lwip_netbuf.c 0x00000000   Number         0  lwip_netbuf.o ABSOLUTE
    ..\EthernetInterface\lwip-interface\lwip\src\api\lwip_netdb.c 0x00000000   Number         0  lwip_netdb.o ABSOLUTE
    ..\EthernetInterface\lwip-interface\lwip\src\api\lwip_netifapi.c 0x00000000   Number         0  lwip_netifapi.o ABSOLUTE
    ..\EthernetInterface\lwip-interface\lwip\src\api\lwip_sockets.c 0x00000000   Number         0  lwip_sockets.o ABSOLUTE
    ..\EthernetInterface\lwip-interface\lwip\src\api\lwip_tcpip.c 0x00000000   Number         0  lwip_tcpip.o ABSOLUTE
    ..\EthernetInterface\lwip-interface\lwip\src\core\ipv4\lwip_autoip.c 0x00000000   Number         0  lwip_autoip.o ABSOLUTE
    ..\EthernetInterface\lwip-interface\lwip\src\core\ipv4\lwip_dhcp.c 0x00000000   Number         0  lwip_dhcp.o ABSOLUTE
    ..\EthernetInterface\lwip-interface\lwip\src\core\ipv4\lwip_etharp.c 0x00000000   Number         0  lwip_etharp.o ABSOLUTE
    ..\EthernetInterface\lwip-interface\lwip\src\core\ipv4\lwip_icmp.c 0x00000000   Number         0  lwip_icmp.o ABSOLUTE
    ..\EthernetInterface\lwip-interface\lwip\src\core\ipv4\lwip_igmp.c 0x00000000   Number         0  lwip_igmp.o ABSOLUTE
    ..\EthernetInterface\lwip-interface\lwip\src\core\ipv4\lwip_ip4.c 0x00000000   Number         0  lwip_ip4.o ABSOLUTE
    ..\EthernetInterface\lwip-interface\lwip\src\core\ipv4\lwip_ip4_addr.c 0x00000000   Number         0  lwip_ip4_addr.o ABSOLUTE
    ..\EthernetInterface\lwip-interface\lwip\src\core\ipv4\lwip_ip4_frag.c 0x00000000   Number         0  lwip_ip4_frag.o ABSOLUTE
    ..\EthernetInterface\lwip-interface\lwip\src\core\lwip_def.c 0x00000000   Number         0  lwip_def.o ABSOLUTE
    ..\EthernetInterface\lwip-interface\lwip\src\core\lwip_dns.c 0x00000000   Number         0  lwip_dns.o ABSOLUTE
    ..\EthernetInterface\lwip-interface\lwip\src\core\lwip_inet_chksum.c 0x00000000   Number         0  lwip_inet_chksum.o ABSOLUTE
    ..\EthernetInterface\lwip-interface\lwip\src\core\lwip_init.c 0x00000000   Number         0  lwip_init.o ABSOLUTE
    ..\EthernetInterface\lwip-interface\lwip\src\core\lwip_ip.c 0x00000000   Number         0  lwip_ip.o ABSOLUTE
    ..\EthernetInterface\lwip-interface\lwip\src\core\lwip_mem.c 0x00000000   Number         0  lwip_mem.o ABSOLUTE
    ..\EthernetInterface\lwip-interface\lwip\src\core\lwip_memp.c 0x00000000   Number         0  lwip_memp.o ABSOLUTE
    ..\EthernetInterface\lwip-interface\lwip\src\core\lwip_netif.c 0x00000000   Number         0  lwip_netif.o ABSOLUTE
    ..\EthernetInterface\lwip-interface\lwip\src\core\lwip_pbuf.c 0x00000000   Number         0  lwip_pbuf.o ABSOLUTE
    ..\EthernetInterface\lwip-interface\lwip\src\core\lwip_raw.c 0x00000000   Number         0  lwip_raw.o ABSOLUTE
    ..\EthernetInterface\lwip-interface\lwip\src\core\lwip_stats.c 0x00000000   Number         0  lwip_stats.o ABSOLUTE
    ..\EthernetInterface\lwip-interface\lwip\src\core\lwip_sys.c 0x00000000   Number         0  lwip_sys.o ABSOLUTE
    ..\EthernetInterface\lwip-interface\lwip\src\core\lwip_tcp.c 0x00000000   Number         0  lwip_tcp.o ABSOLUTE
    ..\EthernetInterface\lwip-interface\lwip\src\core\lwip_tcp_in.c 0x00000000   Number         0  lwip_tcp_in.o ABSOLUTE
    ..\EthernetInterface\lwip-interface\lwip\src\core\lwip_tcp_out.c 0x00000000   Number         0  lwip_tcp_out.o ABSOLUTE
    ..\EthernetInterface\lwip-interface\lwip\src\core\lwip_timeouts.c 0x00000000   Number         0  lwip_timeouts.o ABSOLUTE
    ..\EthernetInterface\lwip-interface\lwip\src\core\lwip_udp.c 0x00000000   Number         0  lwip_udp.o ABSOLUTE
    ..\EthernetInterface\lwip-interface\lwip\src\netif\lwip_ethernet.c 0x00000000   Number         0  lwip_ethernet.o ABSOLUTE
    ..\EthernetInterface\lwip-interface\lwip\src\netif\lwip_ethernetif.c 0x00000000   Number         0  lwip_ethernetif.o ABSOLUTE
    ..\EthernetInterface\lwip-interface\lwip\src\netif\lwip_lowpan6.c 0x00000000   Number         0  lwip_lowpan6.o ABSOLUTE
    ..\EthernetInterface\lwip-interface\lwip\src\netif\lwip_sio.c 0x00000000   Number         0  lwip_sio.o ABSOLUTE
    ..\EthernetInterface\lwip-interface\lwip\src\netif\lwip_slipif.c 0x00000000   Number         0  lwip_slipif.o ABSOLUTE
    ..\EthernetInterface\lwip-interface\lwip\src\netif\ppp\lwip_auth.c 0x00000000   Number         0  lwip_auth.o ABSOLUTE
    ..\EthernetInterface\lwip-interface\lwip\src\netif\ppp\lwip_ccp.c 0x00000000   Number         0  lwip_ccp.o ABSOLUTE
    ..\EthernetInterface\lwip-interface\lwip\src\netif\ppp\lwip_chap-md5.c 0x00000000   Number         0  lwip_chap-md5.o ABSOLUTE
    ..\EthernetInterface\lwip-interface\lwip\src\netif\ppp\lwip_chap-new.c 0x00000000   Number         0  lwip_chap-new.o ABSOLUTE
    ..\EthernetInterface\lwip-interface\lwip\src\netif\ppp\lwip_chap_ms.c 0x00000000   Number         0  lwip_chap_ms.o ABSOLUTE
    ..\EthernetInterface\lwip-interface\lwip\src\netif\ppp\lwip_demand.c 0x00000000   Number         0  lwip_demand.o ABSOLUTE
    ..\EthernetInterface\lwip-interface\lwip\src\netif\ppp\lwip_eap.c 0x00000000   Number         0  lwip_eap.o ABSOLUTE
    ..\EthernetInterface\lwip-interface\lwip\src\netif\ppp\lwip_ecp.c 0x00000000   Number         0  lwip_ecp.o ABSOLUTE
    ..\EthernetInterface\lwip-interface\lwip\src\netif\ppp\lwip_eui64.c 0x00000000   Number         0  lwip_eui64.o ABSOLUTE
    ..\EthernetInterface\lwip-interface\lwip\src\netif\ppp\lwip_fsm.c 0x00000000   Number         0  lwip_fsm.o ABSOLUTE
    ..\EthernetInterface\lwip-interface\lwip\src\netif\ppp\lwip_ipcp.c 0x00000000   Number         0  lwip_ipcp.o ABSOLUTE
    ..\EthernetInterface\lwip-interface\lwip\src\netif\ppp\lwip_ipv6cp.c 0x00000000   Number         0  lwip_ipv6cp.o ABSOLUTE
    ..\EthernetInterface\lwip-interface\lwip\src\netif\ppp\lwip_lcp.c 0x00000000   Number         0  lwip_lcp.o ABSOLUTE
    ..\EthernetInterface\lwip-interface\lwip\src\netif\ppp\lwip_magic.c 0x00000000   Number         0  lwip_magic.o ABSOLUTE
    ..\EthernetInterface\lwip-interface\lwip\src\netif\ppp\lwip_mppe.c 0x00000000   Number         0  lwip_mppe.o ABSOLUTE
    ..\EthernetInterface\lwip-interface\lwip\src\netif\ppp\lwip_multilink.c 0x00000000   Number         0  lwip_multilink.o ABSOLUTE
    ..\EthernetInterface\lwip-interface\lwip\src\netif\ppp\lwip_ppp.c 0x00000000   Number         0  lwip_ppp.o ABSOLUTE
    ..\EthernetInterface\lwip-interface\lwip\src\netif\ppp\lwip_pppapi.c 0x00000000   Number         0  lwip_pppapi.o ABSOLUTE
    ..\EthernetInterface\lwip-interface\lwip\src\netif\ppp\lwip_pppcrypt.c 0x00000000   Number         0  lwip_pppcrypt.o ABSOLUTE
    ..\EthernetInterface\lwip-interface\lwip\src\netif\ppp\lwip_pppoe.c 0x00000000   Number         0  lwip_pppoe.o ABSOLUTE
    ..\EthernetInterface\lwip-interface\lwip\src\netif\ppp\lwip_pppol2tp.c 0x00000000   Number         0  lwip_pppol2tp.o ABSOLUTE
    ..\EthernetInterface\lwip-interface\lwip\src\netif\ppp\lwip_pppos.c 0x00000000   Number         0  lwip_pppos.o ABSOLUTE
    ..\EthernetInterface\lwip-interface\lwip\src\netif\ppp\lwip_upap.c 0x00000000   Number         0  lwip_upap.o ABSOLUTE
    ..\EthernetInterface\lwip-interface\lwip\src\netif\ppp\lwip_utils.c 0x00000000   Number         0  lwip_utils.o ABSOLUTE
    ..\EthernetInterface\lwip-interface\lwip\src\netif\ppp\lwip_vj.c 0x00000000   Number         0  lwip_vj.o ABSOLUTE
    ..\EthernetInterface\lwip-interface\lwip\src\netif\ppp\polarssl\lwip_arc4.c 0x00000000   Number         0  lwip_arc4.o ABSOLUTE
    ..\EthernetInterface\lwip-interface\lwip\src\netif\ppp\polarssl\lwip_des.c 0x00000000   Number         0  lwip_des.o ABSOLUTE
    ..\EthernetInterface\lwip-interface\lwip\src\netif\ppp\polarssl\lwip_md4.c 0x00000000   Number         0  lwip_md4.o ABSOLUTE
    ..\EthernetInterface\lwip-interface\lwip\src\netif\ppp\polarssl\lwip_md5.c 0x00000000   Number         0  lwip_md5.o ABSOLUTE
    ..\EthernetInterface\lwip-interface\lwip\src\netif\ppp\polarssl\lwip_sha1.c 0x00000000   Number         0  lwip_sha1.o ABSOLUTE
    ..\EthernetInterface\lwip-interface\lwip_stack.c 0x00000000   Number         0  lwip_stack.o ABSOLUTE
    ..\EthernetInterface\lwip-interface\ppp_lwip.c 0x00000000   Number         0  ppp_lwip.o ABSOLUTE
    ..\Middlewares\Third_Party\FreeRTOS\Source\CMSIS_RTOS\cmsis_os.c 0x00000000   Number         0  cmsis_os.o ABSOLUTE
    ..\Middlewares\Third_Party\FreeRTOS\Source\portable\RVDS\ARM_CM4F\port.c 0x00000000   Number         0  port.o ABSOLUTE
    ..\Middlewares\Third_Party\mbedtls\platform\src\hardware_rng.c 0x00000000   Number         0  hardware_rng.o ABSOLUTE
    ..\Middlewares\Third_Party\mbedtls\src\aes.c 0x00000000   Number         0  aes.o ABSOLUTE
    ..\Middlewares\Third_Party\mbedtls\src\aesni.c 0x00000000   Number         0  aesni.o ABSOLUTE
    ..\Middlewares\Third_Party\mbedtls\src\arc4.c 0x00000000   Number         0  arc4.o ABSOLUTE
    ..\Middlewares\Third_Party\mbedtls\src\asn1parse.c 0x00000000   Number         0  asn1parse.o ABSOLUTE
    ..\Middlewares\Third_Party\mbedtls\src\asn1write.c 0x00000000   Number         0  asn1write.o ABSOLUTE
    ..\Middlewares\Third_Party\mbedtls\src\base64.c 0x00000000   Number         0  base64.o ABSOLUTE
    ..\Middlewares\Third_Party\mbedtls\src\bignum.c 0x00000000   Number         0  bignum.o ABSOLUTE
    ..\Middlewares\Third_Party\mbedtls\src\blowfish.c 0x00000000   Number         0  blowfish.o ABSOLUTE
    ..\Middlewares\Third_Party\mbedtls\src\camellia.c 0x00000000   Number         0  camellia.o ABSOLUTE
    ..\Middlewares\Third_Party\mbedtls\src\ccm.c 0x00000000   Number         0  ccm.o ABSOLUTE
    ..\Middlewares\Third_Party\mbedtls\src\certs.c 0x00000000   Number         0  certs.o ABSOLUTE
    ..\Middlewares\Third_Party\mbedtls\src\cipher.c 0x00000000   Number         0  cipher.o ABSOLUTE
    ..\Middlewares\Third_Party\mbedtls\src\cipher_wrap.c 0x00000000   Number         0  cipher_wrap.o ABSOLUTE
    ..\Middlewares\Third_Party\mbedtls\src\cmac.c 0x00000000   Number         0  cmac.o ABSOLUTE
    ..\Middlewares\Third_Party\mbedtls\src\ctr_drbg.c 0x00000000   Number         0  ctr_drbg.o ABSOLUTE
    ..\Middlewares\Third_Party\mbedtls\src\debug.c 0x00000000   Number         0  debug.o ABSOLUTE
    ..\Middlewares\Third_Party\mbedtls\src\des.c 0x00000000   Number         0  des.o ABSOLUTE
    ..\Middlewares\Third_Party\mbedtls\src\dhm.c 0x00000000   Number         0  dhm.o ABSOLUTE
    ..\Middlewares\Third_Party\mbedtls\src\ecdh.c 0x00000000   Number         0  ecdh.o ABSOLUTE
    ..\Middlewares\Third_Party\mbedtls\src\ecdsa.c 0x00000000   Number         0  ecdsa.o ABSOLUTE
    ..\Middlewares\Third_Party\mbedtls\src\ecjpake.c 0x00000000   Number         0  ecjpake.o ABSOLUTE
    ..\Middlewares\Third_Party\mbedtls\src\ecp.c 0x00000000   Number         0  ecp.o ABSOLUTE
    ..\Middlewares\Third_Party\mbedtls\src\ecp_curves.c 0x00000000   Number         0  ecp_curves.o ABSOLUTE
    ..\Middlewares\Third_Party\mbedtls\src\entropy.c 0x00000000   Number         0  entropy.o ABSOLUTE
    ..\Middlewares\Third_Party\mbedtls\src\entropy_poll.c 0x00000000   Number         0  entropy_poll.o ABSOLUTE
    ..\Middlewares\Third_Party\mbedtls\src\error.c 0x00000000   Number         0  error.o ABSOLUTE
    ..\Middlewares\Third_Party\mbedtls\src\gcm.c 0x00000000   Number         0  gcm.o ABSOLUTE
    ..\Middlewares\Third_Party\mbedtls\src\havege.c 0x00000000   Number         0  havege.o ABSOLUTE
    ..\Middlewares\Third_Party\mbedtls\src\hmac_drbg.c 0x00000000   Number         0  hmac_drbg.o ABSOLUTE
    ..\Middlewares\Third_Party\mbedtls\src\md.c 0x00000000   Number         0  md.o ABSOLUTE
    ..\Middlewares\Third_Party\mbedtls\src\md2.c 0x00000000   Number         0  md2.o ABSOLUTE
    ..\Middlewares\Third_Party\mbedtls\src\md4.c 0x00000000   Number         0  md4.o ABSOLUTE
    ..\Middlewares\Third_Party\mbedtls\src\md5.c 0x00000000   Number         0  md5.o ABSOLUTE
    ..\Middlewares\Third_Party\mbedtls\src\md_wrap.c 0x00000000   Number         0  md_wrap.o ABSOLUTE
    ..\Middlewares\Third_Party\mbedtls\src\memory_buffer_alloc.c 0x00000000   Number         0  memory_buffer_alloc.o ABSOLUTE
    ..\Middlewares\Third_Party\mbedtls\src\net_sockets.c 0x00000000   Number         0  net_sockets.o ABSOLUTE
    ..\Middlewares\Third_Party\mbedtls\src\oid.c 0x00000000   Number         0  oid.o ABSOLUTE
    ..\Middlewares\Third_Party\mbedtls\src\padlock.c 0x00000000   Number         0  padlock.o ABSOLUTE
    ..\Middlewares\Third_Party\mbedtls\src\pem.c 0x00000000   Number         0  pem.o ABSOLUTE
    ..\Middlewares\Third_Party\mbedtls\src\pk.c 0x00000000   Number         0  pk.o ABSOLUTE
    ..\Middlewares\Third_Party\mbedtls\src\pk_wrap.c 0x00000000   Number         0  pk_wrap.o ABSOLUTE
    ..\Middlewares\Third_Party\mbedtls\src\pkcs11.c 0x00000000   Number         0  pkcs11.o ABSOLUTE
    ..\Middlewares\Third_Party\mbedtls\src\pkcs12.c 0x00000000   Number         0  pkcs12.o ABSOLUTE
    ..\Middlewares\Third_Party\mbedtls\src\pkcs5.c 0x00000000   Number         0  pkcs5.o ABSOLUTE
    ..\Middlewares\Third_Party\mbedtls\src\pkparse.c 0x00000000   Number         0  pkparse.o ABSOLUTE
    ..\Middlewares\Third_Party\mbedtls\src\pkwrite.c 0x00000000   Number         0  pkwrite.o ABSOLUTE
    ..\Middlewares\Third_Party\mbedtls\src\platform.c 0x00000000   Number         0  platform.o ABSOLUTE
    ..\Middlewares\Third_Party\mbedtls\src\ripemd160.c 0x00000000   Number         0  ripemd160.o ABSOLUTE
    ..\Middlewares\Third_Party\mbedtls\src\rsa.c 0x00000000   Number         0  rsa.o ABSOLUTE
    ..\Middlewares\Third_Party\mbedtls\src\sha1.c 0x00000000   Number         0  sha1.o ABSOLUTE
    ..\Middlewares\Third_Party\mbedtls\src\sha256.c 0x00000000   Number         0  sha256.o ABSOLUTE
    ..\Middlewares\Third_Party\mbedtls\src\sha512.c 0x00000000   Number         0  sha512.o ABSOLUTE
    ..\Middlewares\Third_Party\mbedtls\src\ssl_cache.c 0x00000000   Number         0  ssl_cache.o ABSOLUTE
    ..\Middlewares\Third_Party\mbedtls\src\ssl_ciphersuites.c 0x00000000   Number         0  ssl_ciphersuites.o ABSOLUTE
    ..\Middlewares\Third_Party\mbedtls\src\ssl_cli.c 0x00000000   Number         0  ssl_cli.o ABSOLUTE
    ..\Middlewares\Third_Party\mbedtls\src\ssl_cookie.c 0x00000000   Number         0  ssl_cookie.o ABSOLUTE
    ..\Middlewares\Third_Party\mbedtls\src\ssl_srv.c 0x00000000   Number         0  ssl_srv.o ABSOLUTE
    ..\Middlewares\Third_Party\mbedtls\src\ssl_ticket.c 0x00000000   Number         0  ssl_ticket.o ABSOLUTE
    ..\Middlewares\Third_Party\mbedtls\src\ssl_tls.c 0x00000000   Number         0  ssl_tls.o ABSOLUTE
    ..\Middlewares\Third_Party\mbedtls\src\threading.c 0x00000000   Number         0  threading.o ABSOLUTE
    ..\Middlewares\Third_Party\mbedtls\src\timing.c 0x00000000   Number         0  timing.o ABSOLUTE
    ..\Middlewares\Third_Party\mbedtls\src\version.c 0x00000000   Number         0  version.o ABSOLUTE
    ..\Middlewares\Third_Party\mbedtls\src\version_features.c 0x00000000   Number         0  version_features.o ABSOLUTE
    ..\Middlewares\Third_Party\mbedtls\src\x509.c 0x00000000   Number         0  x509.o ABSOLUTE
    ..\Middlewares\Third_Party\mbedtls\src\x509_create.c 0x00000000   Number         0  x509_create.o ABSOLUTE
    ..\Middlewares\Third_Party\mbedtls\src\x509_crl.c 0x00000000   Number         0  x509_crl.o ABSOLUTE
    ..\Middlewares\Third_Party\mbedtls\src\x509_crt.c 0x00000000   Number         0  x509_crt.o ABSOLUTE
    ..\Middlewares\Third_Party\mbedtls\src\x509_csr.c 0x00000000   Number         0  x509_csr.o ABSOLUTE
    ..\Middlewares\Third_Party\mbedtls\src\x509write_crt.c 0x00000000   Number         0  x509write_crt.o ABSOLUTE
    ..\Middlewares\Third_Party\mbedtls\src\x509write_csr.c 0x00000000   Number         0  x509write_csr.o ABSOLUTE
    ..\Middlewares\Third_Party\mbedtls\src\xtea.c 0x00000000   Number         0  xtea.o ABSOLUTE
    ..\Src\alarm\ac_line_out_alert.c         0x00000000   Number         0  ac_line_out_alert.o ABSOLUTE
    ..\Src\alarm\alarm.c                     0x00000000   Number         0  alarm.o ABSOLUTE
    ..\Src\app_config_task.c                 0x00000000   Number         0  app_config_task.o ABSOLUTE
    ..\Src\io_control.c                      0x00000000   Number         0  io_control.o ABSOLUTE
    ..\Src\led.c                             0x00000000   Number         0  led.o ABSOLUTE
    ..\Src\main.c                            0x00000000   Number         0  main.o ABSOLUTE
    ..\Src\meters\elster_tasks.c             0x00000000   Number         0  elster_tasks.o ABSOLUTE
    ..\Src\ntp_server.c                      0x00000000   Number         0  ntp_server.o ABSOLUTE
    ..\Src\ota_backup_server.c               0x00000000   Number         0  ota_backup_server.o ABSOLUTE
    ..\Src\ota_server.c                      0x00000000   Number         0  ota_server.o ABSOLUTE
    ..\Src\power_sensor.c                    0x00000000   Number         0  power_sensor.o ABSOLUTE
    ..\Src\relay\relay.c                     0x00000000   Number         0  relay.o ABSOLUTE
    ..\Src\shadow_thing.c                    0x00000000   Number         0  shadow_thing.o ABSOLUTE
    ..\Src\smartlight.c                      0x00000000   Number         0  smartlight.o ABSOLUTE
    ..\Src\sms_task.c                        0x00000000   Number         0  sms_task.o ABSOLUTE
    ..\Src\spi1.c                            0x00000000   Number         0  spi1.o ABSOLUTE
    ..\Src\stm32f4xx_hal_msp.c               0x00000000   Number         0  stm32f4xx_hal_msp.o ABSOLUTE
    ..\Src\stm32f4xx_hal_timebase_TIM.c      0x00000000   Number         0  stm32f4xx_hal_timebase_tim.o ABSOLUTE
    ..\Src\stm32f4xx_it.c                    0x00000000   Number         0  stm32f4xx_it.o ABSOLUTE
    ..\Src\system_config.c                   0x00000000   Number         0  system_config.o ABSOLUTE
    ..\Src\system_stm32f4xx.c                0x00000000   Number         0  system_stm32f4xx.o ABSOLUTE
    ..\Src\uart1.c                           0x00000000   Number         0  uart1.o ABSOLUTE
    ..\Src\uart4.c                           0x00000000   Number         0  uart4.o ABSOLUTE
    ..\Src\uart5.c                           0x00000000   Number         0  uart5.o ABSOLUTE
    ..\Src\uart6.c                           0x00000000   Number         0  uart6.o ABSOLUTE
    ..\Src\uart_config_task.c                0x00000000   Number         0  uart_config_task.o ABSOLUTE
    ..\Src\watchdog.c                        0x00000000   Number         0  watchdog.o ABSOLUTE
    ..\\EthernetInterface\\lwip-interface\\lwip\\src\\api\\lwip_net_socket.c 0x00000000   Number         0  lwip_net_socket.o ABSOLUTE
    ..\\Middlewares\\Third_Party\\mbedtls\\platform\\src\\hardware_rng.c 0x00000000   Number         0  hardware_rng.o ABSOLUTE
    ..\\Middlewares\\Third_Party\\mbedtls\\src\\error.c 0x00000000   Number         0  error.o ABSOLUTE
    ..\\Src\\alarm\\alarm.c                  0x00000000   Number         0  alarm.o ABSOLUTE
    ..\\Src\\app_config_task.c               0x00000000   Number         0  app_config_task.o ABSOLUTE
    ..\\Src\\led.c                           0x00000000   Number         0  led.o ABSOLUTE
    ..\\Src\\meters\\elster_tasks.c          0x00000000   Number         0  elster_tasks.o ABSOLUTE
    ..\\Src\\ntp_server.c                    0x00000000   Number         0  ntp_server.o ABSOLUTE
    ..\\Src\\ota_backup_server.c             0x00000000   Number         0  ota_backup_server.o ABSOLUTE
    ..\\Src\\ota_server.c                    0x00000000   Number         0  ota_server.o ABSOLUTE
    ..\\Src\\power_sensor.c                  0x00000000   Number         0  power_sensor.o ABSOLUTE
    ..\\Src\\relay\\relay.c                  0x00000000   Number         0  relay.o ABSOLUTE
    ..\\Src\\shadow_thing.c                  0x00000000   Number         0  shadow_thing.o ABSOLUTE
    ..\\Src\\smartlight.c                    0x00000000   Number         0  smartlight.o ABSOLUTE
    ..\\Src\\sms_task.c                      0x00000000   Number         0  sms_task.o ABSOLUTE
    ..\\Src\\spi1.c                          0x00000000   Number         0  spi1.o ABSOLUTE
    ..\\Src\\system_config.c                 0x00000000   Number         0  system_config.o ABSOLUTE
    ..\\Src\\uart1.c                         0x00000000   Number         0  uart1.o ABSOLUTE
    ..\\Src\\uart4.c                         0x00000000   Number         0  uart4.o ABSOLUTE
    ..\\Src\\uart5.c                         0x00000000   Number         0  uart5.o ABSOLUTE
    ..\\Src\\uart6.c                         0x00000000   Number         0  uart6.o ABSOLUTE
    ..\\Src\\uart_config_task.c              0x00000000   Number         0  uart_config_task.o ABSOLUTE
    ..\\Src\\watchdog.c                      0x00000000   Number         0  watchdog.o ABSOLUTE
    ..\\ampm_lib\\ampm_gsm\\ampm_gsm_main_task.c 0x00000000   Number         0  ampm_gsm_main_task.o ABSOLUTE
    ..\\ampm_lib\\ampm_gsm\\ampm_gsm_ring.c  0x00000000   Number         0  ampm_gsm_ring.o ABSOLUTE
    ..\\ampm_lib\\ampm_gsm\\ampm_gsm_sms.c   0x00000000   Number         0  ampm_gsm_sms.o ABSOLUTE
    ..\\ampm_lib\\common\\comm.c             0x00000000   Number         0  comm.o ABSOLUTE
    ..\\ampm_lib\\flash_mem\\sst25.c         0x00000000   Number         0  sst25.o ABSOLUTE
    ..\\aws_iot\\platform\\lwip\\common\\aws_timer.c 0x00000000   Number         0  aws_timer.o ABSOLUTE
    ..\\aws_iot\\platform\\lwip\\mbedtls\\net_socket.c 0x00000000   Number         0  net_socket.o ABSOLUTE
    ..\\aws_iot\\platform\\lwip\\mbedtls\\network_mbedtls_wrapper.c 0x00000000   Number         0  network_mbedtls_wrapper.o ABSOLUTE
    ..\\aws_iot\\src\\aws_iot_mqtt_client.c  0x00000000   Number         0  aws_iot_mqtt_client.o ABSOLUTE
    ..\\aws_iot\\src\\aws_iot_mqtt_client_common_internal.c 0x00000000   Number         0  aws_iot_mqtt_client_common_internal.o ABSOLUTE
    ..\\aws_iot\\src\\aws_iot_mqtt_client_connect.c 0x00000000   Number         0  aws_iot_mqtt_client_connect.o ABSOLUTE
    ..\\aws_iot\\src\\aws_iot_mqtt_client_publish.c 0x00000000   Number         0  aws_iot_mqtt_client_publish.o ABSOLUTE
    ..\\aws_iot\\src\\aws_iot_mqtt_client_subscribe.c 0x00000000   Number         0  aws_iot_mqtt_client_subscribe.o ABSOLUTE
    ..\\aws_iot\\src\\aws_iot_mqtt_client_unsubscribe.c 0x00000000   Number         0  aws_iot_mqtt_client_unsubscribe.o ABSOLUTE
    ..\\aws_iot\\src\\aws_iot_mqtt_client_yield.c 0x00000000   Number         0  aws_iot_mqtt_client_yield.o ABSOLUTE
    ..\\aws_iot\\src\\aws_iot_shadow.c       0x00000000   Number         0  aws_iot_shadow.o ABSOLUTE
    ..\\aws_iot\\src\\aws_iot_shadow_actions.c 0x00000000   Number         0  aws_iot_shadow_actions.o ABSOLUTE
    ..\\aws_iot\\src\\aws_iot_shadow_json.c  0x00000000   Number         0  aws_iot_shadow_json.o ABSOLUTE
    ..\\aws_iot\\src\\aws_iot_shadow_records.c 0x00000000   Number         0  aws_iot_shadow_records.o ABSOLUTE
    ..\ampm_lib\ampm_gsm\ampm_gsm_call.c     0x00000000   Number         0  ampm_gsm_call.o ABSOLUTE
    ..\ampm_lib\ampm_gsm\ampm_gsm_common.c   0x00000000   Number         0  ampm_gsm_common.o ABSOLUTE
    ..\ampm_lib\ampm_gsm\ampm_gsm_dial_up.c  0x00000000   Number         0  ampm_gsm_dial_up.o ABSOLUTE
    ..\ampm_lib\ampm_gsm\ampm_gsm_io.c       0x00000000   Number         0  ampm_gsm_io.o ABSOLUTE
    ..\ampm_lib\ampm_gsm\ampm_gsm_main_task.c 0x00000000   Number         0  ampm_gsm_main_task.o ABSOLUTE
    ..\ampm_lib\ampm_gsm\ampm_gsm_ring.c     0x00000000   Number         0  ampm_gsm_ring.o ABSOLUTE
    ..\ampm_lib\ampm_gsm\ampm_gsm_sms.c      0x00000000   Number         0  ampm_gsm_sms.o ABSOLUTE
    ..\ampm_lib\ampm_gsm\ampm_gsm_sms_api.c  0x00000000   Number         0  ampm_gsm_sms_api.o ABSOLUTE
    ..\ampm_lib\ampm_gsm\ampm_gsm_startup.c  0x00000000   Number         0  ampm_gsm_startup.o ABSOLUTE
    ..\ampm_lib\ampm_gsm\at_command_parser.c 0x00000000   Number         0  at_command_parser.o ABSOLUTE
    ..\ampm_lib\ampm_gsm\sms\pdu.c           0x00000000   Number         0  pdu.o ABSOLUTE
    ..\ampm_lib\common\comm.c                0x00000000   Number         0  comm.o ABSOLUTE
    ..\ampm_lib\flash_mem\sst25.c            0x00000000   Number         0  sst25.o ABSOLUTE
    ..\ampm_lib\lib\DTMF.c                   0x00000000   Number         0  dtmf.o ABSOLUTE
    ..\ampm_lib\lib\ampm_filestream.c        0x00000000   Number         0  ampm_filestream.o ABSOLUTE
    ..\ampm_lib\lib\ampm_list.c              0x00000000   Number         0  ampm_list.o ABSOLUTE
    ..\ampm_lib\lib\ampm_sprintf.c           0x00000000   Number         0  ampm_sprintf.o ABSOLUTE
    ..\ampm_lib\lib\crc16.c                  0x00000000   Number         0  crc16.o ABSOLUTE
    ..\ampm_lib\lib\data_cmp.c               0x00000000   Number         0  data_cmp.o ABSOLUTE
    ..\ampm_lib\lib\encoding.c               0x00000000   Number         0  encoding.o ABSOLUTE
    ..\ampm_lib\lib\fcs.c                    0x00000000   Number         0  fcs.o ABSOLUTE
    ..\ampm_lib\lib\m_time.c                 0x00000000   Number         0  m_time.o ABSOLUTE
    ..\ampm_lib\lib\packet_queue.c           0x00000000   Number         0  packet_queue.o ABSOLUTE
    ..\ampm_lib\lib\ringbuf.c                0x00000000   Number         0  ringbuf.o ABSOLUTE
    ..\ampm_lib\lib\sparser.c                0x00000000   Number         0  sparser.o ABSOLUTE
    ..\ampm_lib\lib\sys_tick.c               0x00000000   Number         0  sys_tick.o ABSOLUTE
    ..\ampm_lib\lib\sys_time.c               0x00000000   Number         0  sys_time.o ABSOLUTE
    ..\aws_iot\external_libs\jsmn\jsmn.c     0x00000000   Number         0  jsmn.o ABSOLUTE
    ..\aws_iot\platform\lwip\common\aws_timer.c 0x00000000   Number         0  aws_timer.o ABSOLUTE
    ..\aws_iot\platform\lwip\mbedtls\net_socket.c 0x00000000   Number         0  net_socket.o ABSOLUTE
    ..\aws_iot\platform\lwip\mbedtls\network_mbedtls_wrapper.c 0x00000000   Number         0  network_mbedtls_wrapper.o ABSOLUTE
    ..\aws_iot\src\aws_iot_json_utils.c      0x00000000   Number         0  aws_iot_json_utils.o ABSOLUTE
    ..\aws_iot\src\aws_iot_mqtt_client.c     0x00000000   Number         0  aws_iot_mqtt_client.o ABSOLUTE
    ..\aws_iot\src\aws_iot_mqtt_client_common_internal.c 0x00000000   Number         0  aws_iot_mqtt_client_common_internal.o ABSOLUTE
    ..\aws_iot\src\aws_iot_mqtt_client_connect.c 0x00000000   Number         0  aws_iot_mqtt_client_connect.o ABSOLUTE
    ..\aws_iot\src\aws_iot_mqtt_client_publish.c 0x00000000   Number         0  aws_iot_mqtt_client_publish.o ABSOLUTE
    ..\aws_iot\src\aws_iot_mqtt_client_subscribe.c 0x00000000   Number         0  aws_iot_mqtt_client_subscribe.o ABSOLUTE
    ..\aws_iot\src\aws_iot_mqtt_client_unsubscribe.c 0x00000000   Number         0  aws_iot_mqtt_client_unsubscribe.o ABSOLUTE
    ..\aws_iot\src\aws_iot_mqtt_client_yield.c 0x00000000   Number         0  aws_iot_mqtt_client_yield.o ABSOLUTE
    ..\aws_iot\src\aws_iot_shadow.c          0x00000000   Number         0  aws_iot_shadow.o ABSOLUTE
    ..\aws_iot\src\aws_iot_shadow_actions.c  0x00000000   Number         0  aws_iot_shadow_actions.o ABSOLUTE
    ..\aws_iot\src\aws_iot_shadow_json.c     0x00000000   Number         0  aws_iot_shadow_json.o ABSOLUTE
    ..\aws_iot\src\aws_iot_shadow_records.c  0x00000000   Number         0  aws_iot_shadow_records.o ABSOLUTE
    cdrcmple.s                               0x00000000   Number         0  cdrcmple.o ABSOLUTE
    dc.s                                     0x00000000   Number         0  dc.o ABSOLUTE
    handlers.s                               0x00000000   Number         0  handlers.o ABSOLUTE
    init.s                                   0x00000000   Number         0  init.o ABSOLUTE
    startup_stm32f407xx.s                    0x00000000   Number         0  startup_stm32f407xx.o ABSOLUTE
    RESET                                    0x0800c000   Section      392  startup_stm32f407xx.o(RESET)
    .ARM.Collect$$$$00000000                 0x0800c188   Section        0  entry.o(.ARM.Collect$$$$00000000)
    .ARM.Collect$$$$00000001                 0x0800c188   Section        4  entry2.o(.ARM.Collect$$$$00000001)
    .ARM.Collect$$$$00000004                 0x0800c18c   Section        4  entry5.o(.ARM.Collect$$$$00000004)
    .ARM.Collect$$$$00000008                 0x0800c190   Section        0  entry7b.o(.ARM.Collect$$$$00000008)
    .ARM.Collect$$$$0000000A                 0x0800c190   Section        0  entry8b.o(.ARM.Collect$$$$0000000A)
    .ARM.Collect$$$$0000000B                 0x0800c190   Section        8  entry9a.o(.ARM.Collect$$$$0000000B)
    .ARM.Collect$$$$0000000D                 0x0800c198   Section        0  entry10a.o(.ARM.Collect$$$$0000000D)
    .ARM.Collect$$$$0000000F                 0x0800c198   Section        0  entry11a.o(.ARM.Collect$$$$0000000F)
    .ARM.Collect$$$$00002712                 0x0800c198   Section        4  entry2.o(.ARM.Collect$$$$00002712)
    __lit__00000000                          0x0800c198   Data           4  entry2.o(.ARM.Collect$$$$00002712)
    .emb_text                                0x0800c19c   Section      186  port.o(.emb_text)
    $v0                                      0x0800c19c   Number         0  port.o(.emb_text)
    .text                                    0x0800c258   Section        0  heap_4.o(.text)
    prvInsertBlockIntoFreeList               0x0800c259   Thumb Code    96  heap_4.o(.text)
    prvHeapInit                              0x0800c2b9   Thumb Code    98  heap_4.o(.text)
    .text                                    0x0800c500   Section        0  queue.o(.text)
    prvInitialiseNewQueue                    0x0800c593   Thumb Code    42  queue.o(.text)
    prvUnlockQueue                           0x0800c615   Thumb Code   126  queue.o(.text)
    prvIsQueueFull                           0x0800c693   Thumb Code    30  queue.o(.text)
    prvCopyDataToQueue                       0x0800c6b1   Thumb Code   124  queue.o(.text)
    prvInitialiseMutex                       0x0800c8d1   Thumb Code    28  queue.o(.text)
    prvIsQueueEmpty                          0x0800c95b   Thumb Code    26  queue.o(.text)
    prvCopyDataFromQueue                     0x0800c975   Thumb Code    42  queue.o(.text)
    .text                                    0x0800d0e8   Section        0  port.o(.text)
    prvTaskExitError                         0x0800d0e9   Thumb Code    60  port.o(.text)
    .text                                    0x0800d3f4   Section        0  cmsis_os.o(.text)
    makeFreeRtosPriority                     0x0800d3f5   Thumb Code    14  cmsis_os.o(.text)
    makeCmsisPriority                        0x0800d403   Thumb Code    18  cmsis_os.o(.text)
    inHandlerMode                            0x0800d415   Thumb Code    16  cmsis_os.o(.text)
    .text                                    0x0800ddb4   Section        0  tasks.o(.text)
    prvInitialiseTaskLists                   0x0800ddb5   Thumb Code    70  tasks.o(.text)
    prvAddNewTaskToReadyList                 0x0800ddfb   Thumb Code   156  tasks.o(.text)
    prvInitialiseNewTask                     0x0800de97   Thumb Code   182  tasks.o(.text)
    prvResetNextTaskUnblockTime              0x0800dfad   Thumb Code    42  tasks.o(.text)
    prvDeleteTCB                             0x0800dfd7   Thumb Code    18  tasks.o(.text)
    prvAddCurrentTaskToDelayedList           0x0800e30f   Thumb Code   124  tasks.o(.text)
    prvTaskIsTaskSuspended                   0x0800e867   Thumb Code    80  tasks.o(.text)
    prvCheckTasksWaitingTermination          0x0800e9d5   Thumb Code    86  tasks.o(.text)
    prvIdleTask                              0x0800ea2b   Thumb Code    96  tasks.o(.text)
    prvTaskCheckFreeStackSpace               0x0800eb63   Thumb Code    22  tasks.o(.text)
    prvListTasksWithinSingleList             0x0800ebeb   Thumb Code   106  tasks.o(.text)
    prvWriteNameToBuffer                     0x0800f131   Thumb Code    42  tasks.o(.text)
    .text                                    0x0800f7ac   Section        0  list.o(.text)
    .text                                    0x0800f840   Section        0  ampm_list.o(.text)
    .text                                    0x0800f954   Section        0  ampm_sprintf.o(.text)
    .text                                    0x0800fc62   Section        0  data_cmp.o(.text)
    .text                                    0x0800fcb8   Section        0  encoding.o(.text)
    .text                                    0x0800fe9c   Section        0  m_time.o(.text)
    .text                                    0x08010504   Section        0  ringbuf.o(.text)
    .text                                    0x08010598   Section        0  sparser.o(.text)
    .text                                    0x080108d8   Section        0  sys_tick.o(.text)
    .text                                    0x080109d8   Section        0  sys_time.o(.text)
    .text                                    0x08010c04   Section        0  ampm_filestream.o(.text)
    .text                                    0x08010d44   Section       36  startup_stm32f407xx.o(.text)
    $v0                                      0x08010d44   Number         0  startup_stm32f407xx.o(.text)
    .text                                    0x08010d68   Section        0  stm32f4xx_hal_flash_ex.o(.text)
    FLASH_MassErase                          0x08010e37   Thumb Code    48  stm32f4xx_hal_flash_ex.o(.text)
    FLASH_OB_BOR_LevelConfig                 0x08010f87   Thumb Code    30  stm32f4xx_hal_flash_ex.o(.text)
    FLASH_OB_UserConfig                      0x08010fa5   Thumb Code    58  stm32f4xx_hal_flash_ex.o(.text)
    FLASH_OB_RDP_LevelConfig                 0x08010fdf   Thumb Code    28  stm32f4xx_hal_flash_ex.o(.text)
    FLASH_OB_DisableWRP                      0x08010ffb   Thumb Code    40  stm32f4xx_hal_flash_ex.o(.text)
    FLASH_OB_EnableWRP                       0x08011023   Thumb Code    38  stm32f4xx_hal_flash_ex.o(.text)
    FLASH_OB_GetBOR                          0x080110d9   Thumb Code    12  stm32f4xx_hal_flash_ex.o(.text)
    FLASH_OB_GetUser                         0x080110e5   Thumb Code    12  stm32f4xx_hal_flash_ex.o(.text)
    FLASH_OB_GetRDP                          0x080110f1   Thumb Code    34  stm32f4xx_hal_flash_ex.o(.text)
    FLASH_OB_GetWRP                          0x08011113   Thumb Code     8  stm32f4xx_hal_flash_ex.o(.text)
    .text                                    0x08011144   Section        0  stm32f4xx_hal_rng.o(.text)
    .text                                    0x08011318   Section        0  stm32f4xx_hal_dma.o(.text)
    DMA_CalcBaseAndBitshift                  0x08011319   Thumb Code    46  stm32f4xx_hal_dma.o(.text)
    DMA_CheckFifoParam                       0x08011347   Thumb Code   170  stm32f4xx_hal_dma.o(.text)
    DMA_SetConfig                            0x0801153b   Thumb Code    44  stm32f4xx_hal_dma.o(.text)
    .text                                    0x08011bc4   Section        0  stm32f4xx_hal_rcc_ex.o(.text)
    .text                                    0x08011f5c   Section        0  stm32f4xx_hal_rtc_ex.o(.text)
    .text                                    0x08012d50   Section        0  stm32f4xx_hal_adc_ex.o(.text)
    ADC_MultiModeDMAError                    0x08013117   Thumb Code    26  stm32f4xx_hal_adc_ex.o(.text)
    ADC_MultiModeDMAHalfConvCplt             0x08013131   Thumb Code    14  stm32f4xx_hal_adc_ex.o(.text)
    ADC_MultiModeDMAConvCplt                 0x0801313f   Thumb Code   130  stm32f4xx_hal_adc_ex.o(.text)
    .text                                    0x080135d8   Section        0  stm32f4xx_hal_tim.o(.text)
    TIM_DMAPeriodElapsedCplt                 0x080137d3   Thumb Code    20  stm32f4xx_hal_tim.o(.text)
    TIM_OC4_SetConfig                        0x08014ea3   Thumb Code    88  stm32f4xx_hal_tim.o(.text)
    TIM_OC3_SetConfig                        0x08014efb   Thumb Code   122  stm32f4xx_hal_tim.o(.text)
    TIM_OC1_SetConfig                        0x08014fe5   Thumb Code   102  stm32f4xx_hal_tim.o(.text)
    TIM_TI4_SetConfig                        0x080150bf   Thumb Code    64  stm32f4xx_hal_tim.o(.text)
    TIM_TI3_SetConfig                        0x080150ff   Thumb Code    60  stm32f4xx_hal_tim.o(.text)
    TIM_TI2_SetConfig                        0x0801513b   Thumb Code    62  stm32f4xx_hal_tim.o(.text)
    TIM_DMATriggerCplt                       0x08015517   Thumb Code    20  stm32f4xx_hal_tim.o(.text)
    TIM_ETR_SetConfig                        0x0801593d   Thumb Code    24  stm32f4xx_hal_tim.o(.text)
    TIM_ITRx_SetConfig                       0x08015a51   Thumb Code    20  stm32f4xx_hal_tim.o(.text)
    TIM_TI1_ConfigInputStage                 0x08015a65   Thumb Code    42  stm32f4xx_hal_tim.o(.text)
    TIM_TI2_ConfigInputStage                 0x08015a8f   Thumb Code    44  stm32f4xx_hal_tim.o(.text)
    TIM_SlaveTimer_SetConfig                 0x08015c05   Thumb Code   164  stm32f4xx_hal_tim.o(.text)
    .text                                    0x08015dd8   Section        0  stm32f4xx_hal_uart.o(.text)
    UART_SetConfig                           0x08015dd9   Thumb Code   864  stm32f4xx_hal_uart.o(.text)
    UART_WaitOnFlagUntilTimeout              0x08016385   Thumb Code   108  stm32f4xx_hal_uart.o(.text)
    UART_EndRxTransfer                       0x08016663   Thumb Code    32  stm32f4xx_hal_uart.o(.text)
    UART_EndTxTransfer                       0x08016683   Thumb Code    20  stm32f4xx_hal_uart.o(.text)
    UART_DMAError                            0x08016697   Thumb Code    80  stm32f4xx_hal_uart.o(.text)
    UART_DMATxHalfCplt                       0x080166e9   Thumb Code    14  stm32f4xx_hal_uart.o(.text)
    UART_DMATransmitCplt                     0x080166f9   Thumb Code    54  stm32f4xx_hal_uart.o(.text)
    UART_DMARxHalfCplt                       0x080167bf   Thumb Code    14  stm32f4xx_hal_uart.o(.text)
    UART_DMAReceiveCplt                      0x080167cf   Thumb Code    70  stm32f4xx_hal_uart.o(.text)
    UART_DMARxAbortCallback                  0x08016b3f   Thumb Code    74  stm32f4xx_hal_uart.o(.text)
    UART_DMATxAbortCallback                  0x08016b89   Thumb Code    52  stm32f4xx_hal_uart.o(.text)
    UART_DMATxOnlyAbortCallback              0x08016c8f   Thumb Code    24  stm32f4xx_hal_uart.o(.text)
    UART_DMARxOnlyAbortCallback              0x08016d0f   Thumb Code    24  stm32f4xx_hal_uart.o(.text)
    UART_EndTransmit_IT                      0x08016d99   Thumb Code    32  stm32f4xx_hal_uart.o(.text)
    UART_Transmit_IT                         0x08016db9   Thumb Code   104  stm32f4xx_hal_uart.o(.text)
    UART_DMAAbortOnError                     0x08016e21   Thumb Code    20  stm32f4xx_hal_uart.o(.text)
    UART_Receive_IT                          0x08016e35   Thumb Code   154  stm32f4xx_hal_uart.o(.text)
    .text                                    0x08017188   Section        0  stm32f4xx_hal_gpio.o(.text)
    .text                                    0x08017534   Section        0  stm32f4xx_hal_rtc.o(.text)
    .text                                    0x080180ec   Section        0  stm32f4xx_hal_iwdg.o(.text)
    .text                                    0x0801814c   Section        0  stm32f4xx_hal_cortex.o(.text)
    NVIC_SetPriority                         0x0801814d   Thumb Code    32  stm32f4xx_hal_cortex.o(.text)
    NVIC_GetPriorityGrouping                 0x080184af   Thumb Code    12  stm32f4xx_hal_cortex.o(.text)
    .text                                    0x080184d0   Section        0  stm32f4xx_hal_tim_ex.o(.text)
    TIM_CCxNChannelCmd                       0x08018751   Thumb Code    28  stm32f4xx_hal_tim_ex.o(.text)
    .text                                    0x08019284   Section        0  stm32f4xx_hal.o(.text)
    .text                                    0x08019428   Section        0  stm32f4xx_hal_flash.o(.text)
    FLASH_SetErrorCode                       0x08019429   Thumb Code   142  stm32f4xx_hal_flash.o(.text)
    FLASH_Program_DoubleWord                 0x08019511   Thumb Code    44  stm32f4xx_hal_flash.o(.text)
    FLASH_Program_Word                       0x0801953d   Thumb Code    40  stm32f4xx_hal_flash.o(.text)
    FLASH_Program_HalfWord                   0x08019565   Thumb Code    40  stm32f4xx_hal_flash.o(.text)
    FLASH_Program_Byte                       0x0801958d   Thumb Code    36  stm32f4xx_hal_flash.o(.text)
    .text                                    0x0801987c   Section        0  stm32f4xx_hal_adc.o(.text)
    ADC_Init                                 0x0801987d   Thumb Code   340  stm32f4xx_hal_adc.o(.text)
    ADC_DMAError                             0x08019fc1   Thumb Code    26  stm32f4xx_hal_adc.o(.text)
    ADC_DMAHalfConvCplt                      0x08019fdd   Thumb Code    14  stm32f4xx_hal_adc.o(.text)
    ADC_DMAConvCplt                          0x08019feb   Thumb Code   110  stm32f4xx_hal_adc.o(.text)
    .text                                    0x0801a43c   Section        0  stm32f4xx_hal_rcc.o(.text)
    .text                                    0x0801acd8   Section        0  stm32f4xx_hal_spi.o(.text)
    SPI_WaitFlagStateUntilTimeout            0x0801ad9f   Thumb Code   170  stm32f4xx_hal_spi.o(.text)
    SPI_CheckFlag_BSY                        0x0801ae49   Thumb Code    40  stm32f4xx_hal_spi.o(.text)
    SPI_CloseTx_ISR                          0x0801b3a5   Thumb Code   154  stm32f4xx_hal_spi.o(.text)
    SPI_TxISR_8BIT                           0x0801b43f   Thumb Code    34  stm32f4xx_hal_spi.o(.text)
    SPI_TxISR_16BIT                          0x0801b461   Thumb Code    36  stm32f4xx_hal_spi.o(.text)
    SPI_CloseRx_ISR                          0x0801b537   Thumb Code   104  stm32f4xx_hal_spi.o(.text)
    SPI_RxISR_8BIT                           0x0801b59f   Thumb Code    34  stm32f4xx_hal_spi.o(.text)
    SPI_RxISR_16BIT                          0x0801b5c1   Thumb Code    36  stm32f4xx_hal_spi.o(.text)
    SPI_CloseRxTx_ISR                        0x0801b5e7   Thumb Code   182  stm32f4xx_hal_spi.o(.text)
    SPI_2linesTxISR_8BIT                     0x0801b69d   Thumb Code    50  stm32f4xx_hal_spi.o(.text)
    SPI_2linesRxISR_8BIT                     0x0801b6cf   Thumb Code    50  stm32f4xx_hal_spi.o(.text)
    SPI_2linesTxISR_16BIT                    0x0801b701   Thumb Code    52  stm32f4xx_hal_spi.o(.text)
    SPI_2linesRxISR_16BIT                    0x0801b735   Thumb Code    52  stm32f4xx_hal_spi.o(.text)
    SPI_DMAError                             0x0801b8ed   Thumb Code    40  stm32f4xx_hal_spi.o(.text)
    SPI_DMATransmitCplt                      0x0801b915   Thumb Code   114  stm32f4xx_hal_spi.o(.text)
    SPI_DMAHalfTransmitCplt                  0x0801b989   Thumb Code    14  stm32f4xx_hal_spi.o(.text)
    SPI_DMAReceiveCplt                       0x0801ba67   Thumb Code    96  stm32f4xx_hal_spi.o(.text)
    SPI_DMAHalfReceiveCplt                   0x0801bac9   Thumb Code    14  stm32f4xx_hal_spi.o(.text)
    SPI_DMATransmitReceiveCplt               0x0801bad7   Thumb Code    90  stm32f4xx_hal_spi.o(.text)
    SPI_DMAHalfTransmitReceiveCplt           0x0801bb33   Thumb Code    14  stm32f4xx_hal_spi.o(.text)
    SPI_AbortRx_ISR                          0x0801bd89   Thumb Code    98  stm32f4xx_hal_spi.o(.text)
    SPI_AbortTx_ISR                          0x0801bdeb   Thumb Code    26  stm32f4xx_hal_spi.o(.text)
    SPI_DMARxAbortCallback                   0x0801befb   Thumb Code   108  stm32f4xx_hal_spi.o(.text)
    SPI_DMATxAbortCallback                   0x0801bf67   Thumb Code   166  stm32f4xx_hal_spi.o(.text)
    SPI_DMAAbortOnError                      0x0801c1c7   Thumb Code    20  stm32f4xx_hal_spi.o(.text)
    .text                                    0x0801c330   Section        0  system_stm32f4xx.o(.text)
    .text                                    0x0801c454   Section        0  stm32f4xx_hal_timebase_tim.o(.text)
    .text                                    0x0801c504   Section        0  freertos.o(.text)
    .text                                    0x0801c514   Section        0  stm32f4xx_it.o(.text)
    .text                                    0x0801c6b0   Section        0  main.o(.text)
    MX_SPI1_Init                             0x0801c701   Thumb Code    66  main.o(.text)
    MX_USART6_UART_Init                      0x0801c743   Thumb Code    52  main.o(.text)
    MX_USART3_UART_Init                      0x0801c777   Thumb Code    52  main.o(.text)
    MX_USART2_UART_Init                      0x0801c7ab   Thumb Code    52  main.o(.text)
    MX_USART1_UART_Init                      0x0801c7df   Thumb Code    54  main.o(.text)
    MX_UART5_Init                            0x0801c815   Thumb Code    52  main.o(.text)
    MX_UART4_Init                            0x0801c849   Thumb Code    52  main.o(.text)
    MX_RTC_Init                              0x0801c87d   Thumb Code   120  main.o(.text)
    MX_RNG_Init                              0x0801c8f5   Thumb Code    28  main.o(.text)
    MX_IWDG_Init                             0x0801c911   Thumb Code    38  main.o(.text)
    MX_ADC1_Init                             0x0801c937   Thumb Code   168  main.o(.text)
    MX_DMA_Init                              0x0801c9df   Thumb Code   416  main.o(.text)
    MX_GPIO_Init                             0x0801cb7f   Thumb Code   490  main.o(.text)
    .text                                    0x0801d020   Section        0  stm32f4xx_hal_msp.o(.text)
    .text                                    0x0801da04   Section        0  system_config.o(.text)
    NVIC_SystemReset                         0x0801da05   Thumb Code    56  system_config.o(.text)
    GetSector                                0x0801e109   Thumb Code   182  system_config.o(.text)
    GetSectorSize                            0x0801e63b   Thumb Code    38  system_config.o(.text)
    __ARM_isnanf                             0x0801e661   Thumb Code    14  system_config.o(.text)
    .text                                    0x0801e6dc   Section        0  hardware_rng.o(.text)
    .text                                    0x0801e764   Section        0  shadow_thing.o(.text)
    ShadowUpdateStatusCallback               0x0801e765   Thumb Code   168  shadow_thing.o(.text)
    shadow_thing_init                        0x0801e80d   Thumb Code   318  shadow_thing.o(.text)
    shadow_thing_thread                      0x0801e94b   Thumb Code  7100  shadow_thing.o(.text)
    .text                                    0x08020ee0   Section        0  ntp_server.o(.text)
    vNTP_Task                                0x08020ee5   Thumb Code   770  ntp_server.o(.text)
    .text                                    0x08021380   Section        0  smartlight.o(.text)
    .text                                    0x080215c4   Section        0  watchdog.o(.text)
    vWatchdog_Task                           0x0802165f   Thumb Code    28  watchdog.o(.text)
    .text                                    0x08021854   Section        0  sms_task.o(.text)
    .text                                    0x08024ed8   Section        0  sst25.o(.text)
    SST25__Status                            0x08024ed9   Thumb Code    40  sst25.o(.text)
    SST25__WriteEnable                       0x08024f01   Thumb Code    80  sst25.o(.text)
    SST25__WriteEAR                          0x08024f51   Thumb Code     6  sst25.o(.text)
    SST25__CmdRead                           0x08025417   Thumb Code    42  sst25.o(.text)
    SST25__CmdWrite                          0x08025441   Thumb Code    42  sst25.o(.text)
    SST25__CmdReadBuf                        0x0802546b   Thumb Code    60  sst25.o(.text)
    SST25__WriteDisable                      0x080254ff   Thumb Code    68  sst25.o(.text)
    SST25__GlobalProtect                     0x08025543   Thumb Code    96  sst25.o(.text)
    .text                                    0x080255bc   Section        0  io_control.o(.text)
    .text                                    0x0802567c   Section        0  led.o(.text)
    .text                                    0x080256e0   Section        0  ota_backup_server.o(.text)
    CheckSum                                 0x080256e1   Thumb Code    26  ota_backup_server.o(.text)
    vOTA_Backup_Task                         0x0802572f   Thumb Code  1436  ota_backup_server.o(.text)
    .text                                    0x08025d84   Section        0  power_sensor.o(.text)
    .text                                    0x080269f4   Section        0  elster_tasks.o(.text)
    .text                                    0x08028990   Section        0  uart1.o(.text)
    .text                                    0x08028b48   Section        0  uart5.o(.text)
    .text                                    0x08028d08   Section        0  spi1.o(.text)
    .text                                    0x08028d70   Section        0  uart4.o(.text)
    .text                                    0x0802901c   Section        0  uart6.o(.text)
    .text                                    0x08029200   Section        0  app_config_task.o(.text)
    .text                                    0x08029c0c   Section        0  uart_config_task.o(.text)
    .text                                    0x08029db0   Section        0  alarm.o(.text)
    .text                                    0x0802a7ac   Section        0  relay.o(.text)
    .text                                    0x0802a8e8   Section        0  ampm_gsm_call.o(.text)
    .text                                    0x0802b188   Section        0  ampm_gsm_common.o(.text)
    .text                                    0x0802b2e0   Section        0  ampm_gsm_dial_up.o(.text)
    .text                                    0x0802b544   Section        0  ampm_gsm_io.o(.text)
    .text                                    0x0802b85c   Section        0  ampm_gsm_main_task.o(.text)
    status_cb                                0x0802b87b   Thumb Code     8  ampm_gsm_main_task.o(.text)
    ppp_output_cb                            0x0802b883   Thumb Code    38  ampm_gsm_main_task.o(.text)
    .text                                    0x0802d078   Section        0  ampm_gsm_ring.o(.text)
    .text                                    0x0802d384   Section        0  ampm_gsm_sms.o(.text)
    .text                                    0x0802e1a8   Section        0  ampm_gsm_startup.o(.text)
    .text                                    0x0802e8cc   Section        0  at_command_parser.o(.text)
    .text                                    0x0802e988   Section        0  comm.o(.text)
    .text                                    0x0802ea48   Section        0  pdu.o(.text)
    SwapDecimalNibble                        0x0802ea49   Thumb Code    40  pdu.o(.text)
    EncodePDUMessage                         0x0802ea71   Thumb Code   146  pdu.o(.text)
    DecodePDUMessage                         0x0802eb03   Thumb Code   146  pdu.o(.text)
    EncodePhoneNumber                        0x0802eb95   Thumb Code   122  pdu.o(.text)
    DecodePhoneNumber                        0x0802ec0f   Thumb Code    74  pdu.o(.text)
    .text                                    0x0802ef4c   Section        0  ampm_gsm_sms_api.o(.text)
    .text                                    0x0802f1b4   Section        0  aws_iot_json_utils.o(.text)
    .text                                    0x0802f708   Section        0  aws_iot_mqtt_client.o(.text)
    .text                                    0x0802fa28   Section        0  aws_iot_mqtt_client_common_internal.o(.text)
    _aws_iot_mqtt_internal_decode_packet_remaining_len 0x0802fce1   Thumb Code   112  aws_iot_mqtt_client_common_internal.o(.text)
    _aws_iot_mqtt_internal_read_packet       0x0802fd51   Thumb Code   300  aws_iot_mqtt_client_common_internal.o(.text)
    _aws_iot_mqtt_internal_is_topic_matched  0x0802fe7d   Thumb Code   126  aws_iot_mqtt_client_common_internal.o(.text)
    _aws_iot_mqtt_internal_deliver_message   0x0802fefb   Thumb Code   208  aws_iot_mqtt_client_common_internal.o(.text)
    _aws_iot_mqtt_internal_handle_publish    0x0802ffcb   Thumb Code   150  aws_iot_mqtt_client_common_internal.o(.text)
    .text                                    0x080301a0   Section        0  aws_iot_mqtt_client_connect.o(.text)
    _aws_iot_get_connect_packet_length       0x080301a1   Thumb Code    48  aws_iot_mqtt_client_connect.o(.text)
    _aws_iot_mqtt_serialize_connect          0x080301d1   Thumb Code   380  aws_iot_mqtt_client_connect.o(.text)
    _aws_iot_mqtt_deserialize_connack        0x0803034d   Thumb Code   228  aws_iot_mqtt_client_connect.o(.text)
    _aws_iot_mqtt_is_client_state_valid_for_connect 0x08030431   Thumb Code    68  aws_iot_mqtt_client_connect.o(.text)
    _aws_iot_mqtt_internal_connect           0x08030475   Thumb Code   210  aws_iot_mqtt_client_connect.o(.text)
    .text                                    0x080307c8   Section        0  aws_iot_mqtt_client_publish.o(.text)
    _aws_iot_mqtt_read_string_with_len       0x080307c9   Thumb Code    64  aws_iot_mqtt_client_publish.o(.text)
    _aws_iot_mqtt_internal_serialize_publish 0x08030809   Thumb Code   180  aws_iot_mqtt_client_publish.o(.text)
    _aws_iot_mqtt_internal_publish           0x080309d9   Thumb Code   168  aws_iot_mqtt_client_publish.o(.text)
    .text                                    0x08030bde   Section        0  aws_iot_mqtt_client_subscribe.o(.text)
    _aws_iot_mqtt_serialize_subscribe        0x08030bdf   Thumb Code   180  aws_iot_mqtt_client_subscribe.o(.text)
    _aws_iot_mqtt_deserialize_suback         0x08030c93   Thumb Code   190  aws_iot_mqtt_client_subscribe.o(.text)
    _aws_iot_mqtt_get_free_message_handler_index 0x08030d51   Thumb Code    36  aws_iot_mqtt_client_subscribe.o(.text)
    _aws_iot_mqtt_internal_subscribe         0x08030d75   Thumb Code   260  aws_iot_mqtt_client_subscribe.o(.text)
    _aws_iot_mqtt_internal_resubscribe       0x08030eff   Thumb Code   214  aws_iot_mqtt_client_subscribe.o(.text)
    .text                                    0x0803102e   Section        0  aws_iot_mqtt_client_unsubscribe.o(.text)
    _aws_iot_mqtt_serialize_unsubscribe      0x0803102f   Thumb Code   160  aws_iot_mqtt_client_unsubscribe.o(.text)
    _aws_iot_mqtt_deserialize_unsuback       0x080310cf   Thumb Code    48  aws_iot_mqtt_client_unsubscribe.o(.text)
    _aws_iot_mqtt_internal_unsubscribe       0x080310ff   Thumb Code   272  aws_iot_mqtt_client_unsubscribe.o(.text)
    .text                                    0x0803128c   Section        0  aws_iot_mqtt_client_yield.o(.text)
    _aws_iot_mqtt_force_client_disconnect    0x0803128d   Thumb Code    42  aws_iot_mqtt_client_yield.o(.text)
    _aws_iot_mqtt_handle_disconnect          0x080312b7   Thumb Code    72  aws_iot_mqtt_client_yield.o(.text)
    _aws_iot_mqtt_handle_reconnect           0x080312ff   Thumb Code   122  aws_iot_mqtt_client_yield.o(.text)
    _aws_iot_mqtt_keep_alive                 0x08031379   Thumb Code   132  aws_iot_mqtt_client_yield.o(.text)
    _aws_iot_mqtt_internal_yield             0x080313fd   Thumb Code   200  aws_iot_mqtt_client_yield.o(.text)
    .text                                    0x08031544   Section        0  aws_iot_shadow.o(.text)
    .text                                    0x080317ec   Section        0  aws_iot_shadow_actions.o(.text)
    .text                                    0x08031898   Section        0  aws_iot_shadow_json.o(.text)
    emptyJsonWithClientToken                 0x080318a3   Thumb Code    44  aws_iot_shadow_json.o(.text)
    convertDataToString                      0x08031997   Thumb Code   310  aws_iot_shadow_json.o(.text)
    checkReturnValueOfSnPrintf               0x080324a9   Thumb Code    26  aws_iot_shadow_json.o(.text)
    .text                                    0x080324dc   Section        0  aws_iot_shadow_records.o(.text)
    shadow_delta_callback                    0x080324ff   Thumb Code   288  aws_iot_shadow_records.o(.text)
    getNextFreeIndexOfSubscriptionList       0x080326b5   Thumb Code    50  aws_iot_shadow_records.o(.text)
    topicNameFromThingAndAction              0x080326e7   Thumb Code   134  aws_iot_shadow_records.o(.text)
    isAckForMyThingName                      0x0803276d   Thumb Code    52  aws_iot_shadow_records.o(.text)
    findIndexOfSubscriptionList              0x080327a1   Thumb Code    56  aws_iot_shadow_records.o(.text)
    unsubscribeFromAcceptedAndRejected       0x080327d9   Thumb Code   706  aws_iot_shadow_records.o(.text)
    AckStatusCallback                        0x08032a9b   Thumb Code   370  aws_iot_shadow_records.o(.text)
    .text                                    0x080330b4   Section        0  aws_timer.o(.text)
    .text                                    0x08033130   Section        0  net_socket.o(.text)
    net_prepare                              0x08033131   Thumb Code     4  net_socket.o(.text)
    net_would_block                          0x08033235   Thumb Code    40  net_socket.o(.text)
    .text                                    0x080334a0   Section        0  jsmn.o(.text)
    jsmn_alloc_token                         0x080334a1   Thumb Code    42  jsmn.o(.text)
    jsmn_fill_token                          0x080334cb   Thumb Code    14  jsmn.o(.text)
    jsmn_parse_primitive                     0x080334d9   Thumb Code   188  jsmn.o(.text)
    jsmn_parse_string                        0x08033595   Thumb Code   316  jsmn.o(.text)
    .text                                    0x0803393c   Section        0  network_mbedtls_wrapper.o(.text)
    _iot_tls_verify_cert                     0x0803393d   Thumb Code   166  network_mbedtls_wrapper.o(.text)
    .text                                    0x08034578   Section        0  aes.o(.text)
    mbedtls_zeroize                          0x08034579   Thumb Code    22  aes.o(.text)
    .text                                    0x0803560c   Section        0  asn1parse.o(.text)
    mbedtls_zeroize                          0x0803560d   Thumb Code    22  asn1parse.o(.text)
    .text                                    0x08035abc   Section        0  asn1write.o(.text)
    .text                                    0x08036130   Section        0  base64.o(.text)
    .text                                    0x080364a4   Section        0  bignum.o(.text)
    mbedtls_mpi_zeroize                      0x080364a5   Thumb Code    20  bignum.o(.text)
    mbedtls_clz                              0x08036885   Thumb Code    30  bignum.o(.text)
    mpi_get_digit                            0x080368f5   Thumb Code    64  bignum.o(.text)
    mpi_sub_hlp                              0x08036a27   Thumb Code   100  bignum.o(.text)
    mpi_mul_hlp                              0x08036d01   Thumb Code  1584  bignum.o(.text)
    mbedtls_int_div_int                      0x080377ff   Thumb Code   104  bignum.o(.text)
    mpi_write_hlp                            0x08037cf3   Thumb Code   136  bignum.o(.text)
    mpi_montg_init                           0x0803803b   Thumb Code    50  bignum.o(.text)
    mpi_montmul                              0x0803806d   Thumb Code   204  bignum.o(.text)
    mpi_montred                              0x08038139   Thumb Code    44  bignum.o(.text)
    .text                                    0x08038f74   Section        0  ccm.o(.text)
    mbedtls_zeroize                          0x08038f75   Thumb Code    22  ccm.o(.text)
    ccm_auth_crypt                           0x0803900d   Thumb Code   860  ccm.o(.text)
    .text                                    0x08039584   Section        0  cipher.o(.text)
    mbedtls_zeroize                          0x08039585   Thumb Code    22  cipher.o(.text)
    get_no_padding                           0x08039669   Thumb Code    16  cipher.o(.text)
    get_pkcs_padding                         0x08039679   Thumb Code   102  cipher.o(.text)
    add_pkcs_padding                         0x080396df   Thumb Code    24  cipher.o(.text)
    mbedtls_cipher_get_block_size            0x08039d43   Thumb Code    18  cipher.o(.text)
    .text                                    0x08039d60   Section        0  cipher_wrap.o(.text)
    gcm_ctx_alloc                            0x08039d61   Thumb Code    28  cipher_wrap.o(.text)
    gcm_ctx_free                             0x08039d7d   Thumb Code    20  cipher_wrap.o(.text)
    ccm_ctx_alloc                            0x08039d91   Thumb Code    26  cipher_wrap.o(.text)
    ccm_ctx_free                             0x08039dab   Thumb Code    20  cipher_wrap.o(.text)
    aes_crypt_ecb_wrap                       0x08039dbf   Thumb Code    28  cipher_wrap.o(.text)
    aes_crypt_cbc_wrap                       0x08039ddb   Thumb Code    36  cipher_wrap.o(.text)
    aes_setkey_dec_wrap                      0x08039dff   Thumb Code    20  cipher_wrap.o(.text)
    aes_setkey_enc_wrap                      0x08039e13   Thumb Code    20  cipher_wrap.o(.text)
    aes_ctx_alloc                            0x08039e27   Thumb Code    32  cipher_wrap.o(.text)
    aes_ctx_free                             0x08039e47   Thumb Code    20  cipher_wrap.o(.text)
    gcm_aes_setkey_wrap                      0x08039e5b   Thumb Code    22  cipher_wrap.o(.text)
    ccm_aes_setkey_wrap                      0x08039e71   Thumb Code    22  cipher_wrap.o(.text)
    .text                                    0x08039e90   Section        0  ctr_drbg.o(.text)
    mbedtls_zeroize                          0x08039e91   Thumb Code    22  ctr_drbg.o(.text)
    ctr_drbg_update_internal                 0x08039eb7   Thumb Code   132  ctr_drbg.o(.text)
    block_cipher_df                          0x08039f3b   Thumb Code   292  ctr_drbg.o(.text)
    ctr_drbg_self_test_entropy               0x0803a2a7   Thumb Code    42  ctr_drbg.o(.text)
    .text                                    0x0803a488   Section        0  debug.o(.text)
    debug_send_line                          0x0803a48f   Thumb Code    38  debug.o(.text)
    debug_print_pk                           0x0803a92f   Thumb Code   222  debug.o(.text)
    debug_print_line_by_line                 0x0803aa0d   Thumb Code    96  debug.o(.text)
    .text                                    0x0803ab58   Section        0  ecdh.o(.text)
    .text                                    0x0803ae5c   Section        0  ecdsa.o(.text)
    derive_mpi                               0x0803ae5d   Thumb Code   132  ecdsa.o(.text)
    ecdsa_signature_to_asn1                  0x0803b2f1   Thumb Code   140  ecdsa.o(.text)
    .text                                    0x0803b548   Section        0  ecp.o(.text)
    mbedtls_zeroize                          0x0803b549   Thumb Code    22  ecp.o(.text)
    ecp_get_type                             0x0803b601   Thumb Code    22  ecp.o(.text)
    ecp_modp                                 0x0803baf1   Thumb Code   152  ecp.o(.text)
    ecp_normalize_jac                        0x0803bb89   Thumb Code   314  ecp.o(.text)
    ecp_normalize_jac_many                   0x0803bcc3   Thumb Code   780  ecp.o(.text)
    ecp_safe_invert_jac                      0x0803bfcf   Thumb Code   100  ecp.o(.text)
    ecp_double_jac                           0x0803c033   Thumb Code  1534  ecp.o(.text)
    ecp_add_mixed                            0x0803c631   Thumb Code  1378  ecp.o(.text)
    ecp_randomize_jac                        0x0803cb93   Thumb Code   434  ecp.o(.text)
    ecp_comb_fixed                           0x0803cd45   Thumb Code   150  ecp.o(.text)
    ecp_precompute_comb                      0x0803cddb   Thumb Code   294  ecp.o(.text)
    ecp_select_comb                          0x0803cf01   Thumb Code   146  ecp.o(.text)
    ecp_mul_comb_core                        0x0803cf93   Thumb Code   202  ecp.o(.text)
    ecp_mul_comb                             0x0803d05d   Thumb Code   486  ecp.o(.text)
    ecp_normalize_mxz                        0x0803d243   Thumb Code   108  ecp.o(.text)
    ecp_randomize_mxz                        0x0803d2af   Thumb Code   248  ecp.o(.text)
    ecp_double_add_mxz                       0x0803d3a7   Thumb Code  1240  ecp.o(.text)
    ecp_mul_mxz                              0x0803d87f   Thumb Code   388  ecp.o(.text)
    ecp_check_pubkey_sw                      0x0803da03   Thumb Code   444  ecp.o(.text)
    ecp_check_pubkey_mx                      0x0803dbbf   Thumb Code    30  ecp.o(.text)
    mbedtls_ecp_mul_shortcuts                0x0803dd15   Thumb Code   140  ecp.o(.text)
    .text                                    0x0803e3ac   Section        0  ecp_curves.o(.text)
    ecp_group_load                           0x0803e3ad   Thumb Code   136  ecp_curves.o(.text)
    ecp_use_curve25519                       0x0803e435   Thumb Code   156  ecp_curves.o(.text)
    ecp_mod_p255                             0x0803e4d1   Thumb Code   174  ecp_curves.o(.text)
    fix_negative                             0x0803e57f   Thumb Code    58  ecp_curves.o(.text)
    sub32                                    0x0803e5b9   Thumb Code    32  ecp_curves.o(.text)
    add32                                    0x0803e5d9   Thumb Code    32  ecp_curves.o(.text)
    ecp_mod_p384                             0x0803e5f9   Thumb Code  1538  ecp_curves.o(.text)
    ecp_mod_p256                             0x0803ebfb   Thumb Code  1184  ecp_curves.o(.text)
    ecp_mpi_load                             0x0803f131   Thumb Code    12  ecp_curves.o(.text)
    .text                                    0x0803f174   Section        0  entropy.o(.text)
    mbedtls_zeroize                          0x0803f175   Thumb Code    22  entropy.o(.text)
    entropy_update                           0x0803f21b   Thumb Code    76  entropy.o(.text)
    entropy_gather_internal                  0x0803f285   Thumb Code   168  entropy.o(.text)
    entropy_dummy_source                     0x0803f425   Thumb Code    30  entropy.o(.text)
    mbedtls_entropy_source_self_test_gather  0x0803f443   Thumb Code    70  entropy.o(.text)
    mbedtls_entropy_source_self_test_check_bits 0x0803f489   Thumb Code    42  entropy.o(.text)
    .text                                    0x0803f670   Section        0  gcm.o(.text)
    mbedtls_zeroize                          0x0803f671   Thumb Code    22  gcm.o(.text)
    gcm_gen_table                            0x0803f697   Thumb Code   404  gcm.o(.text)
    gcm_mult                                 0x0803f89b   Thumb Code   448  gcm.o(.text)
    .text                                    0x08040478   Section        0  hmac_drbg.o(.text)
    mbedtls_zeroize                          0x08040479   Thumb Code    22  hmac_drbg.o(.text)
    hmac_drbg_self_test_entropy              0x0804078d   Thumb Code    42  hmac_drbg.o(.text)
    .text                                    0x08040974   Section        0  md.o(.text)
    mbedtls_zeroize                          0x08040975   Thumb Code    22  md.o(.text)
    .text                                    0x08040db0   Section        0  md_wrap.o(.text)
    sha1_starts_wrap                         0x08040db1   Thumb Code    12  md_wrap.o(.text)
    sha1_update_wrap                         0x08040dbd   Thumb Code    20  md_wrap.o(.text)
    sha1_finish_wrap                         0x08040dd1   Thumb Code    16  md_wrap.o(.text)
    sha1_ctx_alloc                           0x08040de1   Thumb Code    26  md_wrap.o(.text)
    sha1_clone_wrap                          0x08040dfb   Thumb Code    16  md_wrap.o(.text)
    sha1_ctx_free                            0x08040e0b   Thumb Code    20  md_wrap.o(.text)
    sha1_process_wrap                        0x08040e1f   Thumb Code    16  md_wrap.o(.text)
    sha224_starts_wrap                       0x08040e2f   Thumb Code    14  md_wrap.o(.text)
    sha224_update_wrap                       0x08040e3d   Thumb Code    20  md_wrap.o(.text)
    sha224_finish_wrap                       0x08040e51   Thumb Code    16  md_wrap.o(.text)
    sha224_wrap                              0x08040e61   Thumb Code    22  md_wrap.o(.text)
    sha224_ctx_alloc                         0x08040e77   Thumb Code    26  md_wrap.o(.text)
    sha224_ctx_free                          0x08040e91   Thumb Code    20  md_wrap.o(.text)
    sha224_clone_wrap                        0x08040ea5   Thumb Code    16  md_wrap.o(.text)
    sha224_process_wrap                      0x08040eb5   Thumb Code    16  md_wrap.o(.text)
    sha256_starts_wrap                       0x08040ec5   Thumb Code    14  md_wrap.o(.text)
    sha256_wrap                              0x08040ed3   Thumb Code    22  md_wrap.o(.text)
    sha384_starts_wrap                       0x08040ee9   Thumb Code    14  md_wrap.o(.text)
    sha384_update_wrap                       0x08040ef7   Thumb Code    20  md_wrap.o(.text)
    sha384_finish_wrap                       0x08040f0b   Thumb Code    16  md_wrap.o(.text)
    sha384_wrap                              0x08040f1b   Thumb Code    22  md_wrap.o(.text)
    sha384_ctx_alloc                         0x08040f31   Thumb Code    26  md_wrap.o(.text)
    sha384_ctx_free                          0x08040f4b   Thumb Code    20  md_wrap.o(.text)
    sha384_clone_wrap                        0x08040f5f   Thumb Code    16  md_wrap.o(.text)
    sha384_process_wrap                      0x08040f6f   Thumb Code    16  md_wrap.o(.text)
    sha512_starts_wrap                       0x08040f7f   Thumb Code    14  md_wrap.o(.text)
    sha512_wrap                              0x08040f8d   Thumb Code    22  md_wrap.o(.text)
    .text                                    0x08040fac   Section        0  memory_buffer_alloc.o(.text)
    mbedtls_zeroize                          0x08040fad   Thumb Code    22  memory_buffer_alloc.o(.text)
    debug_header                             0x08040fc3   Thumb Code    42  memory_buffer_alloc.o(.text)
    debug_chain                              0x08040fed   Thumb Code    56  memory_buffer_alloc.o(.text)
    verify_header                            0x08041025   Thumb Code   114  memory_buffer_alloc.o(.text)
    verify_chain                             0x08041097   Thumb Code   104  memory_buffer_alloc.o(.text)
    buffer_alloc_calloc                      0x080410ff   Thumb Code   420  memory_buffer_alloc.o(.text)
    buffer_alloc_free                        0x080412a3   Thumb Code   924  memory_buffer_alloc.o(.text)
    check_pointer                            0x0804173b   Thumb Code    26  memory_buffer_alloc.o(.text)
    check_all_free                           0x08041755   Thumb Code    40  memory_buffer_alloc.o(.text)
    .text                                    0x08041acc   Section        0  oid.o(.text)
    oid_x520_attr_from_asn1                  0x08041acd   Thumb Code    56  oid.o(.text)
    oid_x509_ext_from_asn1                   0x08041b23   Thumb Code    56  oid.o(.text)
    oid_ext_key_usage_from_asn1              0x08041b79   Thumb Code    56  oid.o(.text)
    oid_sig_alg_from_asn1                    0x08041bcf   Thumb Code    56  oid.o(.text)
    oid_pk_alg_from_asn1                     0x08041c7d   Thumb Code    56  oid.o(.text)
    oid_grp_id_from_asn1                     0x08041cfd   Thumb Code    56  oid.o(.text)
    oid_cipher_alg_from_asn1                 0x08041d7d   Thumb Code    56  oid.o(.text)
    oid_md_alg_from_asn1                     0x08041dd3   Thumb Code    56  oid.o(.text)
    .text                                    0x08041f3c   Section        0  pem.o(.text)
    mbedtls_zeroize                          0x08041f3d   Thumb Code    22  pem.o(.text)
    .text                                    0x080420d0   Section        0  pk.o(.text)
    mbedtls_zeroize                          0x080420e9   Thumb Code    22  pk.o(.text)
    pk_hashlen_helper                        0x080421d7   Thumb Code    40  pk.o(.text)
    mbedtls_pk_get_len                       0x08042467   Thumb Code    16  pk.o(.text)
    .text                                    0x080424a8   Section        0  pk_wrap.o(.text)
    mbedtls_zeroize                          0x080424a9   Thumb Code    22  pk_wrap.o(.text)
    rsa_can_do                               0x080424bf   Thumb Code    18  pk_wrap.o(.text)
    rsa_get_bitlen                           0x080424d1   Thumb Code     8  pk_wrap.o(.text)
    rsa_verify_wrap                          0x080424d9   Thumb Code    74  pk_wrap.o(.text)
    rsa_sign_wrap                            0x08042523   Thumb Code    52  pk_wrap.o(.text)
    rsa_decrypt_wrap                         0x08042557   Thumb Code    56  pk_wrap.o(.text)
    rsa_encrypt_wrap                         0x0804258f   Thumb Code    62  pk_wrap.o(.text)
    rsa_check_pair_wrap                      0x080425cd   Thumb Code    16  pk_wrap.o(.text)
    rsa_alloc_wrap                           0x080425dd   Thumb Code    30  pk_wrap.o(.text)
    rsa_free_wrap                            0x080425fb   Thumb Code    20  pk_wrap.o(.text)
    rsa_debug                                0x0804260f   Thumb Code    32  pk_wrap.o(.text)
    eckey_can_do                             0x0804262f   Thumb Code    22  pk_wrap.o(.text)
    eckey_get_bitlen                         0x08042645   Thumb Code     6  pk_wrap.o(.text)
    ecdsa_verify_wrap                        0x0804264b   Thumb Code    50  pk_wrap.o(.text)
    eckey_verify_wrap                        0x0804267d   Thumb Code    70  pk_wrap.o(.text)
    ecdsa_sign_wrap                          0x080426c3   Thumb Code    42  pk_wrap.o(.text)
    eckey_sign_wrap                          0x080426ed   Thumb Code    72  pk_wrap.o(.text)
    eckey_check_pair                         0x08042735   Thumb Code    16  pk_wrap.o(.text)
    eckey_alloc_wrap                         0x08042745   Thumb Code    26  pk_wrap.o(.text)
    eckey_free_wrap                          0x0804275f   Thumb Code    20  pk_wrap.o(.text)
    eckey_debug                              0x08042773   Thumb Code    16  pk_wrap.o(.text)
    eckeydh_can_do                           0x08042783   Thumb Code    18  pk_wrap.o(.text)
    ecdsa_can_do                             0x08042795   Thumb Code    14  pk_wrap.o(.text)
    ecdsa_alloc_wrap                         0x080427a3   Thumb Code    26  pk_wrap.o(.text)
    ecdsa_free_wrap                          0x080427bd   Thumb Code    20  pk_wrap.o(.text)
    rsa_alt_can_do                           0x080427d1   Thumb Code    12  pk_wrap.o(.text)
    rsa_alt_get_bitlen                       0x080427dd   Thumb Code    16  pk_wrap.o(.text)
    rsa_alt_sign_wrap                        0x080427ed   Thumb Code    60  pk_wrap.o(.text)
    rsa_alt_decrypt_wrap                     0x08042829   Thumb Code    56  pk_wrap.o(.text)
    rsa_alt_check_pair                       0x08042861   Thumb Code   164  pk_wrap.o(.text)
    rsa_alt_alloc_wrap                       0x08042905   Thumb Code    28  pk_wrap.o(.text)
    rsa_alt_free_wrap                        0x08042921   Thumb Code    22  pk_wrap.o(.text)
    .text                                    0x08042940   Section        0  pkparse.o(.text)
    pk_get_ecparams                          0x08042941   Thumb Code    78  pkparse.o(.text)
    pk_use_ecparams                          0x0804298f   Thumb Code    74  pkparse.o(.text)
    pk_get_ecpubkey                          0x080429d9   Thumb Code    50  pkparse.o(.text)
    pk_get_rsapubkey                         0x08042a0b   Thumb Code   122  pkparse.o(.text)
    pk_get_pk_alg                            0x08042a85   Thumb Code    92  pkparse.o(.text)
    pk_parse_key_pkcs1_der                   0x08042be9   Thumb Code   272  pkparse.o(.text)
    pk_parse_key_sec1_der                    0x08042cf9   Thumb Code   422  pkparse.o(.text)
    pk_parse_key_pkcs8_unencrypted_der       0x08042e9f   Thumb Code   300  pkparse.o(.text)
    .text                                    0x08043350   Section        0  platform.o(.text)
    platform_exit_uninit                     0x0804335f   Thumb Code     2  platform.o(.text)
    .text                                    0x08043380   Section        0  rsa.o(.text)
    mbedtls_zeroize                          0x08043381   Thumb Code    22  rsa.o(.text)
    rsa_prepare_blinding                     0x0804371d   Thumb Code   276  rsa.o(.text)
    mgf_mask                                 0x08043ae1   Thumb Code   138  rsa.o(.text)
    myrand                                   0x08044c05   Thumb Code    36  rsa.o(.text)
    .text                                    0x08044f04   Section        0  sha1.o(.text)
    mbedtls_zeroize                          0x08044f05   Thumb Code    22  sha1.o(.text)
    .text                                    0x08046b20   Section        0  sha256.o(.text)
    mbedtls_zeroize                          0x08046b21   Thumb Code    22  sha256.o(.text)
    .text                                    0x08047d34   Section        0  sha512.o(.text)
    mbedtls_zeroize                          0x08047d35   Thumb Code    22  sha512.o(.text)
    .text                                    0x080492f0   Section        0  ssl_ciphersuites.o(.text)
    .text                                    0x08049458   Section        0  ssl_cli.o(.text)
    mbedtls_ssl_own_key                      0x08049459   Thumb Code    36  ssl_cli.o(.text)
    mbedtls_ssl_safer_memcmp                 0x0804947d   Thumb Code    36  ssl_cli.o(.text)
    mbedtls_zeroize                          0x080494a1   Thumb Code    22  ssl_cli.o(.text)
    ssl_write_hostname_ext                   0x080494b7   Thumb Code   176  ssl_cli.o(.text)
    ssl_write_renegotiation_ext              0x08049567   Thumb Code   146  ssl_cli.o(.text)
    ssl_write_signature_algorithms_ext       0x080495f9   Thumb Code   220  ssl_cli.o(.text)
    ssl_write_supported_elliptic_curves_ext  0x080496d5   Thumb Code   232  ssl_cli.o(.text)
    ssl_write_supported_point_formats_ext    0x080497bd   Thumb Code   120  ssl_cli.o(.text)
    ssl_write_max_fragment_length_ext        0x08049835   Thumb Code   562  ssl_cli.o(.text)
    ssl_write_encrypt_then_mac_ext           0x08049a67   Thumb Code   134  ssl_cli.o(.text)
    ssl_write_extended_ms_ext                0x08049aed   Thumb Code   134  ssl_cli.o(.text)
    ssl_write_session_ticket_ext             0x08049b73   Thumb Code   182  ssl_cli.o(.text)
    ssl_write_alpn_ext                       0x08049c29   Thumb Code   218  ssl_cli.o(.text)
    ssl_generate_random                      0x08049d03   Thumb Code   108  ssl_cli.o(.text)
    ssl_write_client_hello                   0x08049d6f   Thumb Code  1606  ssl_cli.o(.text)
    ssl_parse_renegotiation_info             0x0804a3b5   Thumb Code   622  ssl_cli.o(.text)
    ssl_parse_max_fragment_length_ext        0x0804a623   Thumb Code    78  ssl_cli.o(.text)
    ssl_parse_encrypt_then_mac_ext           0x0804a671   Thumb Code    70  ssl_cli.o(.text)
    ssl_parse_extended_ms_ext                0x0804a6b7   Thumb Code    74  ssl_cli.o(.text)
    ssl_parse_session_ticket_ext             0x0804a701   Thumb Code    68  ssl_cli.o(.text)
    ssl_parse_supported_point_formats_ext    0x0804a745   Thumb Code   146  ssl_cli.o(.text)
    ssl_parse_alpn_ext                       0x0804a7d7   Thumb Code   206  ssl_cli.o(.text)
    ssl_parse_hello_verify_request           0x0804a8a5   Thumb Code   338  ssl_cli.o(.text)
    ssl_parse_server_hello                   0x0804a9f7   Thumb Code  3750  ssl_cli.o(.text)
    ssl_check_server_ecdh_params             0x0804b89d   Thumb Code   106  ssl_cli.o(.text)
    ssl_parse_server_ecdh_params             0x0804b907   Thumb Code    88  ssl_cli.o(.text)
    ssl_parse_server_psk_hint                0x0804b95f   Thumb Code    78  ssl_cli.o(.text)
    ssl_parse_signature_algorithm            0x0804b9ad   Thumb Code   226  ssl_cli.o(.text)
    ssl_parse_server_key_exchange            0x0804ba8f   Thumb Code  1644  ssl_cli.o(.text)
    ssl_parse_certificate_request            0x0804c0fb   Thumb Code   918  ssl_cli.o(.text)
    ssl_parse_server_hello_done              0x0804c491   Thumb Code   184  ssl_cli.o(.text)
    ssl_write_client_key_exchange            0x0804c549   Thumb Code   634  ssl_cli.o(.text)
    ssl_write_certificate_verify             0x0804c7c3   Thumb Code   972  ssl_cli.o(.text)
    ssl_parse_new_session_ticket             0x0804cb8f   Thumb Code   430  ssl_cli.o(.text)
    mbedtls_ssl_hs_hdr_len                   0x0804cff9   Thumb Code    22  ssl_cli.o(.text)
    .text                                    0x0804d03c   Section        0  ssl_tls.o(.text)
    mbedtls_ssl_own_cert                     0x0804d043   Thumb Code    36  ssl_tls.o(.text)
    mbedtls_ssl_safer_memcmp                 0x0804d067   Thumb Code    36  ssl_tls.o(.text)
    mbedtls_zeroize                          0x0804d08b   Thumb Code    22  ssl_tls.o(.text)
    ssl_set_timer                            0x0804d0a1   Thumb Code    44  ssl_tls.o(.text)
    ssl_check_timer                          0x0804d0cd   Thumb Code    48  ssl_tls.o(.text)
    ssl_double_retransmit_timeout            0x0804d0fd   Thumb Code    94  ssl_tls.o(.text)
    ssl_reset_retransmit_timeout             0x0804d15b   Thumb Code    40  ssl_tls.o(.text)
    ssl_session_copy                         0x0804d1b1   Thumb Code   126  ssl_tls.o(.text)
    tls_prf_generic                          0x0804d22f   Thumb Code   278  ssl_tls.o(.text)
    tls_prf_sha256                           0x0804d345   Thumb Code    42  ssl_tls.o(.text)
    tls_prf_sha384                           0x0804d36f   Thumb Code    42  ssl_tls.o(.text)
    ssl_calc_finished_tls_sha256             0x0804d399   Thumb Code   190  ssl_tls.o(.text)
    ssl_calc_verify_tls_sha256               0x0804d457   Thumb Code   412  ssl_tls.o(.text)
    ssl_calc_finished_tls_sha384             0x0804d5f3   Thumb Code   206  ssl_tls.o(.text)
    ssl_calc_verify_tls_sha384               0x0804d6c1   Thumb Code   110  ssl_tls.o(.text)
    ssl_encrypt_buf                          0x0804e10f   Thumb Code  1844  ssl_tls.o(.text)
    ssl_decrypt_buf                          0x0804e843   Thumb Code  2874  ssl_tls.o(.text)
    ssl_flight_append                        0x0804f4bd   Thumb Code   164  ssl_tls.o(.text)
    ssl_swap_epochs                          0x0804f95d   Thumb Code   158  ssl_tls.o(.text)
    ssl_flight_free                          0x08050025   Thumb Code    34  ssl_tls.o(.text)
    ssl_bitmask_set                          0x080500d1   Thumb Code   140  ssl_tls.o(.text)
    ssl_bitmask_check                        0x0805015d   Thumb Code    72  ssl_tls.o(.text)
    ssl_reassemble_dtls_handshake            0x080501a5   Thumb Code   976  ssl_tls.o(.text)
    ssl_dtls_replay_reset                    0x08050755   Thumb Code    16  ssl_tls.o(.text)
    ssl_load_six_bytes                       0x08050765   Thumb Code   642  ssl_tls.o(.text)
    ssl_parse_record_header                  0x08050bcb   Thumb Code   582  ssl_tls.o(.text)
    ssl_prepare_record_content               0x08050e11   Thumb Code   162  ssl_tls.o(.text)
    ssl_handshake_wrapup_free_hs_transform   0x08051251   Thumb Code    86  ssl_tls.o(.text)
    ssl_update_checksum_sha256               0x080522fb   Thumb Code    24  ssl_tls.o(.text)
    ssl_update_checksum_sha384               0x08052313   Thumb Code    24  ssl_tls.o(.text)
    ssl_update_checksum_start                0x08052387   Thumb Code    38  ssl_tls.o(.text)
    ssl_handshake_params_init                0x08052933   Thumb Code    82  ssl_tls.o(.text)
    ssl_transform_init                       0x08052985   Thumb Code    46  ssl_tls.o(.text)
    ssl_handshake_init                       0x080529c1   Thumb Code   234  ssl_tls.o(.text)
    ssl_session_reset_int                    0x08052c77   Thumb Code   212  ssl_tls.o(.text)
    ssl_append_key_cert                      0x08052e41   Thumb Code    66  ssl_tls.o(.text)
    ssl_start_renegotiation                  0x08053301   Thumb Code   334  ssl_tls.o(.text)
    ssl_check_ctr_renegotiate                0x080534bd   Thumb Code   120  ssl_tls.o(.text)
    ssl_write_real                           0x080539c3   Thumb Code   162  ssl_tls.o(.text)
    ssl_key_cert_free                        0x08053b6d   Thumb Code    26  ssl_tls.o(.text)
    mbedtls_cipher_get_cipher_mode           0x08053f95   Thumb Code    18  ssl_tls.o(.text)
    mbedtls_ssl_hdr_len                      0x08053fa7   Thumb Code    22  ssl_tls.o(.text)
    mbedtls_ssl_hs_hdr_len                   0x08053fbd   Thumb Code    22  ssl_tls.o(.text)
    ssl_ep_len                               0x08053fd3   Thumb Code    22  ssl_tls.o(.text)
    .text                                    0x08053ff4   Section        0  x509.o(.text)
    x509_get_attr_type_value                 0x0805409f   Thumb Code   226  x509.o(.text)
    x509_parse_int                           0x08054209   Thumb Code    68  x509.o(.text)
    x509_date_is_valid                       0x0805424d   Thumb Code   206  x509.o(.text)
    x509_parse_time                          0x0805431b   Thumb Code   264  x509.o(.text)
    .text                                    0x08054920   Section        0  x509_crt.o(.text)
    mbedtls_zeroize                          0x08054921   Thumb Code    22  x509_crt.o(.text)
    x509_profile_check_md_alg                0x08054937   Thumb Code    26  x509_crt.o(.text)
    x509_profile_check_pk_alg                0x08054951   Thumb Code    26  x509_crt.o(.text)
    x509_profile_check_key                   0x0805496b   Thumb Code    90  x509_crt.o(.text)
    x509_get_version                         0x080549c5   Thumb Code    80  x509_crt.o(.text)
    x509_get_dates                           0x08054a15   Thumb Code    92  x509_crt.o(.text)
    x509_get_uid                             0x08054a71   Thumb Code    78  x509_crt.o(.text)
    x509_get_basic_constraints               0x08054abf   Thumb Code   156  x509_crt.o(.text)
    x509_get_ns_cert_type                    0x08054b5b   Thumb Code    58  x509_crt.o(.text)
    x509_get_key_usage                       0x08054b95   Thumb Code    90  x509_crt.o(.text)
    x509_get_ext_key_usage                   0x08054bef   Thumb Code    48  x509_crt.o(.text)
    x509_get_subject_alt_name                0x08054c1f   Thumb Code   218  x509_crt.o(.text)
    x509_get_crt_ext                         0x08054cf9   Thumb Code   460  x509_crt.o(.text)
    x509_crt_parse_der_core                  0x08054f99   Thumb Code   826  x509_crt.o(.text)
    x509_info_subject_alt_name               0x08055465   Thumb Code   110  x509_crt.o(.text)
    x509_info_cert_type                      0x080554d3   Thumb Code   388  x509_crt.o(.text)
    x509_info_key_usage                      0x08055657   Thumb Code   676  x509_crt.o(.text)
    x509_info_ext_key_usage                  0x080558fb   Thumb Code   102  x509_crt.o(.text)
    x509_crt_verifycrl                       0x08056107   Thumb Code   530  x509_crt.o(.text)
    x509_memcasecmp                          0x08056319   Thumb Code    76  x509_crt.o(.text)
    x509_check_wildcard                      0x08056365   Thumb Code   114  x509_crt.o(.text)
    x509_string_cmp                          0x080563d7   Thumb Code    92  x509_crt.o(.text)
    x509_name_cmp                            0x08056433   Thumb Code   102  x509_crt.o(.text)
    x509_crt_check_parent                    0x08056499   Thumb Code   112  x509_crt.o(.text)
    x509_crt_verify_top                      0x08056509   Thumb Code   496  x509_crt.o(.text)
    x509_crt_verify_child                    0x080566f9   Thumb Code   548  x509_crt.o(.text)
    .text                                    0x08056b78   Section        0  lwip_api_lib.o(.text)
    netconn_apimsg                           0x08056b79   Thumb Code    38  lwip_api_lib.o(.text)
    netconn_close_shutdown                   0x08056e85   Thumb Code    60  lwip_api_lib.o(.text)
    netconn_recv_data                        0x08056ec1   Thumb Code   966  lwip_api_lib.o(.text)
    .text                                    0x08057688   Section        0  lwip_api_msg.o(.text)
    recv_udp                                 0x08057689   Thumb Code   184  lwip_api_msg.o(.text)
    recv_tcp                                 0x08057741   Thumb Code   194  lwip_api_msg.o(.text)
    err_tcp                                  0x08057803   Thumb Code   344  lwip_api_msg.o(.text)
    lwip_netconn_do_writemore                0x0805795b   Thumb Code  1044  lwip_api_msg.o(.text)
    sent_tcp                                 0x08057d6f   Thumb Code   124  lwip_api_msg.o(.text)
    lwip_netconn_do_close_internal           0x08057deb   Thumb Code   778  lwip_api_msg.o(.text)
    poll_tcp                                 0x080580f5   Thumb Code   148  lwip_api_msg.o(.text)
    setup_tcp                                0x08058189   Thumb Code    50  lwip_api_msg.o(.text)
    accept_function                          0x080582cf   Thumb Code   244  lwip_api_msg.o(.text)
    pcb_new                                  0x080583c3   Thumb Code   136  lwip_api_msg.o(.text)
    netconn_drain                            0x0805848b   Thumb Code   462  lwip_api_msg.o(.text)
    lwip_netconn_do_connected                0x08058865   Thumb Code   246  lwip_api_msg.o(.text)
    lwip_netconn_do_dns_found                0x08059183   Thumb Code    44  lwip_api_msg.o(.text)
    .text                                    0x08059200   Section        0  lwip_err.o(.text)
    .text                                    0x0805924c   Section        0  lwip_netbuf.o(.text)
    .text                                    0x080595dc   Section        0  lwip_netdb.o(.text)
    .text                                    0x0805992c   Section        0  lwip_sockets.o(.text)
    get_socket                               0x08059931   Thumb Code    66  lwip_sockets.o(.text)
    tryget_socket                            0x08059973   Thumb Code    44  lwip_sockets.o(.text)
    alloc_socket                             0x0805999f   Thumb Code   172  lwip_sockets.o(.text)
    free_socket                              0x08059a4b   Thumb Code    60  lwip_sockets.o(.text)
    event_callback                           0x08059a87   Thumb Code   432  lwip_sockets.o(.text)
    lwip_socket_drop_registered_memberships  0x08059f99   Thumb Code   114  lwip_sockets.o(.text)
    lwip_selscan                             0x0805ac29   Thumb Code   660  lwip_sockets.o(.text)
    lwip_getaddrname                         0x0805b375   Thumb Code   174  lwip_sockets.o(.text)
    lwip_getsockopt_impl                     0x0805b4ab   Thumb Code  1092  lwip_sockets.o(.text)
    lwip_socket_unregister_membership        0x0805b965   Thumb Code   120  lwip_sockets.o(.text)
    lwip_socket_register_membership          0x0805b9dd   Thumb Code   106  lwip_sockets.o(.text)
    lwip_setsockopt_impl                     0x0805ba47   Thumb Code  1046  lwip_sockets.o(.text)
    .text                                    0x0805c020   Section        0  lwip_tcpip.o(.text)
    tcpip_thread                             0x0805c021   Thumb Code   172  lwip_tcpip.o(.text)
    pbuf_free_int                            0x0805c28b   Thumb Code    14  lwip_tcpip.o(.text)
    .text                                    0x0805c3a0   Section        0  lwip_net_socket.o(.text)
    net_prepare                              0x0805c3a1   Thumb Code     4  lwip_net_socket.o(.text)
    net_would_block                          0x0805c489   Thumb Code    40  lwip_net_socket.o(.text)
    .text                                    0x0805c654   Section        0  lwip_sys_arch.o(.text)
    .text                                    0x0805ca2c   Section        0  lwip_def.o(.text)
    .text                                    0x0805cb84   Section        0  lwip_dns.o(.text)
    dns_call_found                           0x0805cbc1   Thumb Code   252  lwip_dns.o(.text)
    dns_send                                 0x0805ccbd   Thumb Code   326  lwip_dns.o(.text)
    dns_create_txid                          0x0805ce03   Thumb Code    58  lwip_dns.o(.text)
    dns_check_entry                          0x0805ce3d   Thumb Code   234  lwip_dns.o(.text)
    dns_check_entries                        0x0805cf27   Thumb Code    22  lwip_dns.o(.text)
    dns_lookup                               0x0805cf49   Thumb Code   274  lwip_dns.o(.text)
    dns_compare_name                         0x0805d05b   Thumb Code   140  lwip_dns.o(.text)
    dns_skip_name                            0x0805d0e7   Thumb Code    98  lwip_dns.o(.text)
    dns_correct_response                     0x0805d149   Thumb Code    70  lwip_dns.o(.text)
    dns_recv                                 0x0805d18f   Thumb Code   482  lwip_dns.o(.text)
    dns_alloc_random_port                    0x0805d371   Thumb Code    84  lwip_dns.o(.text)
    dns_alloc_pcb                            0x0805d3c5   Thumb Code   136  lwip_dns.o(.text)
    dns_enqueue                              0x0805d44d   Thumb Code   410  lwip_dns.o(.text)
    .text                                    0x0805d680   Section        0  lwip_inet_chksum.o(.text)
    inet_cksum_pseudo_base                   0x0805d6c9   Thumb Code   134  lwip_inet_chksum.o(.text)
    inet_cksum_pseudo_partial_base           0x0805d7bf   Thumb Code   174  lwip_inet_chksum.o(.text)
    .text                                    0x0805d95c   Section        0  lwip_init.o(.text)
    .text                                    0x0805d9ec   Section        0  lwip_mem.o(.text)
    plug_holes                               0x0805d9ed   Thumb Code   202  lwip_mem.o(.text)
    .text                                    0x0805e16c   Section        0  lwip_memp.o(.text)
    memp_sanity                              0x0805e16d   Thumb Code    46  lwip_memp.o(.text)
    memp_overflow_check_element_overflow     0x0805e19b   Thumb Code    72  lwip_memp.o(.text)
    memp_overflow_check_element_underflow    0x0805e1e3   Thumb Code    70  lwip_memp.o(.text)
    memp_overflow_init_element               0x0805e229   Thumb Code    40  lwip_memp.o(.text)
    do_memp_malloc_pool_fn                   0x0805e2c3   Thumb Code   144  lwip_memp.o(.text)
    do_memp_free_pool                        0x0805e3b7   Thumb Code   110  lwip_memp.o(.text)
    .text                                    0x0805e56c   Section        0  lwip_netif.o(.text)
    netif_issue_reports                      0x0805e57f   Thumb Code    34  lwip_netif.o(.text)
    .text                                    0x0805e928   Section        0  lwip_pbuf.o(.text)
    pbuf_header_impl                         0x0805eff5   Thumb Code   210  lwip_pbuf.o(.text)
    pbuf_skip_const                          0x0805f5d9   Thumb Code    34  lwip_pbuf.o(.text)
    .text                                    0x0805fa5c   Section        0  lwip_stats.o(.text)
    .text                                    0x0805fd38   Section        0  lwip_tcp.o(.text)
    tcp_close_shutdown_fin                   0x08060323   Thumb Code   120  lwip_tcp.o(.text)
    tcp_remove_listener                      0x08060437   Thumb Code    24  lwip_tcp.o(.text)
    tcp_listen_closed                        0x0806044f   Thumb Code    70  lwip_tcp.o(.text)
    tcp_close_shutdown                       0x08060495   Thumb Code   354  lwip_tcp.o(.text)
    tcp_new_port                             0x08060ae7   Thumb Code    96  lwip_tcp.o(.text)
    tcp_accept_null                          0x08060cdd   Thumb Code    20  lwip_tcp.o(.text)
    tcp_kill_prio                            0x08061005   Thumb Code   232  lwip_tcp.o(.text)
    tcp_kill_state                           0x080610ed   Thumb Code    94  lwip_tcp.o(.text)
    tcp_kill_timewait                        0x0806114b   Thumb Code    54  lwip_tcp.o(.text)
    tcp_netif_ip_addr_changed_pcblist        0x0806136b   Thumb Code    46  lwip_tcp.o(.text)
    .text                                    0x080614bc   Section        0  lwip_tcp_in.o(.text)
    tcp_receive                              0x080614bd   Thumb Code  1992  lwip_tcp_in.o(.text)
    tcp_getoptbyte                           0x08061c85   Thumb Code    70  lwip_tcp_in.o(.text)
    tcp_parseopt                             0x08061ccb   Thumb Code   374  lwip_tcp_in.o(.text)
    tcp_process                              0x08061e41   Thumb Code  1670  lwip_tcp_in.o(.text)
    tcp_listen_input                         0x080624c7   Thumb Code   308  lwip_tcp_in.o(.text)
    tcp_timewait_input                       0x080625fb   Thumb Code   178  lwip_tcp_in.o(.text)
    .text                                    0x08062e24   Section        0  lwip_tcp_out.o(.text)
    tcp_output_alloc_header                  0x08062e25   Thumb Code   146  lwip_tcp_out.o(.text)
    tcp_create_segment                       0x08062eb7   Thumb Code   224  lwip_tcp_out.o(.text)
    tcp_write_checks                         0x08063159   Thumb Code   172  lwip_tcp_out.o(.text)
    tcp_output_segment                       0x0806399b   Thumb Code   222  lwip_tcp_out.o(.text)
    .text                                    0x08064084   Section        0  lwip_timeouts.o(.text)
    tcpip_tcp_timer                          0x08064163   Thumb Code    40  lwip_timeouts.o(.text)
    cyclic_timer                             0x080641b1   Thumb Code    22  lwip_timeouts.o(.text)
    sys_check_timeouts                       0x08064247   Thumb Code   112  lwip_timeouts.o(.text)
    sys_timeouts_sleeptime                   0x080642c3   Thumb Code    48  lwip_timeouts.o(.text)
    .text                                    0x08064394   Section        0  lwip_udp.o(.text)
    udp_new_port                             0x080643a9   Thumb Code    80  lwip_udp.o(.text)
    udp_input_local_match                    0x080643f9   Thumb Code    66  lwip_udp.o(.text)
    .text                                    0x08064a90   Section        0  lwip_icmp.o(.text)
    icmp_send_response                       0x08064c9b   Thumb Code   168  lwip_icmp.o(.text)
    .text                                    0x08064e08   Section        0  lwip_igmp.o(.text)
    igmp_lookup_group                        0x08064e3b   Thumb Code   166  lwip_igmp.o(.text)
    igmp_start_timer                         0x08064f5f   Thumb Code    38  lwip_igmp.o(.text)
    igmp_delaying_member                     0x08064f85   Thumb Code    42  lwip_igmp.o(.text)
    igmp_remove_group                        0x08064fcf   Thumb Code    40  lwip_igmp.o(.text)
    igmp_ip_output_if                        0x0806510d   Thumb Code    60  lwip_igmp.o(.text)
    igmp_send                                0x08065149   Thumb Code   152  lwip_igmp.o(.text)
    igmp_timeout                             0x0806551d   Thumb Code    50  lwip_igmp.o(.text)
    .text                                    0x080657d4   Section        0  lwip_ip4.o(.text)
    .text                                    0x08065df4   Section        0  lwip_ip4_addr.o(.text)
    .text                                    0x080660f8   Section        0  lwip_ip4_frag.o(.text)
    ip_reass_dequeue_datagram                0x080660f9   Thumb Code    54  lwip_ip4_frag.o(.text)
    ip_reass_free_complete_datagram          0x0806612f   Thumb Code   242  lwip_ip4_frag.o(.text)
    ip_reass_remove_oldest_datagram          0x08066259   Thumb Code   130  lwip_ip4_frag.o(.text)
    ip_reass_enqueue_new_datagram            0x080662db   Thumb Code    96  lwip_ip4_frag.o(.text)
    ip_reass_chain_frag_into_datagram_and_validate 0x0806633b   Thumb Code   750  lwip_ip4_frag.o(.text)
    ip_frag_alloc_pbuf_custom_ref            0x080667e3   Thumb Code    16  lwip_ip4_frag.o(.text)
    ip_frag_free_pbuf_custom_ref             0x080667f3   Thumb Code    32  lwip_ip4_frag.o(.text)
    ipfrag_free_pbuf_custom                  0x08066813   Thumb Code    62  lwip_ip4_frag.o(.text)
    .text                                    0x08066b00   Section        0  lwip_auth.o(.text)
    network_phase                            0x08066be3   Thumb Code    12  lwip_auth.o(.text)
    .text                                    0x08066e6c   Section        0  lwip_chap-md5.o(.text)
    chap_md5_make_response                   0x08066e6d   Thumb Code    80  lwip_chap-md5.o(.text)
    .text                                    0x08066ebc   Section        0  lwip_chap-new.o(.text)
    chap_init                                0x08066ebd   Thumb Code     2  lwip_chap-new.o(.text)
    chap_lowerup                             0x08066ebf   Thumb Code    14  lwip_chap-new.o(.text)
    chap_lowerdown                           0x08066ecd   Thumb Code     8  lwip_chap-new.o(.text)
    chap_respond                             0x08066f33   Thumb Code   288  lwip_chap-new.o(.text)
    chap_handle_status                       0x08067053   Thumb Code   194  lwip_chap-new.o(.text)
    chap_input                               0x08067115   Thumb Code   104  lwip_chap-new.o(.text)
    chap_protrej                             0x0806717d   Thumb Code    46  lwip_chap-new.o(.text)
    .text                                    0x080672cc   Section        0  lwip_fsm.o(.text)
    fsm_timeout                              0x08067375   Thumb Code   216  lwip_fsm.o(.text)
    fsm_sconfreq                             0x0806744d   Thumb Code   306  lwip_fsm.o(.text)
    terminate_layer                          0x0806768f   Thumb Code   142  lwip_fsm.o(.text)
    fsm_rcoderej                             0x0806777d   Thumb Code   184  lwip_fsm.o(.text)
    fsm_rtermack                             0x08067835   Thumb Code   120  lwip_fsm.o(.text)
    fsm_rtermreq                             0x080678ad   Thumb Code   150  lwip_fsm.o(.text)
    fsm_rconfnakrej                          0x08067943   Thumb Code   264  lwip_fsm.o(.text)
    fsm_rconfack                             0x08067a4b   Thumb Code   224  lwip_fsm.o(.text)
    fsm_rconfreq                             0x08067b2b   Thumb Code   244  lwip_fsm.o(.text)
    .text                                    0x08067e08   Section        0  lwip_ipcp.o(.text)
    ipcp_init                                0x08067e09   Thumb Code    76  lwip_ipcp.o(.text)
    ipcp_open                                0x08067e55   Thumb Code    28  lwip_ipcp.o(.text)
    ipcp_close                               0x08067e71   Thumb Code    20  lwip_ipcp.o(.text)
    ipcp_lowerup                             0x08067e85   Thumb Code    16  lwip_ipcp.o(.text)
    ipcp_lowerdown                           0x08067e95   Thumb Code    16  lwip_ipcp.o(.text)
    ipcp_input                               0x08067ea5   Thumb Code    28  lwip_ipcp.o(.text)
    ipcp_protrej                             0x08067ec1   Thumb Code    16  lwip_ipcp.o(.text)
    ipcp_resetci                             0x08067ed1   Thumb Code   152  lwip_ipcp.o(.text)
    ipcp_cilen                               0x08067f69   Thumb Code   126  lwip_ipcp.o(.text)
    ipcp_addci                               0x08067fe7   Thumb Code   342  lwip_ipcp.o(.text)
    ipcp_ackci                               0x0806813d   Thumb Code   452  lwip_ipcp.o(.text)
    ipcp_nakci                               0x08068301   Thumb Code  1066  lwip_ipcp.o(.text)
    ipcp_rejci                               0x0806872b   Thumb Code   466  lwip_ipcp.o(.text)
    ipcp_reqci                               0x080688fd   Thumb Code   984  lwip_ipcp.o(.text)
    ipcp_up                                  0x08068cd5   Thumb Code   384  lwip_ipcp.o(.text)
    ipcp_clear_addrs                         0x08068e55   Thumb Code    26  lwip_ipcp.o(.text)
    ipcp_down                                0x08068e6f   Thumb Code    72  lwip_ipcp.o(.text)
    ipcp_finished                            0x08068eb7   Thumb Code    32  lwip_ipcp.o(.text)
    .text                                    0x08069054   Section        0  lwip_lcp.o(.text)
    lcp_init                                 0x08069055   Thumb Code   194  lwip_lcp.o(.text)
    lcp_finished                             0x08069153   Thumb Code    14  lwip_lcp.o(.text)
    lcp_delayed_up                           0x08069161   Thumb Code    30  lwip_lcp.o(.text)
    lcp_input                                0x08069285   Thumb Code    58  lwip_lcp.o(.text)
    lcp_received_echo_reply                  0x080692bf   Thumb Code   100  lwip_lcp.o(.text)
    lcp_rprotrej                             0x08069323   Thumb Code    94  lwip_lcp.o(.text)
    lcp_extcode                              0x08069381   Thumb Code   146  lwip_lcp.o(.text)
    lcp_protrej                              0x08069413   Thumb Code    20  lwip_lcp.o(.text)
    lcp_resetci                              0x08069529   Thumb Code   142  lwip_lcp.o(.text)
    lcp_cilen                                0x080695b7   Thumb Code   172  lwip_lcp.o(.text)
    lcp_addci                                0x08069663   Thumb Code   378  lwip_lcp.o(.text)
    lcp_ackci                                0x080697dd   Thumb Code   580  lwip_lcp.o(.text)
    lcp_nakci                                0x08069a21   Thumb Code  1244  lwip_lcp.o(.text)
    lcp_rejci                                0x08069efd   Thumb Code   598  lwip_lcp.o(.text)
    lcp_reqci                                0x0806a153   Thumb Code  1260  lwip_lcp.o(.text)
    LcpEchoTimeout                           0x0806a63f   Thumb Code    32  lwip_lcp.o(.text)
    LcpLinkFailure                           0x0806a65f   Thumb Code    44  lwip_lcp.o(.text)
    LcpSendEchoRequest                       0x0806a68b   Thumb Code   114  lwip_lcp.o(.text)
    LcpEchoCheck                             0x0806a6fd   Thumb Code   240  lwip_lcp.o(.text)
    lcp_echo_lowerup                         0x0806a7ed   Thumb Code    38  lwip_lcp.o(.text)
    lcp_up                                   0x0806a813   Thumb Code   262  lwip_lcp.o(.text)
    lcp_echo_lowerdown                       0x0806a919   Thumb Code    34  lwip_lcp.o(.text)
    lcp_down                                 0x0806a93b   Thumb Code    90  lwip_lcp.o(.text)
    lcp_starting                             0x0806a995   Thumb Code    14  lwip_lcp.o(.text)
    .text                                    0x0806a9a8   Section        0  lwip_magic.o(.text)
    magic_churnrand                          0x0806a9a9   Thumb Code    88  lwip_magic.o(.text)
    .text                                    0x0806aa9c   Section        0  lwip_ppp.o(.text)
    ppp_do_connect                           0x0806aab9   Thumb Code    56  lwip_ppp.o(.text)
    ppp_netif_output                         0x0806ac29   Thumb Code    74  lwip_ppp.o(.text)
    ppp_netif_output_ip4                     0x0806ac73   Thumb Code    20  lwip_ppp.o(.text)
    ppp_netif_init_cb                        0x0806ac87   Thumb Code    28  lwip_ppp.o(.text)
    .text                                    0x0806b10c   Section        0  lwip_pppos.o(.text)
    pppos_output_append                      0x0806b15d   Thumb Code   170  lwip_pppos.o(.text)
    pppos_output_last                        0x0806b207   Thumb Code   164  lwip_pppos.o(.text)
    pppos_write                              0x0806b2ab   Thumb Code   156  lwip_pppos.o(.text)
    pppos_netif_output                       0x0806b347   Thumb Code   266  lwip_pppos.o(.text)
    pppos_input_free_current_packet          0x0806b451   Thumb Code    42  lwip_pppos.o(.text)
    pppos_connect                            0x0806b47b   Thumb Code    66  lwip_pppos.o(.text)
    pppos_disconnect                         0x0806b4bd   Thumb Code    40  lwip_pppos.o(.text)
    pppos_destroy                            0x0806b4e5   Thumb Code    44  lwip_pppos.o(.text)
    pppos_input_drop                         0x0806b511   Thumb Code    12  lwip_pppos.o(.text)
    pppos_input_callback                     0x0806b51d   Thumb Code    60  lwip_pppos.o(.text)
    pppos_send_config                        0x0806b7bd   Thumb Code    56  lwip_pppos.o(.text)
    pppos_recv_config                        0x0806b7f5   Thumb Code    58  lwip_pppos.o(.text)
    .text                                    0x0806b884   Section        0  lwip_utils.o(.text)
    ppp_log_write                            0x0806bf17   Thumb Code     2  lwip_utils.o(.text)
    ppp_logit                                0x0806bf19   Thumb Code    92  lwip_utils.o(.text)
    .text                                    0x0806c03c   Section        0  lwip_md5.o(.text)
    md5_process                              0x0806c057   Thumb Code  2326  lwip_md5.o(.text)
    .text                                    0x0806cae4   Section        0  lwip_random.o(.text)
    .text                                    0x0806caf0   Section        0  lwip_tcp_isn.o(.text)
    .text                                    0x0806cbb4   Section        0  lwip_stack.o(.text)
    mbed_lwip_get_ipv4_addr                  0x0806cbb5   Thumb Code    32  lwip_stack.o(.text)
    add_dns_addr_to_dns_list_index           0x0806cbfd   Thumb Code    26  lwip_stack.o(.text)
    get_ip_addr_type                         0x0806cc17   Thumb Code     6  lwip_stack.o(.text)
    mbed_lwip_tcpip_init_irq                 0x0806cc69   Thumb Code    12  lwip_stack.o(.text)
    mbed_lwip_netif_link_irq                 0x0806cc75   Thumb Code    30  lwip_stack.o(.text)
    mbed_lwip_netif_status_irq               0x0806cc93   Thumb Code    54  lwip_stack.o(.text)
    mbed_lwip_err_remap                      0x0806cd99   Thumb Code    96  lwip_stack.o(.text)
    .text                                    0x0806cf08   Section        0  ppp_lwip.o(.text)
    ppp_output                               0x0806cf09   Thumb Code   118  ppp_lwip.o(.text)
    ppp_link_status                          0x0806cf7f   Thumb Code   322  ppp_lwip.o(.text)
    ppp_input                                0x0806d0d9   Thumb Code    64  ppp_lwip.o(.text)
    stream_cb                                0x0806d119   Thumb Code    14  ppp_lwip.o(.text)
    .text                                    0x0806d51c   Section        0  uldiv.o(.text)
    .text                                    0x0806d57e   Section        0  llshl.o(.text)
    .text                                    0x0806d59c   Section        0  ctype_o.o(.text)
    .text                                    0x0806d5a4   Section        0  isspace_o.o(.text)
    .text                                    0x0806d5b6   Section        0  toupper.o(.text)
    .text                                    0x0806d5c4   Section        0  rand.o(.text)
    .text                                    0x0806d5e8   Section        0  memmovea.o(.text)
    .text                                    0x0806d628   Section        0  memseta.o(.text)
    .text                                    0x0806d64c   Section        0  strcat.o(.text)
    .text                                    0x0806d664   Section        0  strstr.o(.text)
    .text                                    0x0806d688   Section        0  strncpy.o(.text)
    .text                                    0x0806d6a0   Section        0  strlen.o(.text)
    .text                                    0x0806d6ae   Section        0  strcmp.o(.text)
    .text                                    0x0806d6ca   Section        0  memcmp.o(.text)
    .text                                    0x0806d6e4   Section        0  strcpy.o(.text)
    .text                                    0x0806d6f6   Section        0  strncmp.o(.text)
    .text                                    0x0806d714   Section        0  calloc.o(.text)
    .text                                    0x0806d730   Section        0  __0sscanf.o(.text)
    .text                                    0x0806d768   Section        0  _scanf_int.o(.text)
    .text                                    0x0806d8b4   Section        0  _scanf_str.o(.text)
    .text                                    0x0806d994   Section        0  scanf_fp.o(.text)
    _fp_value                                0x0806d995   Thumb Code   256  scanf_fp.o(.text)
    .text                                    0x0806dccc   Section        0  atoi.o(.text)
    .text                                    0x0806dce6   Section        0  atoll.o(.text)
    .text                                    0x0806dd00   Section        0  ddiv.o(.text)
    .text                                    0x0806ddde   Section        0  f2d.o(.text)
    .text                                    0x0806de04   Section        0  d2f.o(.text)
    .text                                    0x0806de3c   Section        0  uidiv.o(.text)
    .text                                    0x0806de68   Section        0  llushr.o(.text)
    .text                                    0x0806de88   Section        0  _chval.o(.text)
    .text                                    0x0806dea4   Section        0  scanf_char.o(.text)
    _scanf_char_input                        0x0806dea5   Thumb Code    12  scanf_char.o(.text)
    .text                                    0x0806decc   Section        0  _sgetc.o(.text)
    .text                                    0x0806df0c   Section        0  strtol.o(.text)
    .text                                    0x0806df7c   Section        0  __strtoll.o(.text)
    .text                                    0x0806e00c   Section        0  fepilogue.o(.text)
    .text                                    0x0806e00c   Section        0  iusefp.o(.text)
    .text                                    0x0806e07a   Section        0  depilogue.o(.text)
    .text                                    0x0806e134   Section        0  dadd.o(.text)
    .text                                    0x0806e282   Section        0  dmul.o(.text)
    .text                                    0x0806e366   Section        0  dfltul.o(.text)
    .text                                    0x0806e37e   Section        0  dfixul.o(.text)
    .text                                    0x0806e3b0   Section       48  cdrcmple.o(.text)
    .text                                    0x0806e3e0   Section       36  init.o(.text)
    .text                                    0x0806e404   Section        0  llsshr.o(.text)
    .text                                    0x0806e428   Section        0  _scanf.o(.text)
    .text                                    0x0806e754   Section        0  _strtoul.o(.text)
    .text                                    0x0806e7f2   Section        0  _strtoull.o(.text)
    .text                                    0x0806e8b4   Section        0  __dczerorl2.o(.text)
    i.__0fprintf                             0x0806e90c   Section        0  printfa.o(i.__0fprintf)
    i.__0printf                              0x0806e928   Section        0  printfa.o(i.__0printf)
    i.__0snprintf                            0x0806e948   Section        0  printfa.o(i.__0snprintf)
    i.__0sprintf                             0x0806e978   Section        0  printfa.o(i.__0sprintf)
    i.__0vsnprintf                           0x0806e9a0   Section        0  printfa.o(i.__0vsnprintf)
    i.__0vsprintf                            0x0806e9cc   Section        0  printfa.o(i.__0vsprintf)
    i.__aeabi_errno_addr                     0x0806e9f0   Section        0  errno.o(i.__aeabi_errno_addr)
    i.__scatterload_copy                     0x0806e9f8   Section       14  handlers.o(i.__scatterload_copy)
    i.__scatterload_null                     0x0806ea06   Section        2  handlers.o(i.__scatterload_null)
    i.__scatterload_zeroinit                 0x0806ea08   Section       14  handlers.o(i.__scatterload_zeroinit)
    i._fp_digits                             0x0806ea18   Section        0  printfa.o(i._fp_digits)
    _fp_digits                               0x0806ea19   Thumb Code   366  printfa.o(i._fp_digits)
    i._is_digit                              0x0806eb9c   Section        0  scanf_fp.o(i._is_digit)
    i._printf_core                           0x0806ebac   Section        0  printfa.o(i._printf_core)
    _printf_core                             0x0806ebad   Thumb Code  1744  printfa.o(i._printf_core)
    i._printf_post_padding                   0x0806f288   Section        0  printfa.o(i._printf_post_padding)
    _printf_post_padding                     0x0806f289   Thumb Code    36  printfa.o(i._printf_post_padding)
    i._printf_pre_padding                    0x0806f2ac   Section        0  printfa.o(i._printf_pre_padding)
    _printf_pre_padding                      0x0806f2ad   Thumb Code    46  printfa.o(i._printf_pre_padding)
    i._snputc                                0x0806f2da   Section        0  printfa.o(i._snputc)
    _snputc                                  0x0806f2db   Thumb Code    22  printfa.o(i._snputc)
    i._sputc                                 0x0806f2f0   Section        0  printfa.o(i._sputc)
    _sputc                                   0x0806f2f1   Thumb Code    10  printfa.o(i._sputc)
    i.fread                                  0x0806f2fa   Section        0  fread.o(i.fread)
    i.free                                   0x0806f330   Section        0  malloc.o(i.free)
    i.fwrite                                 0x0806f380   Section        0  fwrite.o(i.fwrite)
    i.malloc                                 0x0806f3a4   Section        0  malloc.o(i.malloc)
    .constdata                               0x0806f410   Section       96  m_time.o(.constdata)
    .constdata                               0x0806f470   Section        8  stm32f4xx_hal_dma.o(.constdata)
    flagBitshiftOffset                       0x0806f470   Data           8  stm32f4xx_hal_dma.o(.constdata)
    .constdata                               0x0806f478   Section       24  system_stm32f4xx.o(.constdata)
    .constdata                               0x0806f490   Section       32  main.o(.constdata)
    .constdata                               0x0806f4b0   Section        4  system_config.o(.constdata)
    .constdata                               0x0806f4b4   Section     1104  shadow_thing.o(.constdata)
    __func__                                 0x0806f4b8   Data          18  shadow_thing.o(.constdata)
    __func__                                 0x0806f4ca   Data          20  shadow_thing.o(.constdata)
    .constdata                               0x0806f904   Section       20  ntp_server.o(.constdata)
    .constdata                               0x0806f918   Section       16  watchdog.o(.constdata)
    .constdata                               0x0806f928   Section        4  sst25.o(.constdata)
    .constdata                               0x0806f92c   Section        4  io_control.o(.constdata)
    .constdata                               0x0806f930   Section       20  ota_backup_server.o(.constdata)
    .constdata                               0x0806f944   Section     2712  elster_tasks.o(.constdata)
    .constdata                               0x080703dc   Section        4  app_config_task.o(.constdata)
    .constdata                               0x080703e0   Section        4  relay.o(.constdata)
    .constdata                               0x080703e4   Section      528  ampm_gsm_call.o(.constdata)
    .constdata                               0x080705f4   Section      392  ampm_gsm_common.o(.constdata)
    .constdata                               0x0807077c   Section      276  ampm_gsm_dial_up.o(.constdata)
    .constdata                               0x08070890   Section     4140  ampm_gsm_main_task.o(.constdata)
    .constdata                               0x080718bc   Section      848  ampm_gsm_sms.o(.constdata)
    .constdata                               0x08071c0c   Section       71  at_command_parser.o(.constdata)
    AT_ProcessCmd                            0x08071c0c   Data          64  at_command_parser.o(.constdata)
    .constdata                               0x08071c53   Section      210  aws_iot_json_utils.o(.constdata)
    __func__                                 0x08071c53   Data          28  aws_iot_json_utils.o(.constdata)
    __func__                                 0x08071c6f   Data          28  aws_iot_json_utils.o(.constdata)
    __func__                                 0x08071c8b   Data          27  aws_iot_json_utils.o(.constdata)
    __func__                                 0x08071ca6   Data          20  aws_iot_json_utils.o(.constdata)
    __func__                                 0x08071cba   Data          20  aws_iot_json_utils.o(.constdata)
    __func__                                 0x08071cce   Data          19  aws_iot_json_utils.o(.constdata)
    __func__                                 0x08071ce1   Data          16  aws_iot_json_utils.o(.constdata)
    __func__                                 0x08071cf1   Data          17  aws_iot_json_utils.o(.constdata)
    __func__                                 0x08071d02   Data          18  aws_iot_json_utils.o(.constdata)
    __func__                                 0x08071d14   Data          17  aws_iot_json_utils.o(.constdata)
    .constdata                               0x08071d28   Section      246  aws_iot_mqtt_client.o(.constdata)
    __func__                                 0x08071ddc   Data          33  aws_iot_mqtt_client.o(.constdata)
    __func__                                 0x08071dfd   Data          33  aws_iot_mqtt_client.o(.constdata)
    .constdata                               0x08071e20   Section       60  aws_iot_shadow.o(.constdata)
    .constdata                               0x08071e5c   Section       59  aws_iot_shadow_json.o(.constdata)
    __func__                                 0x08071e5c   Data          20  aws_iot_shadow_json.o(.constdata)
    __func__                                 0x08071e70   Data          20  aws_iot_shadow_json.o(.constdata)
    __func__                                 0x08071e84   Data          19  aws_iot_shadow_json.o(.constdata)
    .constdata                               0x08071e97   Section       40  aws_iot_shadow_records.o(.constdata)
    __func__                                 0x08071e97   Data          18  aws_iot_shadow_records.o(.constdata)
    __func__                                 0x08071ea9   Data          22  aws_iot_shadow_records.o(.constdata)
    .constdata                               0x08071ebf   Section     1313  network_mbedtls_wrapper.o(.constdata)
    __func__                                 0x080723ad   Data          21  network_mbedtls_wrapper.o(.constdata)
    __func__                                 0x080723c2   Data          16  network_mbedtls_wrapper.o(.constdata)
    __func__                                 0x080723d2   Data          14  network_mbedtls_wrapper.o(.constdata)
    .constdata                               0x080723e0   Section     8936  aes.o(.constdata)
    FSb                                      0x080723e0   Data         256  aes.o(.constdata)
    FT0                                      0x080724e0   Data        1024  aes.o(.constdata)
    FT1                                      0x080728e0   Data        1024  aes.o(.constdata)
    FT2                                      0x08072ce0   Data        1024  aes.o(.constdata)
    FT3                                      0x080730e0   Data        1024  aes.o(.constdata)
    RSb                                      0x080734e0   Data         256  aes.o(.constdata)
    RT0                                      0x080735e0   Data        1024  aes.o(.constdata)
    RT1                                      0x080739e0   Data        1024  aes.o(.constdata)
    RT2                                      0x08073de0   Data        1024  aes.o(.constdata)
    RT3                                      0x080741e0   Data        1024  aes.o(.constdata)
    RCON                                     0x080745e0   Data          40  aes.o(.constdata)
    aes_test_ecb_dec                         0x08074608   Data          48  aes.o(.constdata)
    aes_test_ecb_enc                         0x08074638   Data          48  aes.o(.constdata)
    aes_test_cbc_dec                         0x08074668   Data          48  aes.o(.constdata)
    aes_test_cbc_enc                         0x08074698   Data          48  aes.o(.constdata)
    .constdata                               0x080746c8   Section      345  base64.o(.constdata)
    base64_enc_map                           0x080746c8   Data          64  base64.o(.constdata)
    base64_dec_map                           0x08074708   Data         128  base64.o(.constdata)
    base64_test_dec                          0x08074788   Data          64  base64.o(.constdata)
    base64_test_enc                          0x080747c8   Data          89  base64.o(.constdata)
    .constdata                               0x08074824   Section       36  bignum.o(.constdata)
    gcd_pairs                                0x08074824   Data          36  bignum.o(.constdata)
    .constdata                               0x08074848   Section      216  ccm.o(.constdata)
    key                                      0x08074848   Data          16  ccm.o(.constdata)
    iv                                       0x08074858   Data          12  ccm.o(.constdata)
    ad                                       0x08074864   Data          20  ccm.o(.constdata)
    msg                                      0x08074878   Data          24  ccm.o(.constdata)
    iv_len                                   0x08074890   Data          12  ccm.o(.constdata)
    add_len                                  0x0807489c   Data          12  ccm.o(.constdata)
    msg_len                                  0x080748a8   Data          12  ccm.o(.constdata)
    tag_len                                  0x080748b4   Data          12  ccm.o(.constdata)
    res                                      0x080748c0   Data          96  ccm.o(.constdata)
    .constdata                               0x08074920   Section    18624  certs.o(.constdata)
    mbedtls_test_ca_crt_rsa_sha256           0x08075b94   Data        1307  certs.o(.constdata)
    mbedtls_test_ca_crt_rsa_sha1             0x080760af   Data        1307  certs.o(.constdata)
    .constdata                               0x080791e0   Section      524  cipher_wrap.o(.constdata)
    aes_info                                 0x080791e0   Data          28  cipher_wrap.o(.constdata)
    aes_128_ecb_info                         0x080791fc   Data          28  cipher_wrap.o(.constdata)
    aes_192_ecb_info                         0x08079218   Data          28  cipher_wrap.o(.constdata)
    aes_256_ecb_info                         0x08079234   Data          28  cipher_wrap.o(.constdata)
    aes_128_cbc_info                         0x08079250   Data          28  cipher_wrap.o(.constdata)
    aes_192_cbc_info                         0x0807926c   Data          28  cipher_wrap.o(.constdata)
    aes_256_cbc_info                         0x08079288   Data          28  cipher_wrap.o(.constdata)
    gcm_aes_info                             0x080792a4   Data          28  cipher_wrap.o(.constdata)
    aes_128_gcm_info                         0x080792c0   Data          28  cipher_wrap.o(.constdata)
    aes_192_gcm_info                         0x080792dc   Data          28  cipher_wrap.o(.constdata)
    aes_256_gcm_info                         0x080792f8   Data          28  cipher_wrap.o(.constdata)
    ccm_aes_info                             0x08079314   Data          28  cipher_wrap.o(.constdata)
    aes_128_ccm_info                         0x08079330   Data          28  cipher_wrap.o(.constdata)
    aes_192_ccm_info                         0x0807934c   Data          28  cipher_wrap.o(.constdata)
    aes_256_ccm_info                         0x08079368   Data          28  cipher_wrap.o(.constdata)
    .constdata                               0x080793ec   Section      224  ctr_drbg.o(.constdata)
    entropy_source_pr                        0x080793ec   Data          96  ctr_drbg.o(.constdata)
    entropy_source_nopr                      0x0807944c   Data          64  ctr_drbg.o(.constdata)
    nonce_pers_pr                            0x0807948c   Data          16  ctr_drbg.o(.constdata)
    nonce_pers_nopr                          0x0807949c   Data          16  ctr_drbg.o(.constdata)
    result_pr                                0x080794ac   Data          16  ctr_drbg.o(.constdata)
    result_nopr                              0x080794bc   Data          16  ctr_drbg.o(.constdata)
    .constdata                               0x080794cc   Section       60  ecp.o(.constdata)
    ecp_supported_curves                     0x080794cc   Data          36  ecp.o(.constdata)
    .constdata                               0x08079508   Section      400  ecp_curves.o(.constdata)
    secp256r1_p                              0x08079508   Data          32  ecp_curves.o(.constdata)
    secp256r1_b                              0x08079528   Data          32  ecp_curves.o(.constdata)
    secp256r1_gx                             0x08079548   Data          32  ecp_curves.o(.constdata)
    secp256r1_gy                             0x08079568   Data          32  ecp_curves.o(.constdata)
    secp256r1_n                              0x08079588   Data          32  ecp_curves.o(.constdata)
    secp384r1_p                              0x080795a8   Data          48  ecp_curves.o(.constdata)
    secp384r1_b                              0x080795d8   Data          48  ecp_curves.o(.constdata)
    secp384r1_gx                             0x08079608   Data          48  ecp_curves.o(.constdata)
    secp384r1_gy                             0x08079638   Data          48  ecp_curves.o(.constdata)
    secp384r1_n                              0x08079668   Data          48  ecp_curves.o(.constdata)
    .constdata                               0x08079698   Section     3080  gcm.o(.constdata)
    last4                                    0x08079698   Data         128  gcm.o(.constdata)
    key_index                                0x08079718   Data          24  gcm.o(.constdata)
    key                                      0x08079730   Data         192  gcm.o(.constdata)
    iv_len                                   0x080797f0   Data          24  gcm.o(.constdata)
    iv_index                                 0x08079808   Data          24  gcm.o(.constdata)
    iv                                       0x08079820   Data         384  gcm.o(.constdata)
    add_len                                  0x080799a0   Data          24  gcm.o(.constdata)
    add_index                                0x080799b8   Data          24  gcm.o(.constdata)
    additional                               0x080799d0   Data         384  gcm.o(.constdata)
    pt_len                                   0x08079b50   Data          24  gcm.o(.constdata)
    pt_index                                 0x08079b68   Data          24  gcm.o(.constdata)
    pt                                       0x08079b80   Data         384  gcm.o(.constdata)
    ct                                       0x08079d00   Data        1152  gcm.o(.constdata)
    tag                                      0x0807a180   Data         288  gcm.o(.constdata)
    .constdata                               0x0807a2a0   Section      256  hmac_drbg.o(.constdata)
    entropy_pr                               0x0807a2a0   Data          56  hmac_drbg.o(.constdata)
    result_pr                                0x0807a2d8   Data          80  hmac_drbg.o(.constdata)
    entropy_nopr                             0x0807a328   Data          40  hmac_drbg.o(.constdata)
    result_nopr                              0x0807a350   Data          80  hmac_drbg.o(.constdata)
    .constdata                               0x0807a3a0   Section       24  md.o(.constdata)
    supported_digests                        0x0807a3a0   Data          24  md.o(.constdata)
    .constdata                               0x0807a3b8   Section      240  md_wrap.o(.constdata)
    .constdata                               0x0807a4a8   Section     1212  oid.o(.constdata)
    oid_x520_attr_type                       0x0807a4a8   Data         400  oid.o(.constdata)
    oid_x509_ext                             0x0807a638   Data         120  oid.o(.constdata)
    oid_ext_key_usage                        0x0807a6b0   Data         112  oid.o(.constdata)
    oid_sig_alg                              0x0807a720   Data         260  oid.o(.constdata)
    oid_pk_alg                               0x0807a824   Data          80  oid.o(.constdata)
    oid_ecp_grp                              0x0807a874   Data          60  oid.o(.constdata)
    oid_cipher_alg                           0x0807a8b0   Data          60  oid.o(.constdata)
    oid_md_alg                               0x0807a8ec   Data         120  oid.o(.constdata)
    .constdata                               0x0807a964   Section      240  pk_wrap.o(.constdata)
    .constdata                               0x0807aa54   Section      308  sha1.o(.constdata)
    sha1_padding                             0x0807aa54   Data          64  sha1.o(.constdata)
    sha1_test_buf                            0x0807aa94   Data         171  sha1.o(.constdata)
    sha1_test_buflen                         0x0807ab40   Data          12  sha1.o(.constdata)
    sha1_test_sum                            0x0807ab4c   Data          60  sha1.o(.constdata)
    .constdata                               0x0807ab88   Section      696  sha256.o(.constdata)
    K                                        0x0807ab88   Data         256  sha256.o(.constdata)
    sha256_padding                           0x0807ac88   Data          64  sha256.o(.constdata)
    sha256_test_buf                          0x0807acc8   Data         171  sha256.o(.constdata)
    sha256_test_buflen                       0x0807ad74   Data          12  sha256.o(.constdata)
    sha256_test_sum                          0x0807ad80   Data         192  sha256.o(.constdata)
    .constdata                               0x0807ae40   Section     1504  sha512.o(.constdata)
    K                                        0x0807ae40   Data         640  sha512.o(.constdata)
    sha512_padding                           0x0807b0c0   Data         128  sha512.o(.constdata)
    sha512_test_buf                          0x0807b140   Data         339  sha512.o(.constdata)
    sha512_test_buflen                       0x0807b294   Data          12  sha512.o(.constdata)
    sha512_test_sum                          0x0807b2a0   Data         384  sha512.o(.constdata)
    .constdata                               0x0807b420   Section     1644  ssl_ciphersuites.o(.constdata)
    ciphersuite_preference                   0x0807b420   Data         652  ssl_ciphersuites.o(.constdata)
    ciphersuite_definitions                  0x0807b6ac   Data         992  ssl_ciphersuites.o(.constdata)
    .constdata                               0x0807ba8c   Section      216  x509_crt.o(.constdata)
    x509_crt_verify_strings                  0x0807babc   Data         168  x509_crt.o(.constdata)
    .constdata                               0x0807bb64   Section       68  lwip_err.o(.constdata)
    err_to_errno_table                       0x0807bb64   Data          68  lwip_err.o(.constdata)
    .constdata                               0x0807bba8   Section       12  lwip_sys_arch.o(.constdata)
    .constdata                               0x0807bbb4   Section      616  lwip_memp.o(.constdata)
    .constdata                               0x0807be1c   Section       80  lwip_tcp.o(.constdata)
    tcp_state_str                            0x0807be1c   Data          44  lwip_tcp.o(.constdata)
    tcp_backoff                              0x0807be48   Data          13  lwip_tcp.o(.constdata)
    tcp_persist_backoff                      0x0807be55   Data           7  lwip_tcp.o(.constdata)
    .constdata                               0x0807be6c   Section       32  lwip_timeouts.o(.constdata)
    .constdata                               0x0807be8c   Section        8  lwip_ip4_addr.o(.constdata)
    .constdata                               0x0807be94   Section       16  lwip_chap-md5.o(.constdata)
    .constdata                               0x0807bea4   Section       40  lwip_chap-new.o(.constdata)
    chap_digests                             0x0807bea4   Data           8  lwip_chap-new.o(.constdata)
    .constdata                               0x0807becc   Section       92  lwip_ipcp.o(.constdata)
    ipcp_callbacks                           0x0807becc   Data          60  lwip_ipcp.o(.constdata)
    .constdata                               0x0807bf28   Section       92  lwip_lcp.o(.constdata)
    lcp_callbacks                            0x0807bf28   Data          60  lwip_lcp.o(.constdata)
    .constdata                               0x0807bf84   Section       36  lwip_ppp.o(.constdata)
    .constdata                               0x0807bfa8   Section      560  lwip_pppos.o(.constdata)
    pppos_callbacks                          0x0807bfbc   Data          28  lwip_pppos.o(.constdata)
    fcstab                                   0x0807bfd8   Data         512  lwip_pppos.o(.constdata)
    .constdata                               0x0807c1d8   Section       64  lwip_md5.o(.constdata)
    md5_padding                              0x0807c1d8   Data          64  lwip_md5.o(.constdata)
    .constdata                               0x0807c218   Section        4  lwip_stack.o(.constdata)
    .constdata                               0x0807c21c   Section      129  ctype_o.o(.constdata)
    .constdata                               0x0807c2a0   Section        4  ctype_o.o(.constdata)
    table                                    0x0807c2a0   Data           4  ctype_o.o(.constdata)
    .conststring                             0x0807c2a4   Section       12  main.o(.conststring)
    .conststring                             0x0807c2b0   Section      492  shadow_thing.o(.conststring)
    .conststring                             0x0807c49c   Section        9  ntp_server.o(.conststring)
    .conststring                             0x0807c4a8   Section      233  sms_task.o(.conststring)
    .conststring                             0x0807c594   Section        9  ota_backup_server.o(.conststring)
    .conststring                             0x0807c5a0   Section      663  elster_tasks.o(.conststring)
    .conststring                             0x0807c838   Section      106  ampm_gsm_call.o(.conststring)
    .conststring                             0x0807c8a4   Section      196  ampm_gsm_common.o(.conststring)
    .conststring                             0x0807c968   Section        9  ampm_gsm_io.o(.conststring)
    .conststring                             0x0807c974   Section       90  ampm_gsm_main_task.o(.conststring)
    .conststring                             0x0807c9d0   Section       37  ampm_gsm_sms.o(.conststring)
    .conststring                             0x0807c9f8   Section       89  at_command_parser.o(.conststring)
    .conststring                             0x0807ca54   Section      293  network_mbedtls_wrapper.o(.conststring)
    .conststring                             0x0807cb7c   Section      877  bignum.o(.conststring)
    .conststring                             0x0807ceec   Section      144  cipher_wrap.o(.conststring)
    .conststring                             0x0807cf7c   Section      333  ecp.o(.conststring)
    .conststring                             0x0807d0cc   Section       39  md_wrap.o(.conststring)
    .conststring                             0x0807d0f4   Section      181  memory_buffer_alloc.o(.conststring)
    .conststring                             0x0807d1ac   Section     2351  oid.o(.conststring)
    .conststring                             0x0807dadc   Section       28  pk_wrap.o(.conststring)
    .conststring                             0x0807daf8   Section     1177  rsa.o(.conststring)
    .conststring                             0x0807df94   Section     1073  ssl_ciphersuites.o(.conststring)
    .conststring                             0x0807e3c8   Section      164  ssl_cli.o(.conststring)
    .conststring                             0x0807e46c   Section      294  ssl_tls.o(.conststring)
    .conststring                             0x0807e594   Section     1030  x509_crt.o(.conststring)
    .conststring                             0x0807e99c   Section      313  lwip_err.o(.conststring)
    .conststring                             0x0807ead8   Section       72  lwip_def.o(.conststring)
    .conststring                             0x0807eb20   Section       69  lwip_inet_chksum.o(.conststring)
    .conststring                             0x0807eb68   Section       65  lwip_init.o(.conststring)
    .conststring                             0x0807ebac   Section      172  lwip_memp.o(.conststring)
    .conststring                             0x0807ec58   Section      109  lwip_tcp.o(.conststring)
    .conststring                             0x0807ecc8   Section      153  lwip_tcp_out.o(.conststring)
    .conststring                             0x0807ed64   Section       66  lwip_timeouts.o(.conststring)
    .conststring                             0x0807eda8   Section       67  lwip_icmp.o(.conststring)
    .conststring                             0x0807edec   Section      133  lwip_igmp.o(.conststring)
    .conststring                             0x0807ee74   Section       66  lwip_ip4.o(.conststring)
    .conststring                             0x0807eeb8   Section       71  lwip_ip4_addr.o(.conststring)
    .conststring                             0x0807ef00   Section       71  lwip_ip4_frag.o(.conststring)
    .conststring                             0x0807ef48   Section       66  lwip_fsm.o(.conststring)
    .conststring                             0x0807ef8c   Section        5  lwip_ipcp.o(.conststring)
    .conststring                             0x0807ef94   Section        4  lwip_lcp.o(.conststring)
    .conststring                             0x0807ef98   Section       74  lwip_ppp.o(.conststring)
    .conststring                             0x0807efe4   Section       80  lwip_pppos.o(.conststring)
    .conststring                             0x0807f034   Section       68  lwip_utils.o(.conststring)
    .conststrlit                             0x0807f078   Section        6  oid.o(.conststrlit)
    osRam                                    0x10000000   Section    63488  main.o(osRam)
    osRam                                    0x1000f800   Section     1572  system_config.o(osRam)
    osRam                                    0x1000fe24   Section      256  sst25.o(osRam)
    osRam                                    0x1000ff24   Section       64  ota_backup_server.o(osRam)
    .ARM.__AT_0x1000FF80                     0x1000ff80   Section       12  system_config.o(.ARM.__AT_0x1000FF80)
    .data                                    0x20000000   Section       24  heap_4.o(.data)
    xStart                                   0x20000000   Data           8  heap_4.o(.data)
    pxEnd                                    0x20000008   Data           4  heap_4.o(.data)
    xFreeBytesRemaining                      0x2000000c   Data           4  heap_4.o(.data)
    xMinimumEverFreeBytesRemaining           0x20000010   Data           4  heap_4.o(.data)
    xBlockAllocatedBit                       0x20000014   Data           4  heap_4.o(.data)
    .data                                    0x20000018   Section       12  port.o(.data)
    uxCriticalNesting                        0x20000018   Data           4  port.o(.data)
    ucMaxSysCallPriority                     0x2000001c   Data           1  port.o(.data)
    ulMaxPRIGROUPValue                       0x20000020   Data           4  port.o(.data)
    .data                                    0x20000024   Section       68  tasks.o(.data)
    pxDelayedTaskList                        0x20000028   Data           4  tasks.o(.data)
    pxOverflowDelayedTaskList                0x2000002c   Data           4  tasks.o(.data)
    uxDeletedTasksWaitingCleanUp             0x20000030   Data           4  tasks.o(.data)
    uxCurrentNumberOfTasks                   0x20000034   Data           4  tasks.o(.data)
    xTickCount                               0x20000038   Data           4  tasks.o(.data)
    uxTopReadyPriority                       0x2000003c   Data           4  tasks.o(.data)
    xSchedulerRunning                        0x20000040   Data           4  tasks.o(.data)
    uxPendedTicks                            0x20000044   Data           4  tasks.o(.data)
    xYieldPending                            0x20000048   Data           4  tasks.o(.data)
    xNumOfOverflows                          0x2000004c   Data           4  tasks.o(.data)
    uxTaskNumber                             0x20000050   Data           4  tasks.o(.data)
    xNextTaskUnblockTime                     0x20000054   Data           4  tasks.o(.data)
    xIdleTaskHandle                          0x20000058   Data           4  tasks.o(.data)
    uxSchedulerSuspended                     0x2000005c   Data           4  tasks.o(.data)
    ulTaskSwitchedInTime                     0x20000060   Data           4  tasks.o(.data)
    ulTotalRunTime                           0x20000064   Data           4  tasks.o(.data)
    .data                                    0x20000068   Section       12  m_time.o(.data)
    .data                                    0x20000074   Section        1  sparser.o(.data)
    lastChar                                 0x20000074   Data           1  sparser.o(.data)
    .data                                    0x20000078   Section       16  sys_tick.o(.data)
    .data                                    0x20000088   Section       36  sys_time.o(.data)
    .data                                    0x200000ac   Section        4  stm32f4xx_hal.o(.data)
    .data                                    0x200000b0   Section        4  system_stm32f4xx.o(.data)
    .data                                    0x200000b4   Section       32  main.o(.data)
    tim_cnt                                  0x200000d0   Data           4  main.o(.data)
    .data                                    0x200000d4   Section        8  system_config.o(.data)
    .data                                    0x200000dc   Section       36  shadow_thing.o(.data)
    .data                                    0x20000100   Section        9  ntp_server.o(.data)
    .data                                    0x2000010c   Section       12  smartlight.o(.data)
    .data                                    0x20000118   Section       52  watchdog.o(.data)
    .data                                    0x2000014c   Section       12  sms_task.o(.data)
    .data                                    0x20000158   Section       12  sst25.o(.data)
    .data                                    0x20000164   Section        4  io_control.o(.data)
    .data                                    0x20000168   Section       12  ota_backup_server.o(.data)
    ota_backup_socket                        0x2000016c   Data           4  ota_backup_server.o(.data)
    .data                                    0x20000174   Section       13  power_sensor.o(.data)
    .data                                    0x20000184   Section      119  elster_tasks.o(.data)
    elsterCmdList_list                       0x200001a0   Data           4  elster_tasks.o(.data)
    elsterCmdList                            0x200001a4   Data           4  elster_tasks.o(.data)
    .data                                    0x200001fc   Section        5  uart1.o(.data)
    uart1_initialized                        0x20000200   Data           1  uart1.o(.data)
    .data                                    0x20000204   Section        5  uart5.o(.data)
    uart5_initialized                        0x20000208   Data           1  uart5.o(.data)
    .data                                    0x2000020c   Section        9  uart4.o(.data)
    uart4_initialized                        0x20000214   Data           1  uart4.o(.data)
    .data                                    0x20000218   Section        5  uart6.o(.data)
    uart6_initialized                        0x2000021c   Data           1  uart6.o(.data)
    .data                                    0x20000220   Section       34  app_config_task.o(.data)
    flagCfgProcessInUse                      0x20000241   Data           1  app_config_task.o(.data)
    .data                                    0x20000244   Section       16  uart_config_task.o(.data)
    .data                                    0x20000254   Section        2  alarm.o(.data)
    .data                                    0x20000258   Section        4  relay.o(.data)
    .data                                    0x2000025c   Section       30  ampm_gsm_call.o(.data)
    callList_list                            0x2000025c   Data           4  ampm_gsm_call.o(.data)
    callList                                 0x20000260   Data           4  ampm_gsm_call.o(.data)
    call                                     0x20000274   Data           4  ampm_gsm_call.o(.data)
    getCeerFlag                              0x20000278   Data           1  ampm_gsm_call.o(.data)
    len                                      0x20000279   Data           1  ampm_gsm_call.o(.data)
    .data                                    0x2000027c   Section       39  ampm_gsm_common.o(.data)
    .data                                    0x200002a3   Section        2  ampm_gsm_dial_up.o(.data)
    .data                                    0x200002a8   Section       38  ampm_gsm_io.o(.data)
    .data                                    0x200002d0   Section       80  ampm_gsm_main_task.o(.data)
    number                                   0x2000031a   Data           2  ampm_gsm_main_task.o(.data)
    number                                   0x2000031c   Data           2  ampm_gsm_main_task.o(.data)
    timezone_pos                             0x2000031e   Data           2  ampm_gsm_main_task.o(.data)
    .data                                    0x20000320   Section       18  ampm_gsm_ring.o(.data)
    .data                                    0x20000334   Section       80  ampm_gsm_sms.o(.data)
    smsList_list                             0x20000338   Data           4  ampm_gsm_sms.o(.data)
    smsList                                  0x2000033c   Data           4  ampm_gsm_sms.o(.data)
    errorTimes                               0x20000355   Data           1  ampm_gsm_sms.o(.data)
    msg                                      0x20000358   Data           4  ampm_gsm_sms.o(.data)
    checkCnt                                 0x2000035c   Data           1  ampm_gsm_sms.o(.data)
    msg                                      0x20000360   Data           4  ampm_gsm_sms.o(.data)
    msgTemp                                  0x20000364   Data           4  ampm_gsm_sms.o(.data)
    comma                                    0x20000368   Data           1  ampm_gsm_sms.o(.data)
    getSmsDataFlag                           0x20000369   Data           1  ampm_gsm_sms.o(.data)
    u8pt                                     0x2000036c   Data           4  ampm_gsm_sms.o(.data)
    u8pt1                                    0x20000370   Data           4  ampm_gsm_sms.o(.data)
    u8pt2                                    0x20000374   Data           4  ampm_gsm_sms.o(.data)
    len                                      0x20000378   Data           1  ampm_gsm_sms.o(.data)
    length                                   0x2000037c   Data           4  ampm_gsm_sms.o(.data)
    length                                   0x20000380   Data           4  ampm_gsm_sms.o(.data)
    .data                                    0x20000384   Section       28  ampm_gsm_startup.o(.data)
    tryCnt                                   0x2000039c   Data           4  ampm_gsm_startup.o(.data)
    .data                                    0x200003a0   Section       20  at_command_parser.o(.data)
    RingBuffInit                             0x200003b0   Data           4  at_command_parser.o(.data)
    .data                                    0x200003b4   Section        1  comm.o(.data)
    .data                                    0x200003b8   Section        4  aws_iot_shadow_json.o(.data)
    clientTokenNum                           0x200003b8   Data           4  aws_iot_shadow_json.o(.data)
    .data                                    0x200003bc   Section       17  aws_iot_shadow_records.o(.data)
    tokenTableIndex                          0x200003c0   Data           4  aws_iot_shadow_records.o(.data)
    deltaTopicSubscribedFlag                 0x200003c4   Data           1  aws_iot_shadow_records.o(.data)
    .data                                    0x200003d0   Section       44  certs.o(.data)
    .data                                    0x200003fc   Section        4  cipher.o(.data)
    supported_init                           0x200003fc   Data           4  cipher.o(.data)
    .data                                    0x20000400   Section        4  ctr_drbg.o(.data)
    test_offset                              0x20000400   Data           4  ctr_drbg.o(.data)
    .data                                    0x20000404   Section        4  debug.o(.data)
    debug_threshold                          0x20000404   Data           4  debug.o(.data)
    .data                                    0x20000408   Section       20  ecp.o(.data)
    add_count                                0x20000408   Data           4  ecp.o(.data)
    dbl_count                                0x2000040c   Data           4  ecp.o(.data)
    mul_count                                0x20000410   Data           4  ecp.o(.data)
    ecp_supported_grp_id                     0x20000414   Data           3  ecp.o(.data)
    init_done                                0x20000418   Data           4  ecp.o(.data)
    .data                                    0x2000041c   Section        4  ecp_curves.o(.data)
    one                                      0x2000041c   Data           4  ecp_curves.o(.data)
    .data                                    0x20000420   Section        4  hmac_drbg.o(.data)
    test_offset                              0x20000420   Data           4  hmac_drbg.o(.data)
    .data                                    0x20000424   Section       12  platform.o(.data)
    .data                                    0x20000430   Section        4  ssl_ciphersuites.o(.data)
    supported_init                           0x20000430   Data           4  ssl_ciphersuites.o(.data)
    .data                                    0x20000434   Section       71  ssl_tls.o(.data)
    mfl_code_to_length                       0x20000434   Data          20  ssl_tls.o(.data)
    ssl_preset_default_hashes                0x20000448   Data          24  ssl_tls.o(.data)
    ssl_preset_suiteb_ciphersuites           0x20000460   Data          12  ssl_tls.o(.data)
    ssl_preset_suiteb_hashes                 0x2000046c   Data          12  ssl_tls.o(.data)
    ssl_preset_suiteb_curves                 0x20000478   Data           3  ssl_tls.o(.data)
    .data                                    0x2000047b   Section        1  lwip_api_msg.o(.data)
    .data                                    0x2000047c   Section       68  lwip_err.o(.data)
    err_strerr                               0x2000047c   Data          68  lwip_err.o(.data)
    .data                                    0x200004c0   Section       20  lwip_netdb.o(.data)
    s_aliases                                0x200004c4   Data           4  lwip_netdb.o(.data)
    s_hostent_addr                           0x200004c8   Data           4  lwip_netdb.o(.data)
    s_phostent_addr                          0x200004cc   Data           8  lwip_netdb.o(.data)
    .data                                    0x200004d4   Section        8  lwip_sockets.o(.data)
    select_cb_list                           0x200004d4   Data           4  lwip_sockets.o(.data)
    select_cb_ctr                            0x200004d8   Data           4  lwip_sockets.o(.data)
    .data                                    0x200004dc   Section       16  lwip_tcpip.o(.data)
    tcpip_init_done                          0x200004dc   Data           4  lwip_tcpip.o(.data)
    tcpip_init_done_arg                      0x200004e0   Data           4  lwip_tcpip.o(.data)
    mbox                                     0x200004e4   Data           4  lwip_tcpip.o(.data)
    .data                                    0x200004ec   Section       12  lwip_sys_arch.o(.data)
    sys_sem                                  0x200004f4   Data           4  lwip_sys_arch.o(.data)
    .data                                    0x200004f8   Section       20  lwip_dns.o(.data)
    dns_pcbs                                 0x200004f8   Data           8  lwip_dns.o(.data)
    dns_last_pcb_idx                         0x20000500   Data           1  lwip_dns.o(.data)
    dns_seqno                                0x20000501   Data           1  lwip_dns.o(.data)
    dns_servers                              0x20000504   Data           8  lwip_dns.o(.data)
    .data                                    0x2000050c   Section       16  lwip_mem.o(.data)
    ram                                      0x2000050c   Data           4  lwip_mem.o(.data)
    ram_end                                  0x20000510   Data           4  lwip_mem.o(.data)
    lfree                                    0x20000514   Data           4  lwip_mem.o(.data)
    mem_mutex                                0x20000518   Data           4  lwip_mem.o(.data)
    .data                                    0x2000051c   Section       64  lwip_memp.o(.data)
    memp_tab_UDP_PCB                         0x2000051c   Data           4  lwip_memp.o(.data)
    memp_tab_TCP_PCB                         0x20000520   Data           4  lwip_memp.o(.data)
    memp_tab_TCP_PCB_LISTEN                  0x20000528   Data           4  lwip_memp.o(.data)
    memp_tab_TCP_SEG                         0x2000052c   Data           4  lwip_memp.o(.data)
    memp_tab_REASSDATA                       0x20000530   Data           4  lwip_memp.o(.data)
    memp_tab_FRAG_PBUF                       0x20000534   Data           4  lwip_memp.o(.data)
    memp_tab_NETBUF                          0x20000538   Data           4  lwip_memp.o(.data)
    memp_tab_NETCONN                         0x2000053c   Data           4  lwip_memp.o(.data)
    memp_tab_TCPIP_MSG_API                   0x20000540   Data           4  lwip_memp.o(.data)
    memp_tab_TCPIP_MSG_INPKT                 0x20000544   Data           4  lwip_memp.o(.data)
    memp_tab_IGMP_GROUP                      0x20000548   Data           4  lwip_memp.o(.data)
    memp_tab_SYS_TIMEOUT                     0x2000054c   Data           4  lwip_memp.o(.data)
    memp_tab_NETDB                           0x20000550   Data           4  lwip_memp.o(.data)
    memp_tab_PBUF                            0x20000554   Data           4  lwip_memp.o(.data)
    memp_tab_PBUF_POOL                       0x20000558   Data           4  lwip_memp.o(.data)
    .data                                    0x2000055c   Section        9  lwip_netif.o(.data)
    netif_num                                0x20000564   Data           1  lwip_netif.o(.data)
    .data                                    0x20000568   Section       27  lwip_tcp.o(.data)
    tcp_port                                 0x20000568   Data           2  lwip_tcp.o(.data)
    tcp_timer                                0x20000581   Data           1  lwip_tcp.o(.data)
    tcp_timer_ctr                            0x20000582   Data           1  lwip_tcp.o(.data)
    .data                                    0x20000584   Section       40  lwip_tcp_in.o(.data)
    tcphdr                                   0x20000584   Data           4  lwip_tcp_in.o(.data)
    tcphdr_optlen                            0x20000588   Data           2  lwip_tcp_in.o(.data)
    tcphdr_opt1len                           0x2000058a   Data           2  lwip_tcp_in.o(.data)
    tcphdr_opt2                              0x2000058c   Data           4  lwip_tcp_in.o(.data)
    tcp_optidx                               0x20000590   Data           2  lwip_tcp_in.o(.data)
    seqno                                    0x20000594   Data           4  lwip_tcp_in.o(.data)
    ackno                                    0x20000598   Data           4  lwip_tcp_in.o(.data)
    recv_acked                               0x2000059c   Data           2  lwip_tcp_in.o(.data)
    tcplen                                   0x2000059e   Data           2  lwip_tcp_in.o(.data)
    flags                                    0x200005a0   Data           1  lwip_tcp_in.o(.data)
    recv_flags                               0x200005a1   Data           1  lwip_tcp_in.o(.data)
    recv_data                                0x200005a4   Data           4  lwip_tcp_in.o(.data)
    .data                                    0x200005ac   Section       12  lwip_timeouts.o(.data)
    next_timeout                             0x200005ac   Data           4  lwip_timeouts.o(.data)
    timeouts_last_time                       0x200005b0   Data           4  lwip_timeouts.o(.data)
    tcpip_tcp_timer_active                   0x200005b4   Data           4  lwip_timeouts.o(.data)
    .data                                    0x200005b8   Section        8  lwip_udp.o(.data)
    udp_port                                 0x200005b8   Data           2  lwip_udp.o(.data)
    .data                                    0x200005c0   Section        8  lwip_igmp.o(.data)
    allsystems                               0x200005c0   Data           4  lwip_igmp.o(.data)
    allrouters                               0x200005c4   Data           4  lwip_igmp.o(.data)
    .data                                    0x200005c8   Section        8  lwip_ip4.o(.data)
    ip_id                                    0x200005c8   Data           2  lwip_ip4.o(.data)
    ip4_default_multicast_netif              0x200005cc   Data           4  lwip_ip4.o(.data)
    .data                                    0x200005d0   Section        6  lwip_ip4_frag.o(.data)
    reassdatagrams                           0x200005d0   Data           4  lwip_ip4_frag.o(.data)
    ip_reass_pbufcount                       0x200005d4   Data           2  lwip_ip4_frag.o(.data)
    .data                                    0x200005d8   Section        8  lwip_magic.o(.data)
    magic_randcount                          0x200005d8   Data           4  lwip_magic.o(.data)
    magic_randomseed                         0x200005dc   Data           4  lwip_magic.o(.data)
    .data                                    0x200005e0   Section        4  lwip_ppp.o(.data)
    memp_tab_PPP_PCB                         0x200005e0   Data           4  lwip_ppp.o(.data)
    .data                                    0x200005e4   Section        4  lwip_pppos.o(.data)
    memp_tab_PPPOS_PCB                       0x200005e4   Data           4  lwip_pppos.o(.data)
    .data                                    0x200005e8   Section       17  lwip_utils.o(.data)
    hexchars                                 0x200005e8   Data          17  lwip_utils.o(.data)
    .data                                    0x200005fc   Section        4  lwip_tcp_isn.o(.data)
    base_time                                0x200005fc   Data           4  lwip_tcp_isn.o(.data)
    .data                                    0x20000600   Section       24  lwip_stack.o(.data)
    lwip_inited                              0x20000600   Data           1  lwip_stack.o(.data)
    lwip_connected                           0x20000601   Data           1  lwip_stack.o(.data)
    netif_inited                             0x20000602   Data           1  lwip_stack.o(.data)
    lwip_tcpip_inited                        0x20000604   Data           4  lwip_stack.o(.data)
    lwip_netif_linked                        0x20000608   Data           4  lwip_stack.o(.data)
    lwip_netif_unlinked                      0x2000060c   Data           4  lwip_stack.o(.data)
    lwip_has_addr_state                      0x20000610   Data           1  lwip_stack.o(.data)
    lwip_netif_has_any_addr                  0x20000614   Data           4  lwip_stack.o(.data)
    .data                                    0x20000618   Section       36  ppp_lwip.o(.data)
    connect_error_code                       0x20000618   Data           4  ppp_lwip.o(.data)
    my_stream_in                             0x2000061c   Data           4  ppp_lwip.o(.data)
    my_stream_out                            0x20000620   Data           4  ppp_lwip.o(.data)
    my_ppp_pcb                               0x20000624   Data           4  ppp_lwip.o(.data)
    ppp_active                               0x20000628   Data           1  ppp_lwip.o(.data)
    login                                    0x2000062c   Data           4  ppp_lwip.o(.data)
    pwd                                      0x20000630   Data           4  ppp_lwip.o(.data)
    ppp_close_sem                            0x20000634   Data           4  ppp_lwip.o(.data)
    connection_status_cb                     0x20000638   Data           4  ppp_lwip.o(.data)
    .data                                    0x2000063c   Section        4  stdin.o(.data)
    .data                                    0x20000640   Section        4  stdout.o(.data)
    .data                                    0x20000644   Section        4  stderr.o(.data)
    .data                                    0x20000648   Section        4  rand.o(.data)
    _rand_state                              0x20000648   Data           4  rand.o(.data)
    .data                                    0x2000064c   Section        4  mvars.o(.data)
    .data                                    0x20000650   Section        4  mvars.o(.data)
    .data                                    0x20000654   Section        4  errno.o(.data)
    _errno                                   0x20000654   Data           4  errno.o(.data)
    .bss                                     0x20000658   Section       64  queue.o(.bss)
    .bss                                     0x20000698   Section      240  tasks.o(.bss)
    pxReadyTasksLists                        0x20000698   Data         140  tasks.o(.bss)
    xDelayedTaskList1                        0x20000724   Data          20  tasks.o(.bss)
    xDelayedTaskList2                        0x20000738   Data          20  tasks.o(.bss)
    xPendingReadyList                        0x2000074c   Data          20  tasks.o(.bss)
    xTasksWaitingTermination                 0x20000760   Data          20  tasks.o(.bss)
    xSuspendedTaskList                       0x20000774   Data          20  tasks.o(.bss)
    .bss                                     0x20000788   Section       32  stm32f4xx_hal_flash.o(.bss)
    .bss                                     0x200007a8   Section       60  stm32f4xx_hal_timebase_tim.o(.bss)
    .bss                                     0x200007e4   Section     1868  main.o(.bss)
    .bss                                     0x20000f30   Section      676  system_config.o(.bss)
    tMcuResetTimeout                         0x200011c8   Data          12  system_config.o(.bss)
    .bss                                     0x200011d4   Section       24  shadow_thing.o(.bss)
    .bss                                     0x200011ec   Section       48  ntp_server.o(.bss)
    .bss                                     0x2000121c   Section       36  watchdog.o(.bss)
    .bss                                     0x20001240   Section       16  sms_task.o(.bss)
    .bss                                     0x20001250   Section       48  led.o(.bss)
    .bss                                     0x20001280   Section       24  ota_backup_server.o(.bss)
    .bss                                     0x20001298   Section      128  power_sensor.o(.bss)
    .bss                                     0x20001318   Section     1923  elster_tasks.o(.bss)
    buffer                                   0x2000199c   Data         255  elster_tasks.o(.bss)
    .bss                                     0x20001a9c   Section     1552  uart1.o(.bss)
    .bss                                     0x200020ac   Section     1128  uart5.o(.bss)
    .bss                                     0x20002514   Section     1128  uart4.o(.bss)
    .bss                                     0x2000297c   Section      784  uart6.o(.bss)
    .bss                                     0x20002c8c   Section       12  app_config_task.o(.bss)
    .bss                                     0x20002c98   Section      572  uart_config_task.o(.bss)
    .bss                                     0x20002ed4   Section      212  ampm_gsm_call.o(.bss)
    .bss                                     0x20002fa8   Section      144  ampm_gsm_common.o(.bss)
    .bss                                     0x20003038   Section       12  ampm_gsm_dial_up.o(.bss)
    .bss                                     0x20003044   Section      488  ampm_gsm_io.o(.bss)
    buffer                                   0x200031ac   Data         128  ampm_gsm_io.o(.bss)
    .bss                                     0x2000322c   Section      436  ampm_gsm_main_task.o(.bss)
    .bss                                     0x200033e0   Section      348  ampm_gsm_sms.o(.bss)
    .bss                                     0x2000353c   Section      308  ampm_gsm_startup.o(.bss)
    .bss                                     0x20003670   Section       32  at_command_parser.o(.bss)
    incomingCallPhoneNo                      0x20003680   Data          16  at_command_parser.o(.bss)
    .bss                                     0x20003690   Section      528  comm.o(.bss)
    .bss                                     0x200038a0   Section     6412  aws_iot_shadow_json.o(.bss)
    shadowJsonParser                         0x200038a0   Data          12  aws_iot_shadow_json.o(.bss)
    jsonTokenStruct                          0x200038ac   Data        6400  aws_iot_shadow_json.o(.bss)
    .bss                                     0x200051ac   Section    12676  aws_iot_shadow_records.o(.bss)
    tokenTable                               0x20006a30   Data        6400  aws_iot_shadow_records.o(.bss)
    .bss                                     0x20008330   Section       52  cipher_wrap.o(.bss)
    .bss                                     0x20008364   Section       44  memory_buffer_alloc.o(.bss)
    heap                                     0x20008364   Data          44  memory_buffer_alloc.o(.bss)
    .bss                                     0x20008390   Section      124  ssl_ciphersuites.o(.bss)
    supported_ciphersuites                   0x20008390   Data         124  ssl_ciphersuites.o(.bss)
    .bss                                     0x2000840c   Section      149  lwip_netdb.o(.bss)
    s_hostent                                0x2000840c   Data          20  lwip_netdb.o(.bss)
    s_hostname                               0x20008420   Data         129  lwip_netdb.o(.bss)
    .bss                                     0x200084a4   Section      192  lwip_sockets.o(.bss)
    sockets                                  0x200084ec   Data         120  lwip_sockets.o(.bss)
    .bss                                     0x20008564   Section      312  lwip_dns.o(.bss)
    dns_table                                0x20008564   Data         288  lwip_dns.o(.bss)
    dns_requests                             0x20008684   Data          24  lwip_dns.o(.bss)
    .bss                                     0x2000869c   Section       24  lwip_ip.o(.bss)
    .bss                                     0x200086b4   Section     4115  lwip_mem.o(.bss)
    .bss                                     0x200096c8   Section    15472  lwip_memp.o(.bss)
    memp_stats_UDP_PCB                       0x20009870   Data          16  lwip_memp.o(.bss)
    memp_stats_TCP_PCB                       0x20009c58   Data          16  lwip_memp.o(.bss)
    memp_stats_TCP_PCB_LISTEN                0x20009c68   Data          16  lwip_memp.o(.bss)
    memp_stats_TCP_SEG                       0x2000a03c   Data          16  lwip_memp.o(.bss)
    memp_stats_REASSDATA                     0x2000a1cc   Data          16  lwip_memp.o(.bss)
    memp_stats_FRAG_PBUF                     0x2000a5dc   Data          16  lwip_memp.o(.bss)
    memp_stats_NETBUF                        0x2000a7d0   Data          16  lwip_memp.o(.bss)
    memp_stats_NETCONN                       0x2000aa0c   Data          16  lwip_memp.o(.bss)
    memp_stats_TCPIP_MSG_API                 0x2000ac00   Data          16  lwip_memp.o(.bss)
    memp_stats_TCPIP_MSG_INPKT               0x2000adf4   Data          16  lwip_memp.o(.bss)
    memp_stats_IGMP_GROUP                    0x2000afe8   Data          16  lwip_memp.o(.bss)
    memp_stats_SYS_TIMEOUT                   0x2000b3bc   Data          16  lwip_memp.o(.bss)
    memp_stats_NETDB                         0x2000b4b0   Data          16  lwip_memp.o(.bss)
    memp_stats_PBUF                          0x2000b85c   Data          16  lwip_memp.o(.bss)
    memp_stats_PBUF_POOL                     0x2000d328   Data          16  lwip_memp.o(.bss)
    .bss                                     0x2000d338   Section       96  lwip_stats.o(.bss)
    .bss                                     0x2000d398   Section       16  lwip_tcp_in.o(.bss)
    inseg                                    0x2000d398   Data          16  lwip_tcp_in.o(.bss)
    .bss                                     0x2000d3a8   Section       16  lwip_ip4_addr.o(.bss)
    str                                      0x2000d3a8   Data          16  lwip_ip4_addr.o(.bss)
    .bss                                     0x2000d3b8   Section       16  lwip_magic.o(.bss)
    magic_randpool                           0x2000d3b8   Data          16  lwip_magic.o(.bss)
    .bss                                     0x2000d3c8   Section      496  lwip_ppp.o(.bss)
    memp_stats_PPP_PCB                       0x2000d5a8   Data          16  lwip_ppp.o(.bss)
    .bss                                     0x2000d5b8   Section      160  lwip_pppos.o(.bss)
    memp_stats_PPPOS_PCB                     0x2000d648   Data          16  lwip_pppos.o(.bss)
    .bss                                     0x2000d658   Section       64  lwip_tcp_isn.o(.bss)
    input                                    0x2000d658   Data          64  lwip_tcp_isn.o(.bss)
    .bss                                     0x2000d698   Section       90  lwip_stack.o(.bss)
    lwip_mac_address                         0x2000d6e0   Data          18  lwip_stack.o(.bss)
    .bss                                     0x2000d6f2   Section       48  ppp_lwip.o(.bss)
    ip_addr                                  0x2000d6f2   Data          16  ppp_lwip.o(.bss)
    netmask                                  0x2000d702   Data          16  ppp_lwip.o(.bss)
    gwaddr                                   0x2000d712   Data          16  ppp_lwip.o(.bss)
    HEAP                                     0x2000d728   Section    65536  startup_stm32f407xx.o(HEAP)
    STACK                                    0x2001d728   Section     4096  startup_stm32f407xx.o(STACK)

    Global Symbols

    Symbol Name                              Value     Ov Type        Size  Object(Section)

    BuildAttributes$$THM_ISAv4$E$P$D$K$B$S$7EM$VFPi3$EXTD16$VFPS$VFMA$PE$A:L22UL41UL21$X:L11$S22US41US21$IEEE1$IW$USESV6$~STKCKD$USESV7$~SHL$OTIME$ROPI$EBA8$MICROLIB$REQ8$PRES8$EABIv2 0x00000000   Number         0  anon$$obj.o ABSOLUTE
    __ARM_use_no_argv                        0x00000000   Number         0  main.o ABSOLUTE
    _printf_a                                0x00000000   Number         0  stubs.o ABSOLUTE
    _printf_c                                0x00000000   Number         0  stubs.o ABSOLUTE
    _printf_charcount                        0x00000000   Number         0  stubs.o ABSOLUTE
    _printf_d                                0x00000000   Number         0  stubs.o ABSOLUTE
    _printf_e                                0x00000000   Number         0  stubs.o ABSOLUTE
    _printf_f                                0x00000000   Number         0  stubs.o ABSOLUTE
    _printf_flags                            0x00000000   Number         0  stubs.o ABSOLUTE
    _printf_fp_dec                           0x00000000   Number         0  stubs.o ABSOLUTE
    _printf_fp_hex                           0x00000000   Number         0  stubs.o ABSOLUTE
    _printf_g                                0x00000000   Number         0  stubs.o ABSOLUTE
    _printf_i                                0x00000000   Number         0  stubs.o ABSOLUTE
    _printf_int_dec                          0x00000000   Number         0  stubs.o ABSOLUTE
    _printf_l                                0x00000000   Number         0  stubs.o ABSOLUTE
    _printf_lc                               0x00000000   Number         0  stubs.o ABSOLUTE
    _printf_ll                               0x00000000   Number         0  stubs.o ABSOLUTE
    _printf_lld                              0x00000000   Number         0  stubs.o ABSOLUTE
    _printf_lli                              0x00000000   Number         0  stubs.o ABSOLUTE
    _printf_llo                              0x00000000   Number         0  stubs.o ABSOLUTE
    _printf_llu                              0x00000000   Number         0  stubs.o ABSOLUTE
    _printf_llx                              0x00000000   Number         0  stubs.o ABSOLUTE
    _printf_longlong_dec                     0x00000000   Number         0  stubs.o ABSOLUTE
    _printf_longlong_hex                     0x00000000   Number         0  stubs.o ABSOLUTE
    _printf_longlong_oct                     0x00000000   Number         0  stubs.o ABSOLUTE
    _printf_ls                               0x00000000   Number         0  stubs.o ABSOLUTE
    _printf_mbtowc                           0x00000000   Number         0  stubs.o ABSOLUTE
    _printf_n                                0x00000000   Number         0  stubs.o ABSOLUTE
    _printf_o                                0x00000000   Number         0  stubs.o ABSOLUTE
    _printf_p                                0x00000000   Number         0  stubs.o ABSOLUTE
    _printf_percent                          0x00000000   Number         0  stubs.o ABSOLUTE
    _printf_pre_padding                      0x00000000   Number         0  stubs.o ABSOLUTE
    _printf_return_value                     0x00000000   Number         0  stubs.o ABSOLUTE
    _printf_s                                0x00000000   Number         0  stubs.o ABSOLUTE
    _printf_sizespec                         0x00000000   Number         0  stubs.o ABSOLUTE
    _printf_str                              0x00000000   Number         0  stubs.o ABSOLUTE
    _printf_truncate_signed                  0x00000000   Number         0  stubs.o ABSOLUTE
    _printf_truncate_unsigned                0x00000000   Number         0  stubs.o ABSOLUTE
    _printf_u                                0x00000000   Number         0  stubs.o ABSOLUTE
    _printf_wc                               0x00000000   Number         0  stubs.o ABSOLUTE
    _printf_wctomb                           0x00000000   Number         0  stubs.o ABSOLUTE
    _printf_widthprec                        0x00000000   Number         0  stubs.o ABSOLUTE
    _printf_x                                0x00000000   Number         0  stubs.o ABSOLUTE
    __cpp_initialize__aeabi_                  - Undefined Weak Reference
    __cxa_finalize                            - Undefined Weak Reference
    _clock_init                               - Undefined Weak Reference
    _microlib_exit                            - Undefined Weak Reference
    _scanf_longlong                           - Undefined Weak Reference
    __Vectors_Size                           0x00000188   Number         0  startup_stm32f407xx.o ABSOLUTE
    __Vectors                                0x0800c000   Data           4  startup_stm32f407xx.o(RESET)
    __Vectors_End                            0x0800c188   Data           0  startup_stm32f407xx.o(RESET)
    __main                                   0x0800c189   Thumb Code     0  entry.o(.ARM.Collect$$$$00000000)
    _main_stk                                0x0800c189   Thumb Code     0  entry2.o(.ARM.Collect$$$$00000001)
    _main_scatterload                        0x0800c18d   Thumb Code     0  entry5.o(.ARM.Collect$$$$00000004)
    __main_after_scatterload                 0x0800c191   Thumb Code     0  entry5.o(.ARM.Collect$$$$00000004)
    _main_clock                              0x0800c191   Thumb Code     0  entry7b.o(.ARM.Collect$$$$00000008)
    _main_cpp_init                           0x0800c191   Thumb Code     0  entry8b.o(.ARM.Collect$$$$0000000A)
    _main_init                               0x0800c191   Thumb Code     0  entry9a.o(.ARM.Collect$$$$0000000B)
    __rt_final_cpp                           0x0800c199   Thumb Code     0  entry10a.o(.ARM.Collect$$$$0000000D)
    __rt_final_exit                          0x0800c199   Thumb Code     0  entry11a.o(.ARM.Collect$$$$0000000F)
    SVC_Handler                              0x0800c19d   Thumb Code    28  port.o(.emb_text)
    __asm___6_port_c_39a90d8d__prvStartFirstTask 0x0800c1bd   Thumb Code    28  port.o(.emb_text)
    __asm___6_port_c_39a90d8d__prvEnableVFP  0x0800c1dd   Thumb Code    16  port.o(.emb_text)
    PendSV_Handler                           0x0800c1f1   Thumb Code    92  port.o(.emb_text)
    vPortGetIPSR                             0x0800c251   Thumb Code     6  port.o(.emb_text)
    pvPortMalloc                             0x0800c31b   Thumb Code   306  heap_4.o(.text)
    vPortFree                                0x0800c44d   Thumb Code   140  heap_4.o(.text)
    xPortGetFreeHeapSize                     0x0800c4d9   Thumb Code     6  heap_4.o(.text)
    xPortGetMinimumEverFreeHeapSize          0x0800c4df   Thumb Code     6  heap_4.o(.text)
    vPortInitialiseBlocks                    0x0800c4e5   Thumb Code     2  heap_4.o(.text)
    xQueueGenericReset                       0x0800c501   Thumb Code   146  queue.o(.text)
    xQueueGenericCreate                      0x0800c5bd   Thumb Code    88  queue.o(.text)
    xQueueGenericSend                        0x0800c72d   Thumb Code   420  queue.o(.text)
    xQueueCreateMutex                        0x0800c8ed   Thumb Code    34  queue.o(.text)
    xQueueGiveMutexRecursive                 0x0800c90f   Thumb Code    76  queue.o(.text)
    xQueueGenericReceive                     0x0800c99f   Thumb Code   446  queue.o(.text)
    xQueueTakeMutexRecursive                 0x0800cb5d   Thumb Code    82  queue.o(.text)
    xQueueCreateCountingSemaphore            0x0800cbaf   Thumb Code    92  queue.o(.text)
    xQueueGenericSendFromISR                 0x0800cc0b   Thumb Code   248  queue.o(.text)
    xQueueGiveFromISR                        0x0800cd03   Thumb Code   224  queue.o(.text)
    xQueueReceiveFromISR                     0x0800cde3   Thumb Code   210  queue.o(.text)
    xQueuePeekFromISR                        0x0800ceb5   Thumb Code   176  queue.o(.text)
    uxQueueMessagesWaiting                   0x0800cf65   Thumb Code    42  queue.o(.text)
    uxQueueSpacesAvailable                   0x0800cf8f   Thumb Code    48  queue.o(.text)
    uxQueueMessagesWaitingFromISR            0x0800cfbf   Thumb Code    30  queue.o(.text)
    vQueueUnregisterQueue                    0x0800cfdd   Thumb Code    44  queue.o(.text)
    vQueueDelete                             0x0800d009   Thumb Code    44  queue.o(.text)
    uxQueueGetQueueNumber                    0x0800d035   Thumb Code     6  queue.o(.text)
    vQueueSetQueueNumber                     0x0800d03b   Thumb Code     4  queue.o(.text)
    ucQueueGetQueueType                      0x0800d03f   Thumb Code     8  queue.o(.text)
    xQueueIsQueueEmptyFromISR                0x0800d047   Thumb Code    38  queue.o(.text)
    xQueueIsQueueFullFromISR                 0x0800d06d   Thumb Code    42  queue.o(.text)
    vQueueAddToRegistry                      0x0800d097   Thumb Code    38  queue.o(.text)
    pcQueueGetName                           0x0800d0bd   Thumb Code    38  queue.o(.text)
    pxPortInitialiseStack                    0x0800d125   Thumb Code    38  port.o(.text)
    vPortSetupTimerInterrupt                 0x0800d14b   Thumb Code    26  port.o(.text)
    xPortStartScheduler                      0x0800d165   Thumb Code   288  port.o(.text)
    vPortEndScheduler                        0x0800d285   Thumb Code    42  port.o(.text)
    vPortEnterCritical                       0x0800d2af   Thumb Code    78  port.o(.text)
    vPortExitCritical                        0x0800d2fd   Thumb Code    56  port.o(.text)
    xPortSysTickHandler                      0x0800d335   Thumb Code    48  port.o(.text)
    vPortValidateInterruptPriority           0x0800d365   Thumb Code   108  port.o(.text)
    osKernelStart                            0x0800d425   Thumb Code    10  cmsis_os.o(.text)
    osKernelRunning                          0x0800d42f   Thumb Code    18  cmsis_os.o(.text)
    osKernelSysTick                          0x0800d441   Thumb Code    20  cmsis_os.o(.text)
    osThreadCreate                           0x0800d455   Thumb Code    48  cmsis_os.o(.text)
    osThreadGetId                            0x0800d485   Thumb Code     8  cmsis_os.o(.text)
    osThreadTerminate                        0x0800d48d   Thumb Code    14  cmsis_os.o(.text)
    osThreadYield                            0x0800d49b   Thumb Code    20  cmsis_os.o(.text)
    osThreadSetPriority                      0x0800d4af   Thumb Code    26  cmsis_os.o(.text)
    osThreadGetPriority                      0x0800d4c9   Thumb Code    38  cmsis_os.o(.text)
    osDelay                                  0x0800d4ef   Thumb Code    24  cmsis_os.o(.text)
    osTimerCreate                            0x0800d507   Thumb Code     6  cmsis_os.o(.text)
    osTimerStart                             0x0800d50d   Thumb Code     8  cmsis_os.o(.text)
    osTimerStop                              0x0800d515   Thumb Code     8  cmsis_os.o(.text)
    osTimerDelete                            0x0800d51d   Thumb Code     8  cmsis_os.o(.text)
    osSignalSet                              0x0800d525   Thumb Code    92  cmsis_os.o(.text)
    osSignalWait                             0x0800d581   Thumb Code    98  cmsis_os.o(.text)
    osMutexCreate                            0x0800d5e3   Thumb Code    12  cmsis_os.o(.text)
    osMutexWait                              0x0800d5ef   Thumb Code   104  cmsis_os.o(.text)
    osMutexRelease                           0x0800d657   Thumb Code    76  cmsis_os.o(.text)
    osMutexDelete                            0x0800d6a3   Thumb Code    24  cmsis_os.o(.text)
    osSemaphoreCreate                        0x0800d6bb   Thumb Code    50  cmsis_os.o(.text)
    osSemaphoreWait                          0x0800d6ed   Thumb Code   104  cmsis_os.o(.text)
    osSemaphoreRelease                       0x0800d755   Thumb Code    76  cmsis_os.o(.text)
    osSemaphoreDelete                        0x0800d7a1   Thumb Code    24  cmsis_os.o(.text)
    osPoolCreate                             0x0800d7b9   Thumb Code   112  cmsis_os.o(.text)
    osPoolAlloc                              0x0800d829   Thumb Code   128  cmsis_os.o(.text)
    osPoolCAlloc                             0x0800d8a9   Thumb Code    22  cmsis_os.o(.text)
    osPoolFree                               0x0800d8bf   Thumb Code    74  cmsis_os.o(.text)
    osMessageCreate                          0x0800d909   Thumb Code    18  cmsis_os.o(.text)
    osMessagePut                             0x0800d91b   Thumb Code    92  cmsis_os.o(.text)
    osMessageGet                             0x0800d977   Thumb Code   152  cmsis_os.o(.text)
    osMailCreate                             0x0800da0f   Thumb Code   122  cmsis_os.o(.text)
    osMailAlloc                              0x0800da89   Thumb Code    24  cmsis_os.o(.text)
    osMailCAlloc                             0x0800daa1   Thumb Code    44  cmsis_os.o(.text)
    osMailPut                                0x0800dacd   Thumb Code    90  cmsis_os.o(.text)
    osMailGet                                0x0800db27   Thumb Code   148  cmsis_os.o(.text)
    osMailFree                               0x0800dbbb   Thumb Code    22  cmsis_os.o(.text)
    osSystickHandler                         0x0800dbd1   Thumb Code    16  cmsis_os.o(.text)
    osThreadGetState                         0x0800dbe1   Thumb Code    58  cmsis_os.o(.text)
    osThreadIsSuspended                      0x0800dc1b   Thumb Code    22  cmsis_os.o(.text)
    osThreadSuspend                          0x0800dc31   Thumb Code    14  cmsis_os.o(.text)
    osThreadResume                           0x0800dc3f   Thumb Code    46  cmsis_os.o(.text)
    osThreadSuspendAll                       0x0800dc6d   Thumb Code    10  cmsis_os.o(.text)
    osThreadResumeAll                        0x0800dc77   Thumb Code    18  cmsis_os.o(.text)
    osDelayUntil                             0x0800dc89   Thumb Code    28  cmsis_os.o(.text)
    osAbortDelay                             0x0800dca5   Thumb Code     6  cmsis_os.o(.text)
    osThreadList                             0x0800dcab   Thumb Code    14  cmsis_os.o(.text)
    osMessagePeek                            0x0800dcb9   Thumb Code    88  cmsis_os.o(.text)
    osMessageWaiting                         0x0800dd11   Thumb Code    26  cmsis_os.o(.text)
    osMessageAvailableSpace                  0x0800dd2b   Thumb Code    18  cmsis_os.o(.text)
    osMessageDelete                          0x0800dd3d   Thumb Code    24  cmsis_os.o(.text)
    osRecursiveMutexCreate                   0x0800dd55   Thumb Code    12  cmsis_os.o(.text)
    osRecursiveMutexRelease                  0x0800dd61   Thumb Code    22  cmsis_os.o(.text)
    osRecursiveMutexWait                     0x0800dd77   Thumb Code    50  cmsis_os.o(.text)
    osSemaphoreGetCount                      0x0800dda9   Thumb Code    12  cmsis_os.o(.text)
    xTaskCreate                              0x0800df4d   Thumb Code    96  tasks.o(.text)
    vTaskDelete                              0x0800dfe9   Thumb Code   202  tasks.o(.text)
    xTaskIncrementTick                       0x0800e0b3   Thumb Code   380  tasks.o(.text)
    xTaskResumeAll                           0x0800e22f   Thumb Code   224  tasks.o(.text)
    vTaskSuspendAll                          0x0800e38b   Thumb Code    12  tasks.o(.text)
    vTaskDelayUntil                          0x0800e397   Thumb Code   200  tasks.o(.text)
    vTaskDelay                               0x0800e45f   Thumb Code    82  tasks.o(.text)
    eTaskGetState                            0x0800e4b1   Thumb Code   112  tasks.o(.text)
    uxTaskPriorityGet                        0x0800e521   Thumb Code    30  tasks.o(.text)
    uxTaskPriorityGetFromISR                 0x0800e53f   Thumb Code    62  tasks.o(.text)
    vTaskPrioritySet                         0x0800e57d   Thumb Code   324  tasks.o(.text)
    vTaskSwitchContext                       0x0800e6c1   Thumb Code   226  tasks.o(.text)
    vTaskSuspend                             0x0800e7a3   Thumb Code   196  tasks.o(.text)
    vTaskResume                              0x0800e8b7   Thumb Code   128  tasks.o(.text)
    xTaskResumeFromISR                       0x0800e937   Thumb Code   158  tasks.o(.text)
    vTaskStartScheduler                      0x0800ea8b   Thumb Code   112  tasks.o(.text)
    vTaskEndScheduler                        0x0800eafb   Thumb Code    32  tasks.o(.text)
    xTaskGetTickCount                        0x0800eb1b   Thumb Code     6  tasks.o(.text)
    xTaskGetTickCountFromISR                 0x0800eb21   Thumb Code    16  tasks.o(.text)
    uxTaskGetNumberOfTasks                   0x0800eb31   Thumb Code     6  tasks.o(.text)
    pcTaskGetName                            0x0800eb37   Thumb Code    44  tasks.o(.text)
    vTaskGetInfo                             0x0800eb79   Thumb Code   114  tasks.o(.text)
    uxTaskGetSystemState                     0x0800ec55   Thumb Code   154  tasks.o(.text)
    vTaskPlaceOnEventList                    0x0800ecef   Thumb Code    52  tasks.o(.text)
    vTaskPlaceOnUnorderedEventList           0x0800ed23   Thumb Code   100  tasks.o(.text)
    xTaskRemoveFromEventList                 0x0800ed87   Thumb Code   128  tasks.o(.text)
    xTaskRemoveFromUnorderedEventList        0x0800ee07   Thumb Code   228  tasks.o(.text)
    vTaskSetTimeOutState                     0x0800eeeb   Thumb Code    38  tasks.o(.text)
    xTaskCheckForTimeOut                     0x0800ef11   Thumb Code   132  tasks.o(.text)
    vTaskMissedYield                         0x0800ef95   Thumb Code     8  tasks.o(.text)
    uxTaskGetTaskNumber                      0x0800ef9d   Thumb Code    14  tasks.o(.text)
    vTaskSetTaskNumber                       0x0800efab   Thumb Code     8  tasks.o(.text)
    xTaskGetCurrentTaskHandle                0x0800efb3   Thumb Code     6  tasks.o(.text)
    xTaskGetSchedulerState                   0x0800efb9   Thumb Code    24  tasks.o(.text)
    vTaskPriorityInherit                     0x0800efd1   Thumb Code   164  tasks.o(.text)
    xTaskPriorityDisinherit                  0x0800f075   Thumb Code   188  tasks.o(.text)
    vTaskList                                0x0800f15b   Thumb Code   204  tasks.o(.text)
    vTaskGetRunTimeStats                     0x0800f227   Thumb Code   262  tasks.o(.text)
    uxTaskResetEventItemValue                0x0800f32d   Thumb Code    24  tasks.o(.text)
    pvTaskIncrementMutexHeldCount            0x0800f345   Thumb Code    26  tasks.o(.text)
    ulTaskNotifyTake                         0x0800f35f   Thumb Code   108  tasks.o(.text)
    xTaskNotifyWait                          0x0800f3cb   Thumb Code   150  tasks.o(.text)
    xTaskGenericNotify                       0x0800f461   Thumb Code   242  tasks.o(.text)
    xTaskGenericNotifyFromISR                0x0800f553   Thumb Code   298  tasks.o(.text)
    vTaskNotifyGiveFromISR                   0x0800f67d   Thumb Code   244  tasks.o(.text)
    xTaskNotifyStateClear                    0x0800f771   Thumb Code    48  tasks.o(.text)
    vListInitialise                          0x0800f7ad   Thumb Code    26  list.o(.text)
    vListInitialiseItem                      0x0800f7c7   Thumb Code     6  list.o(.text)
    vListInsertEnd                           0x0800f7cd   Thumb Code    24  list.o(.text)
    vListInsert                              0x0800f7e5   Thumb Code    52  list.o(.text)
    uxListRemove                             0x0800f819   Thumb Code    40  list.o(.text)
    list_init                                0x0800f841   Thumb Code     6  ampm_list.o(.text)
    list_head                                0x0800f847   Thumb Code     6  ampm_list.o(.text)
    list_copy                                0x0800f84d   Thumb Code     6  ampm_list.o(.text)
    list_tail                                0x0800f853   Thumb Code    26  ampm_list.o(.text)
    list_remove                              0x0800f86d   Thumb Code    52  ampm_list.o(.text)
    list_add                                 0x0800f8a1   Thumb Code    36  ampm_list.o(.text)
    list_push                                0x0800f8c5   Thumb Code    22  ampm_list.o(.text)
    list_chop                                0x0800f8db   Thumb Code    48  ampm_list.o(.text)
    list_pop                                 0x0800f90b   Thumb Code    16  ampm_list.o(.text)
    list_length                              0x0800f91b   Thumb Code    18  ampm_list.o(.text)
    list_insert                              0x0800f92d   Thumb Code    28  ampm_list.o(.text)
    list_item_next                           0x0800f949   Thumb Code    12  ampm_list.o(.text)
    ampm_f_putc                              0x0800f955   Thumb Code    18  ampm_sprintf.o(.text)
    ampm_f_puts                              0x0800f967   Thumb Code    42  ampm_sprintf.o(.text)
    ampm_vsprintf                            0x0800f991   Thumb Code   688  ampm_sprintf.o(.text)
    ampm_sprintf                             0x0800fc41   Thumb Code    34  ampm_sprintf.o(.text)
    InitFindData                             0x0800fc63   Thumb Code    24  data_cmp.o(.text)
    FindData                                 0x0800fc7b   Thumb Code    60  data_cmp.o(.text)
    unilen                                   0x0800fcb9   Thumb Code    32  encoding.o(.text)
    big2litel_endian                         0x0800fcd9   Thumb Code    36  encoding.o(.text)
    utf8_to_ucs2                             0x0800fcfd   Thumb Code   126  encoding.o(.text)
    utf8s_to_ucs2s                           0x0800fd7b   Thumb Code    56  encoding.o(.text)
    ucs2_to_utf8                             0x0800fdb3   Thumb Code   182  encoding.o(.text)
    uni_srtsrt                               0x0800fe69   Thumb Code    48  encoding.o(.text)
    gmtime_r                                 0x0800fe9d   Thumb Code   366  m_time.o(.text)
    localtime_r                              0x0801000b   Thumb Code    26  m_time.o(.text)
    mktime                                   0x08010025   Thumb Code  1226  m_time.o(.text)
    RINGBUF_Init                             0x08010505   Thumb Code    30  ringbuf.o(.text)
    RINGBUF_Put                              0x08010523   Thumb Code    42  ringbuf.o(.text)
    RINGBUF_Get                              0x0801054d   Thumb Code    46  ringbuf.o(.text)
    RINGBUF_GetFill                          0x0801057b   Thumb Code    30  ringbuf.o(.text)
    Ampm_CmdAddToList                        0x08010599   Thumb Code    16  sparser.o(.text)
    Ampm_CmdResetList                        0x080105a9   Thumb Code    12  sparser.o(.text)
    Ampm_CmdCheckList_IsEmpty                0x080105b5   Thumb Code    14  sparser.o(.text)
    Ampm_CmdCheck_IsEmpty                    0x080105c3   Thumb Code    14  sparser.o(.text)
    Ampm_CmdTask_IsIdle                      0x080105d1   Thumb Code    22  sparser.o(.text)
    Ampm_SendCmd                             0x080105e7   Thumb Code    52  sparser.o(.text)
    Ampm_SendCmdNow                          0x0801061b   Thumb Code    38  sparser.o(.text)
    Ampm_Cmd_Task                            0x08010641   Thumb Code   332  sparser.o(.text)
    StrParserInit                            0x0801078d   Thumb Code    44  sparser.o(.text)
    StrParserCtl                             0x080107b9   Thumb Code    50  sparser.o(.text)
    StrComnandParser                         0x080107eb   Thumb Code   232  sparser.o(.text)
    SysTick_Init                             0x080108d9   Thumb Code     2  sys_tick.o(.text)
    SysTick_DeInit                           0x080108db   Thumb Code     2  sys_tick.o(.text)
    SysTick_Task                             0x080108dd   Thumb Code    58  sys_tick.o(.text)
    SysTick_Get                              0x08010917   Thumb Code     8  sys_tick.o(.text)
    SysTick_Get64                            0x0801091f   Thumb Code     8  sys_tick.o(.text)
    SysTick_DelayMs                          0x08010927   Thumb Code    24  sys_tick.o(.text)
    InitTimeout                              0x0801093f   Thumb Code    24  sys_tick.o(.text)
    CheckTimeout                             0x08010957   Thumb Code    70  sys_tick.o(.text)
    TimerDelayms                             0x0801099d   Thumb Code    48  sys_tick.o(.text)
    TIME_GetSec                              0x080109d9   Thumb Code   128  sys_time.o(.text)
    SysTimeSetup                             0x08010a59   Thumb Code    40  sys_time.o(.text)
    TIME_GET                                 0x08010a81   Thumb Code     6  sys_time.o(.text)
    UpdateRtcTime                            0x08010a87   Thumb Code    48  sys_time.o(.text)
    TIME_FromGsm                             0x08010ab7   Thumb Code   194  sys_time.o(.text)
    TIME_FromSec                             0x08010b79   Thumb Code    78  sys_time.o(.text)
    TIME_AddSec                              0x08010bc7   Thumb Code    40  sys_time.o(.text)
    fgetc_stdin                              0x08010c05   Thumb Code     6  ampm_filestream.o(.text)
    fputc                                    0x08010c0b   Thumb Code    84  ampm_filestream.o(.text)
    feof                                     0x08010c5f   Thumb Code    34  ampm_filestream.o(.text)
    ftell                                    0x08010c81   Thumb Code    20  ampm_filestream.o(.text)
    fflush                                   0x08010c95   Thumb Code    26  ampm_filestream.o(.text)
    fseek                                    0x08010caf   Thumb Code    52  ampm_filestream.o(.text)
    fgetc                                    0x08010ce3   Thumb Code    64  ampm_filestream.o(.text)
    AmpmFileHandle_Init                      0x08010d23   Thumb Code    22  ampm_filestream.o(.text)
    Reset_Handler                            0x08010d45   Thumb Code     8  startup_stm32f407xx.o(.text)
    ADC_IRQHandler                           0x08010d5f   Thumb Code     0  startup_stm32f407xx.o(.text)
    CAN1_RX0_IRQHandler                      0x08010d5f   Thumb Code     0  startup_stm32f407xx.o(.text)
    CAN1_RX1_IRQHandler                      0x08010d5f   Thumb Code     0  startup_stm32f407xx.o(.text)
    CAN1_SCE_IRQHandler                      0x08010d5f   Thumb Code     0  startup_stm32f407xx.o(.text)
    CAN1_TX_IRQHandler                       0x08010d5f   Thumb Code     0  startup_stm32f407xx.o(.text)
    CAN2_RX0_IRQHandler                      0x08010d5f   Thumb Code     0  startup_stm32f407xx.o(.text)
    CAN2_RX1_IRQHandler                      0x08010d5f   Thumb Code     0  startup_stm32f407xx.o(.text)
    CAN2_SCE_IRQHandler                      0x08010d5f   Thumb Code     0  startup_stm32f407xx.o(.text)
    CAN2_TX_IRQHandler                       0x08010d5f   Thumb Code     0  startup_stm32f407xx.o(.text)
    DCMI_IRQHandler                          0x08010d5f   Thumb Code     0  startup_stm32f407xx.o(.text)
    DMA2_Stream3_IRQHandler                  0x08010d5f   Thumb Code     0  startup_stm32f407xx.o(.text)
    DMA2_Stream4_IRQHandler                  0x08010d5f   Thumb Code     0  startup_stm32f407xx.o(.text)
    DMA2_Stream5_IRQHandler                  0x08010d5f   Thumb Code     0  startup_stm32f407xx.o(.text)
    ETH_IRQHandler                           0x08010d5f   Thumb Code     0  startup_stm32f407xx.o(.text)
    ETH_WKUP_IRQHandler                      0x08010d5f   Thumb Code     0  startup_stm32f407xx.o(.text)
    EXTI0_IRQHandler                         0x08010d5f   Thumb Code     0  startup_stm32f407xx.o(.text)
    EXTI15_10_IRQHandler                     0x08010d5f   Thumb Code     0  startup_stm32f407xx.o(.text)
    EXTI1_IRQHandler                         0x08010d5f   Thumb Code     0  startup_stm32f407xx.o(.text)
    EXTI2_IRQHandler                         0x08010d5f   Thumb Code     0  startup_stm32f407xx.o(.text)
    EXTI3_IRQHandler                         0x08010d5f   Thumb Code     0  startup_stm32f407xx.o(.text)
    EXTI4_IRQHandler                         0x08010d5f   Thumb Code     0  startup_stm32f407xx.o(.text)
    FLASH_IRQHandler                         0x08010d5f   Thumb Code     0  startup_stm32f407xx.o(.text)
    FMC_IRQHandler                           0x08010d5f   Thumb Code     0  startup_stm32f407xx.o(.text)
    FPU_IRQHandler                           0x08010d5f   Thumb Code     0  startup_stm32f407xx.o(.text)
    HASH_RNG_IRQHandler                      0x08010d5f   Thumb Code     0  startup_stm32f407xx.o(.text)
    I2C1_ER_IRQHandler                       0x08010d5f   Thumb Code     0  startup_stm32f407xx.o(.text)
    I2C1_EV_IRQHandler                       0x08010d5f   Thumb Code     0  startup_stm32f407xx.o(.text)
    I2C2_ER_IRQHandler                       0x08010d5f   Thumb Code     0  startup_stm32f407xx.o(.text)
    I2C2_EV_IRQHandler                       0x08010d5f   Thumb Code     0  startup_stm32f407xx.o(.text)
    I2C3_ER_IRQHandler                       0x08010d5f   Thumb Code     0  startup_stm32f407xx.o(.text)
    I2C3_EV_IRQHandler                       0x08010d5f   Thumb Code     0  startup_stm32f407xx.o(.text)
    OTG_FS_IRQHandler                        0x08010d5f   Thumb Code     0  startup_stm32f407xx.o(.text)
    OTG_FS_WKUP_IRQHandler                   0x08010d5f   Thumb Code     0  startup_stm32f407xx.o(.text)
    OTG_HS_EP1_IN_IRQHandler                 0x08010d5f   Thumb Code     0  startup_stm32f407xx.o(.text)
    OTG_HS_EP1_OUT_IRQHandler                0x08010d5f   Thumb Code     0  startup_stm32f407xx.o(.text)
    OTG_HS_IRQHandler                        0x08010d5f   Thumb Code     0  startup_stm32f407xx.o(.text)
    OTG_HS_WKUP_IRQHandler                   0x08010d5f   Thumb Code     0  startup_stm32f407xx.o(.text)
    PVD_IRQHandler                           0x08010d5f   Thumb Code     0  startup_stm32f407xx.o(.text)
    RCC_IRQHandler                           0x08010d5f   Thumb Code     0  startup_stm32f407xx.o(.text)
    RTC_WKUP_IRQHandler                      0x08010d5f   Thumb Code     0  startup_stm32f407xx.o(.text)
    SDIO_IRQHandler                          0x08010d5f   Thumb Code     0  startup_stm32f407xx.o(.text)
    SPI1_IRQHandler                          0x08010d5f   Thumb Code     0  startup_stm32f407xx.o(.text)
    SPI2_IRQHandler                          0x08010d5f   Thumb Code     0  startup_stm32f407xx.o(.text)
    SPI3_IRQHandler                          0x08010d5f   Thumb Code     0  startup_stm32f407xx.o(.text)
    TAMP_STAMP_IRQHandler                    0x08010d5f   Thumb Code     0  startup_stm32f407xx.o(.text)
    TIM1_BRK_TIM9_IRQHandler                 0x08010d5f   Thumb Code     0  startup_stm32f407xx.o(.text)
    TIM1_CC_IRQHandler                       0x08010d5f   Thumb Code     0  startup_stm32f407xx.o(.text)
    TIM1_TRG_COM_TIM11_IRQHandler            0x08010d5f   Thumb Code     0  startup_stm32f407xx.o(.text)
    TIM2_IRQHandler                          0x08010d5f   Thumb Code     0  startup_stm32f407xx.o(.text)
    TIM3_IRQHandler                          0x08010d5f   Thumb Code     0  startup_stm32f407xx.o(.text)
    TIM4_IRQHandler                          0x08010d5f   Thumb Code     0  startup_stm32f407xx.o(.text)
    TIM5_IRQHandler                          0x08010d5f   Thumb Code     0  startup_stm32f407xx.o(.text)
    TIM6_DAC_IRQHandler                      0x08010d5f   Thumb Code     0  startup_stm32f407xx.o(.text)
    TIM7_IRQHandler                          0x08010d5f   Thumb Code     0  startup_stm32f407xx.o(.text)
    TIM8_BRK_TIM12_IRQHandler                0x08010d5f   Thumb Code     0  startup_stm32f407xx.o(.text)
    TIM8_CC_IRQHandler                       0x08010d5f   Thumb Code     0  startup_stm32f407xx.o(.text)
    TIM8_TRG_COM_TIM14_IRQHandler            0x08010d5f   Thumb Code     0  startup_stm32f407xx.o(.text)
    TIM8_UP_TIM13_IRQHandler                 0x08010d5f   Thumb Code     0  startup_stm32f407xx.o(.text)
    WWDG_IRQHandler                          0x08010d5f   Thumb Code     0  startup_stm32f407xx.o(.text)
    FLASH_FlushCaches                        0x08010d69   Thumb Code   114  stm32f4xx_hal_flash_ex.o(.text)
    FLASH_Erase_Sector                       0x08010ddb   Thumb Code    92  stm32f4xx_hal_flash_ex.o(.text)
    HAL_FLASHEx_Erase                        0x08010e67   Thumb Code   172  stm32f4xx_hal_flash_ex.o(.text)
    HAL_FLASHEx_Erase_IT                     0x08010f13   Thumb Code   116  stm32f4xx_hal_flash_ex.o(.text)
    HAL_FLASHEx_OBProgram                    0x08011049   Thumb Code   144  stm32f4xx_hal_flash_ex.o(.text)
    HAL_FLASHEx_OBGetConfig                  0x0801111b   Thumb Code    34  stm32f4xx_hal_flash_ex.o(.text)
    HAL_RNG_Init                             0x08011147   Thumb Code    48  stm32f4xx_hal_rng.o(.text)
    HAL_RNG_DeInit                           0x08011179   Thumb Code    54  stm32f4xx_hal_rng.o(.text)
    HAL_RNG_GenerateRandomNumber             0x080111af   Thumb Code   118  stm32f4xx_hal_rng.o(.text)
    HAL_RNG_GenerateRandomNumber_IT          0x08011225   Thumb Code    68  stm32f4xx_hal_rng.o(.text)
    HAL_RNG_ReadyDataCallback                0x08011269   Thumb Code     2  stm32f4xx_hal_rng.o(.text)
    HAL_RNG_ErrorCallback                    0x0801126b   Thumb Code     2  stm32f4xx_hal_rng.o(.text)
    HAL_RNG_IRQHandler                       0x0801126d   Thumb Code    90  stm32f4xx_hal_rng.o(.text)
    HAL_RNG_GetRandomNumber                  0x080112c7   Thumb Code    24  stm32f4xx_hal_rng.o(.text)
    HAL_RNG_GetRandomNumber_IT               0x080112df   Thumb Code    46  stm32f4xx_hal_rng.o(.text)
    HAL_RNG_ReadLastRandomNumber             0x0801130d   Thumb Code     6  stm32f4xx_hal_rng.o(.text)
    HAL_RNG_GetState                         0x08011313   Thumb Code     6  stm32f4xx_hal_rng.o(.text)
    HAL_DMA_Init                             0x080113f1   Thumb Code   232  stm32f4xx_hal_dma.o(.text)
    HAL_DMA_DeInit                           0x080114d9   Thumb Code    98  stm32f4xx_hal_dma.o(.text)
    HAL_DMA_Start                            0x08011567   Thumb Code   102  stm32f4xx_hal_dma.o(.text)
    HAL_DMA_Start_IT                         0x080115cd   Thumb Code   158  stm32f4xx_hal_dma.o(.text)
    HAL_DMA_Abort                            0x0801166b   Thumb Code   178  stm32f4xx_hal_dma.o(.text)
    HAL_DMA_Abort_IT                         0x0801171d   Thumb Code    40  stm32f4xx_hal_dma.o(.text)
    HAL_DMA_PollForTransfer                  0x08011745   Thumb Code   346  stm32f4xx_hal_dma.o(.text)
    HAL_DMA_IRQHandler                       0x0801189f   Thumb Code   570  stm32f4xx_hal_dma.o(.text)
    HAL_DMA_RegisterCallback                 0x08011ad9   Thumb Code    94  stm32f4xx_hal_dma.o(.text)
    HAL_DMA_UnRegisterCallback               0x08011b37   Thumb Code   124  stm32f4xx_hal_dma.o(.text)
    HAL_DMA_GetState                         0x08011bb3   Thumb Code     8  stm32f4xx_hal_dma.o(.text)
    HAL_DMA_GetError                         0x08011bbb   Thumb Code     6  stm32f4xx_hal_dma.o(.text)
    HAL_RCCEx_PeriphCLKConfig                0x08011bc5   Thumb Code   396  stm32f4xx_hal_rcc_ex.o(.text)
    HAL_RCCEx_GetPeriphCLKConfig             0x08011d51   Thumb Code    54  stm32f4xx_hal_rcc_ex.o(.text)
    HAL_RCCEx_GetPeriphCLKFreq               0x08011d87   Thumb Code   128  stm32f4xx_hal_rcc_ex.o(.text)
    HAL_RCC_DeInit                           0x08011e07   Thumb Code   298  stm32f4xx_hal_rcc_ex.o(.text)
    HAL_RTCEx_SetTimeStamp                   0x08011f5d   Thumb Code   122  stm32f4xx_hal_rtc_ex.o(.text)
    HAL_RTCEx_SetTimeStamp_IT                0x08011fd7   Thumb Code   178  stm32f4xx_hal_rtc_ex.o(.text)
    HAL_RTCEx_DeactivateTimeStamp            0x08012089   Thumb Code    96  stm32f4xx_hal_rtc_ex.o(.text)
    HAL_RTCEx_GetTimeStamp                   0x080120e9   Thumb Code   166  stm32f4xx_hal_rtc_ex.o(.text)
    HAL_RTCEx_SetTamper                      0x0801218f   Thumb Code   124  stm32f4xx_hal_rtc_ex.o(.text)
    HAL_RTCEx_SetTamper_IT                   0x0801220b   Thumb Code   200  stm32f4xx_hal_rtc_ex.o(.text)
    HAL_RTCEx_DeactivateTamper               0x080122d3   Thumb Code    50  stm32f4xx_hal_rtc_ex.o(.text)
    HAL_RTCEx_Tamper2EventCallback           0x08012305   Thumb Code     2  stm32f4xx_hal_rtc_ex.o(.text)
    HAL_RTCEx_Tamper1EventCallback           0x08012307   Thumb Code     2  stm32f4xx_hal_rtc_ex.o(.text)
    HAL_RTCEx_TimeStampEventCallback         0x08012309   Thumb Code     2  stm32f4xx_hal_rtc_ex.o(.text)
    HAL_RTCEx_TamperTimeStampIRQHandler      0x0801230b   Thumb Code   146  stm32f4xx_hal_rtc_ex.o(.text)
    HAL_RTCEx_PollForTimeStampEvent          0x0801239d   Thumb Code    92  stm32f4xx_hal_rtc_ex.o(.text)
    HAL_RTCEx_PollForTamper1Event            0x080123f9   Thumb Code    88  stm32f4xx_hal_rtc_ex.o(.text)
    HAL_RTCEx_PollForTamper2Event            0x08012451   Thumb Code    74  stm32f4xx_hal_rtc_ex.o(.text)
    HAL_RTCEx_SetWakeUpTimer                 0x0801249b   Thumb Code   254  stm32f4xx_hal_rtc_ex.o(.text)
    HAL_RTCEx_SetWakeUpTimer_IT              0x08012599   Thumb Code   316  stm32f4xx_hal_rtc_ex.o(.text)
    HAL_RTCEx_DeactivateWakeUpTimer          0x080126d5   Thumb Code   152  stm32f4xx_hal_rtc_ex.o(.text)
    HAL_RTCEx_GetWakeUpTimer                 0x0801276d   Thumb Code    10  stm32f4xx_hal_rtc_ex.o(.text)
    HAL_RTCEx_WakeUpTimerEventCallback       0x08012777   Thumb Code     2  stm32f4xx_hal_rtc_ex.o(.text)
    HAL_RTCEx_WakeUpTimerIRQHandler          0x08012779   Thumb Code    62  stm32f4xx_hal_rtc_ex.o(.text)
    HAL_RTCEx_PollForWakeUpTimerEvent        0x080127b7   Thumb Code    74  stm32f4xx_hal_rtc_ex.o(.text)
    HAL_RTCEx_BKUPWrite                      0x08012801   Thumb Code    18  stm32f4xx_hal_rtc_ex.o(.text)
    HAL_RTCEx_BKUPRead                       0x08012813   Thumb Code    18  stm32f4xx_hal_rtc_ex.o(.text)
    HAL_RTCEx_SetCoarseCalib                 0x08012825   Thumb Code   138  stm32f4xx_hal_rtc_ex.o(.text)
    HAL_RTCEx_DeactivateCoarseCalib          0x080128af   Thumb Code   126  stm32f4xx_hal_rtc_ex.o(.text)
    HAL_RTCEx_SetSmoothCalib                 0x0801292d   Thumb Code   172  stm32f4xx_hal_rtc_ex.o(.text)
    HAL_RTCEx_SetSynchroShift                0x080129d9   Thumb Code   224  stm32f4xx_hal_rtc_ex.o(.text)
    HAL_RTCEx_SetCalibrationOutPut           0x08012ab9   Thumb Code   100  stm32f4xx_hal_rtc_ex.o(.text)
    HAL_RTCEx_DeactivateCalibrationOutPut    0x08012b1d   Thumb Code    78  stm32f4xx_hal_rtc_ex.o(.text)
    HAL_RTCEx_SetRefClock                    0x08012b6b   Thumb Code   126  stm32f4xx_hal_rtc_ex.o(.text)
    HAL_RTCEx_DeactivateRefClock             0x08012be9   Thumb Code   126  stm32f4xx_hal_rtc_ex.o(.text)
    HAL_RTCEx_EnableBypassShadow             0x08012c67   Thumb Code    78  stm32f4xx_hal_rtc_ex.o(.text)
    HAL_RTCEx_DisableBypassShadow            0x08012cb5   Thumb Code    78  stm32f4xx_hal_rtc_ex.o(.text)
    HAL_RTCEx_AlarmBEventCallback            0x08012d03   Thumb Code     2  stm32f4xx_hal_rtc_ex.o(.text)
    HAL_RTCEx_PollForAlarmBEvent             0x08012d05   Thumb Code    74  stm32f4xx_hal_rtc_ex.o(.text)
    HAL_ADCEx_InjectedStart                  0x08012d51   Thumb Code   252  stm32f4xx_hal_adc_ex.o(.text)
    HAL_ADCEx_InjectedStart_IT               0x08012e4d   Thumb Code   264  stm32f4xx_hal_adc_ex.o(.text)
    HAL_ADCEx_InjectedStop                   0x08012f55   Thumb Code   104  stm32f4xx_hal_adc_ex.o(.text)
    HAL_ADCEx_InjectedPollForConversion      0x08012fbd   Thumb Code   160  stm32f4xx_hal_adc_ex.o(.text)
    HAL_ADCEx_InjectedStop_IT                0x0801305d   Thumb Code   116  stm32f4xx_hal_adc_ex.o(.text)
    HAL_ADCEx_InjectedGetValue               0x080130d1   Thumb Code    70  stm32f4xx_hal_adc_ex.o(.text)
    HAL_ADCEx_MultiModeStart_DMA             0x080131c1   Thumb Code   268  stm32f4xx_hal_adc_ex.o(.text)
    HAL_ADCEx_MultiModeStop_DMA              0x080132cd   Thumb Code   106  stm32f4xx_hal_adc_ex.o(.text)
    HAL_ADCEx_MultiModeGetValue              0x08013337   Thumb Code     8  stm32f4xx_hal_adc_ex.o(.text)
    HAL_ADCEx_InjectedConvCpltCallback       0x0801333f   Thumb Code     2  stm32f4xx_hal_adc_ex.o(.text)
    HAL_ADCEx_InjectedConfigChannel          0x08013341   Thumb Code   540  stm32f4xx_hal_adc_ex.o(.text)
    HAL_ADCEx_MultiModeConfigChannel         0x0801355d   Thumb Code    92  stm32f4xx_hal_adc_ex.o(.text)
    TIM_Base_SetConfig                       0x080135d9   Thumb Code   184  stm32f4xx_hal_tim.o(.text)
    HAL_TIM_Base_MspInit                     0x08013691   Thumb Code     2  stm32f4xx_hal_tim.o(.text)
    HAL_TIM_Base_Init                        0x08013693   Thumb Code    52  stm32f4xx_hal_tim.o(.text)
    HAL_TIM_Base_MspDeInit                   0x080136c7   Thumb Code     2  stm32f4xx_hal_tim.o(.text)
    HAL_TIM_Base_DeInit                      0x080136c9   Thumb Code    70  stm32f4xx_hal_tim.o(.text)
    HAL_TIM_Base_Start                       0x0801370f   Thumb Code    30  stm32f4xx_hal_tim.o(.text)
    HAL_TIM_Base_Stop                        0x0801372d   Thumb Code    56  stm32f4xx_hal_tim.o(.text)
    HAL_TIM_Base_Start_IT                    0x08013765   Thumb Code    30  stm32f4xx_hal_tim.o(.text)
    HAL_TIM_Base_Stop_IT                     0x08013783   Thumb Code    56  stm32f4xx_hal_tim.o(.text)
    HAL_TIM_ErrorCallback                    0x080137bb   Thumb Code     2  stm32f4xx_hal_tim.o(.text)
    TIM_DMAError                             0x080137bd   Thumb Code    20  stm32f4xx_hal_tim.o(.text)
    HAL_TIM_Base_Start_DMA                   0x080137e7   Thumb Code    98  stm32f4xx_hal_tim.o(.text)
    HAL_TIM_Base_Stop_DMA                    0x08013849   Thumb Code    62  stm32f4xx_hal_tim.o(.text)
    HAL_TIM_OC_MspInit                       0x08013887   Thumb Code     2  stm32f4xx_hal_tim.o(.text)
    HAL_TIM_OC_Init                          0x08013889   Thumb Code    52  stm32f4xx_hal_tim.o(.text)
    HAL_TIM_OC_MspDeInit                     0x080138bd   Thumb Code     2  stm32f4xx_hal_tim.o(.text)
    HAL_TIM_OC_DeInit                        0x080138bf   Thumb Code    70  stm32f4xx_hal_tim.o(.text)
    TIM_CCxChannelCmd                        0x08013905   Thumb Code    28  stm32f4xx_hal_tim.o(.text)
    HAL_TIM_OC_Start                         0x08013921   Thumb Code    68  stm32f4xx_hal_tim.o(.text)
    HAL_TIM_OC_Stop                          0x08013965   Thumb Code   170  stm32f4xx_hal_tim.o(.text)
    HAL_TIM_OC_Start_IT                      0x08013a0f   Thumb Code   144  stm32f4xx_hal_tim.o(.text)
    HAL_TIM_OC_Stop_IT                       0x08013a9f   Thumb Code   196  stm32f4xx_hal_tim.o(.text)
    HAL_TIM_PWM_PulseFinishedCallback        0x08013b63   Thumb Code     2  stm32f4xx_hal_tim.o(.text)
    TIM_DMADelayPulseCplt                    0x08013b65   Thumb Code    70  stm32f4xx_hal_tim.o(.text)
    HAL_TIM_OC_Start_DMA                     0x08013bab   Thumb Code   312  stm32f4xx_hal_tim.o(.text)
    HAL_TIM_OC_Stop_DMA                      0x08013ce3   Thumb Code   202  stm32f4xx_hal_tim.o(.text)
    HAL_TIM_PWM_MspInit                      0x08013dad   Thumb Code     2  stm32f4xx_hal_tim.o(.text)
    HAL_TIM_PWM_Init                         0x08013daf   Thumb Code    52  stm32f4xx_hal_tim.o(.text)
    HAL_TIM_PWM_MspDeInit                    0x08013de3   Thumb Code     2  stm32f4xx_hal_tim.o(.text)
    HAL_TIM_PWM_DeInit                       0x08013de5   Thumb Code    70  stm32f4xx_hal_tim.o(.text)
    HAL_TIM_PWM_Start                        0x08013e2b   Thumb Code    78  stm32f4xx_hal_tim.o(.text)
    HAL_TIM_PWM_Stop                         0x08013e79   Thumb Code   126  stm32f4xx_hal_tim.o(.text)
    HAL_TIM_PWM_Start_IT                     0x08013ef7   Thumb Code   144  stm32f4xx_hal_tim.o(.text)
    HAL_TIM_PWM_Stop_IT                      0x08013f87   Thumb Code   196  stm32f4xx_hal_tim.o(.text)
    HAL_TIM_PWM_Start_DMA                    0x0801404b   Thumb Code   312  stm32f4xx_hal_tim.o(.text)
    HAL_TIM_PWM_Stop_DMA                     0x08014183   Thumb Code   202  stm32f4xx_hal_tim.o(.text)
    HAL_TIM_IC_MspInit                       0x0801424d   Thumb Code     2  stm32f4xx_hal_tim.o(.text)
    HAL_TIM_IC_Init                          0x0801424f   Thumb Code    62  stm32f4xx_hal_tim.o(.text)
    HAL_TIM_IC_MspDeInit                     0x0801428d   Thumb Code     2  stm32f4xx_hal_tim.o(.text)
    HAL_TIM_IC_DeInit                        0x0801428f   Thumb Code    70  stm32f4xx_hal_tim.o(.text)
    HAL_TIM_IC_Start                         0x080142d5   Thumb Code    32  stm32f4xx_hal_tim.o(.text)
    HAL_TIM_IC_Stop                          0x080142f5   Thumb Code    58  stm32f4xx_hal_tim.o(.text)
    HAL_TIM_IC_Start_IT                      0x0801432f   Thumb Code   108  stm32f4xx_hal_tim.o(.text)
    HAL_TIM_IC_Stop_IT                       0x0801439b   Thumb Code   134  stm32f4xx_hal_tim.o(.text)
    HAL_TIM_IC_CaptureCallback               0x08014421   Thumb Code     2  stm32f4xx_hal_tim.o(.text)
    TIM_DMACaptureCplt                       0x08014423   Thumb Code    70  stm32f4xx_hal_tim.o(.text)
    HAL_TIM_IC_Start_DMA                     0x08014469   Thumb Code   276  stm32f4xx_hal_tim.o(.text)
    HAL_TIM_IC_Stop_DMA                      0x0801457d   Thumb Code   140  stm32f4xx_hal_tim.o(.text)
    HAL_TIM_OnePulse_MspInit                 0x08014609   Thumb Code     2  stm32f4xx_hal_tim.o(.text)
    HAL_TIM_OnePulse_Init                    0x0801460b   Thumb Code    76  stm32f4xx_hal_tim.o(.text)
    HAL_TIM_OnePulse_MspDeInit               0x08014657   Thumb Code     2  stm32f4xx_hal_tim.o(.text)
    HAL_TIM_OnePulse_DeInit                  0x08014659   Thumb Code    70  stm32f4xx_hal_tim.o(.text)
    HAL_TIM_OnePulse_Start                   0x0801469f   Thumb Code    66  stm32f4xx_hal_tim.o(.text)
    HAL_TIM_OnePulse_Stop                    0x080146e1   Thumb Code   130  stm32f4xx_hal_tim.o(.text)
    HAL_TIM_OnePulse_Start_IT                0x08014763   Thumb Code    90  stm32f4xx_hal_tim.o(.text)
    HAL_TIM_OnePulse_Stop_IT                 0x080147bd   Thumb Code   154  stm32f4xx_hal_tim.o(.text)
    HAL_TIM_Encoder_MspInit                  0x08014857   Thumb Code     2  stm32f4xx_hal_tim.o(.text)
    HAL_TIM_Encoder_Init                     0x08014859   Thumb Code   180  stm32f4xx_hal_tim.o(.text)
    HAL_TIM_Encoder_MspDeInit                0x0801490d   Thumb Code     2  stm32f4xx_hal_tim.o(.text)
    HAL_TIM_Encoder_DeInit                   0x0801490f   Thumb Code    70  stm32f4xx_hal_tim.o(.text)
    HAL_TIM_Encoder_Start                    0x08014955   Thumb Code    78  stm32f4xx_hal_tim.o(.text)
    HAL_TIM_Encoder_Stop                     0x080149a3   Thumb Code   104  stm32f4xx_hal_tim.o(.text)
    HAL_TIM_Encoder_Start_IT                 0x08014a0b   Thumb Code   126  stm32f4xx_hal_tim.o(.text)
    HAL_TIM_Encoder_Stop_IT                  0x08014a89   Thumb Code   160  stm32f4xx_hal_tim.o(.text)
    HAL_TIM_Encoder_Start_DMA                0x08014b29   Thumb Code   328  stm32f4xx_hal_tim.o(.text)
    HAL_TIM_Encoder_Stop_DMA                 0x08014c71   Thumb Code   152  stm32f4xx_hal_tim.o(.text)
    HAL_TIM_TriggerCallback                  0x08014d09   Thumb Code     2  stm32f4xx_hal_tim.o(.text)
    HAL_TIM_OC_DelayElapsedCallback          0x08014d0b   Thumb Code     2  stm32f4xx_hal_tim.o(.text)
    HAL_TIM_IRQHandler                       0x08014d0d   Thumb Code   406  stm32f4xx_hal_tim.o(.text)
    TIM_OC2_SetConfig                        0x08014f75   Thumb Code   112  stm32f4xx_hal_tim.o(.text)
    HAL_TIM_OC_ConfigChannel                 0x0801504b   Thumb Code   116  stm32f4xx_hal_tim.o(.text)
    TIM_TI1_SetConfig                        0x08015179   Thumb Code   122  stm32f4xx_hal_tim.o(.text)
    HAL_TIM_IC_ConfigChannel                 0x080151f3   Thumb Code   224  stm32f4xx_hal_tim.o(.text)
    HAL_TIM_PWM_ConfigChannel                0x080152d3   Thumb Code   294  stm32f4xx_hal_tim.o(.text)
    HAL_TIM_OnePulse_ConfigChannel           0x080153f9   Thumb Code   286  stm32f4xx_hal_tim.o(.text)
    HAL_TIM_DMABurst_WriteStart              0x0801552b   Thumb Code   366  stm32f4xx_hal_tim.o(.text)
    HAL_TIM_DMABurst_WriteStop               0x08015699   Thumb Code   128  stm32f4xx_hal_tim.o(.text)
    HAL_TIM_DMABurst_ReadStart               0x08015719   Thumb Code   366  stm32f4xx_hal_tim.o(.text)
    HAL_TIM_DMABurst_ReadStop                0x08015887   Thumb Code   128  stm32f4xx_hal_tim.o(.text)
    HAL_TIM_GenerateEvent                    0x08015907   Thumb Code    54  stm32f4xx_hal_tim.o(.text)
    HAL_TIM_ConfigOCrefClear                 0x08015955   Thumb Code   252  stm32f4xx_hal_tim.o(.text)
    HAL_TIM_ConfigClockSource                0x08015abb   Thumb Code   306  stm32f4xx_hal_tim.o(.text)
    HAL_TIM_ConfigTI1Input                   0x08015bed   Thumb Code    24  stm32f4xx_hal_tim.o(.text)
    HAL_TIM_SlaveConfigSynchronization       0x08015ca9   Thumb Code    86  stm32f4xx_hal_tim.o(.text)
    HAL_TIM_SlaveConfigSynchronization_IT    0x08015cff   Thumb Code    86  stm32f4xx_hal_tim.o(.text)
    HAL_TIM_ReadCapturedValue                0x08015d55   Thumb Code    84  stm32f4xx_hal_tim.o(.text)
    HAL_TIM_Base_GetState                    0x08015da9   Thumb Code     8  stm32f4xx_hal_tim.o(.text)
    HAL_TIM_OC_GetState                      0x08015db1   Thumb Code     8  stm32f4xx_hal_tim.o(.text)
    HAL_TIM_PWM_GetState                     0x08015db9   Thumb Code     8  stm32f4xx_hal_tim.o(.text)
    HAL_TIM_IC_GetState                      0x08015dc1   Thumb Code     8  stm32f4xx_hal_tim.o(.text)
    HAL_TIM_OnePulse_GetState                0x08015dc9   Thumb Code     8  stm32f4xx_hal_tim.o(.text)
    HAL_TIM_Encoder_GetState                 0x08015dd1   Thumb Code     8  stm32f4xx_hal_tim.o(.text)
    HAL_UART_Init                            0x0801613b   Thumb Code   114  stm32f4xx_hal_uart.o(.text)
    HAL_HalfDuplex_Init                      0x080161ad   Thumb Code   128  stm32f4xx_hal_uart.o(.text)
    HAL_LIN_Init                             0x0801622d   Thumb Code   142  stm32f4xx_hal_uart.o(.text)
    HAL_MultiProcessor_Init                  0x080162bb   Thumb Code   154  stm32f4xx_hal_uart.o(.text)
    HAL_UART_DeInit                          0x08016357   Thumb Code    46  stm32f4xx_hal_uart.o(.text)
    HAL_UART_Transmit                        0x080163f1   Thumb Code   214  stm32f4xx_hal_uart.o(.text)
    HAL_UART_Receive                         0x080164c7   Thumb Code   222  stm32f4xx_hal_uart.o(.text)
    HAL_UART_Transmit_IT                     0x080165a5   Thumb Code    88  stm32f4xx_hal_uart.o(.text)
    HAL_UART_Receive_IT                      0x080165fd   Thumb Code   100  stm32f4xx_hal_uart.o(.text)
    HAL_UART_ErrorCallback                   0x08016661   Thumb Code     2  stm32f4xx_hal_uart.o(.text)
    HAL_UART_TxHalfCpltCallback              0x080166e7   Thumb Code     2  stm32f4xx_hal_uart.o(.text)
    HAL_UART_TxCpltCallback                  0x080166f7   Thumb Code     2  stm32f4xx_hal_uart.o(.text)
    HAL_UART_Transmit_DMA                    0x0801672f   Thumb Code   142  stm32f4xx_hal_uart.o(.text)
    HAL_UART_RxHalfCpltCallback              0x080167bd   Thumb Code     2  stm32f4xx_hal_uart.o(.text)
    HAL_UART_RxCpltCallback                  0x080167cd   Thumb Code     2  stm32f4xx_hal_uart.o(.text)
    HAL_UART_Receive_DMA                     0x08016815   Thumb Code   182  stm32f4xx_hal_uart.o(.text)
    HAL_UART_DMAPause                        0x080168cb   Thumb Code   124  stm32f4xx_hal_uart.o(.text)
    HAL_UART_DMAResume                       0x08016947   Thumb Code   126  stm32f4xx_hal_uart.o(.text)
    HAL_UART_DMAStop                         0x080169c5   Thumb Code   102  stm32f4xx_hal_uart.o(.text)
    HAL_UART_Abort                           0x08016a2b   Thumb Code   126  stm32f4xx_hal_uart.o(.text)
    HAL_UART_AbortTransmit                   0x08016aa9   Thumb Code    68  stm32f4xx_hal_uart.o(.text)
    HAL_UART_AbortReceive                    0x08016aed   Thumb Code    80  stm32f4xx_hal_uart.o(.text)
    HAL_UART_AbortCpltCallback               0x08016b3d   Thumb Code     2  stm32f4xx_hal_uart.o(.text)
    HAL_UART_Abort_IT                        0x08016bbd   Thumb Code   208  stm32f4xx_hal_uart.o(.text)
    HAL_UART_AbortTransmitCpltCallback       0x08016c8d   Thumb Code     2  stm32f4xx_hal_uart.o(.text)
    HAL_UART_AbortTransmit_IT                0x08016ca7   Thumb Code   102  stm32f4xx_hal_uart.o(.text)
    HAL_UART_AbortReceiveCpltCallback        0x08016d0d   Thumb Code     2  stm32f4xx_hal_uart.o(.text)
    HAL_UART_AbortReceive_IT                 0x08016d27   Thumb Code   114  stm32f4xx_hal_uart.o(.text)
    HAL_UART_IRQHandler                      0x08016ecf   Thumb Code   348  stm32f4xx_hal_uart.o(.text)
    HAL_LIN_SendBreak                        0x0801702b   Thumb Code    62  stm32f4xx_hal_uart.o(.text)
    HAL_MultiProcessor_EnterMuteMode         0x08017069   Thumb Code    62  stm32f4xx_hal_uart.o(.text)
    HAL_MultiProcessor_ExitMuteMode          0x080170a7   Thumb Code    62  stm32f4xx_hal_uart.o(.text)
    HAL_HalfDuplex_EnableTransmitter         0x080170e5   Thumb Code    68  stm32f4xx_hal_uart.o(.text)
    HAL_HalfDuplex_EnableReceiver            0x08017129   Thumb Code    68  stm32f4xx_hal_uart.o(.text)
    HAL_UART_GetState                        0x0801716d   Thumb Code    20  stm32f4xx_hal_uart.o(.text)
    HAL_UART_GetError                        0x08017181   Thumb Code     6  stm32f4xx_hal_uart.o(.text)
    HAL_GPIO_Init                            0x08017189   Thumb Code   466  stm32f4xx_hal_gpio.o(.text)
    HAL_GPIO_DeInit                          0x0801735b   Thumb Code   316  stm32f4xx_hal_gpio.o(.text)
    HAL_GPIO_ReadPin                         0x08017497   Thumb Code    16  stm32f4xx_hal_gpio.o(.text)
    HAL_GPIO_WritePin                        0x080174a7   Thumb Code    12  stm32f4xx_hal_gpio.o(.text)
    HAL_GPIO_TogglePin                       0x080174b3   Thumb Code     8  stm32f4xx_hal_gpio.o(.text)
    HAL_GPIO_LockPin                         0x080174bb   Thumb Code    46  stm32f4xx_hal_gpio.o(.text)
    HAL_GPIO_EXTI_IRQHandler                 0x080174eb   Thumb Code    28  stm32f4xx_hal_gpio.o(.text)
    HAL_RTC_WaitForSynchro                   0x08017535   Thumb Code    58  stm32f4xx_hal_rtc.o(.text)
    RTC_EnterInitMode                        0x0801756f   Thumb Code    62  stm32f4xx_hal_rtc.o(.text)
    HAL_RTC_Init                             0x080175af   Thumb Code   212  stm32f4xx_hal_rtc.o(.text)
    HAL_RTC_DeInit                           0x08017685   Thumb Code   254  stm32f4xx_hal_rtc.o(.text)
    RTC_Bcd2ToByte                           0x08017783   Thumb Code    22  stm32f4xx_hal_rtc.o(.text)
    RTC_ByteToBcd2                           0x08017799   Thumb Code    26  stm32f4xx_hal_rtc.o(.text)
    HAL_RTC_SetTime                          0x080177b3   Thumb Code   304  stm32f4xx_hal_rtc.o(.text)
    HAL_RTC_GetTime                          0x080178e3   Thumb Code    92  stm32f4xx_hal_rtc.o(.text)
    HAL_RTC_SetDate                          0x0801793f   Thumb Code   268  stm32f4xx_hal_rtc.o(.text)
    HAL_RTC_GetDate                          0x08017a4b   Thumb Code    72  stm32f4xx_hal_rtc.o(.text)
    HAL_RTC_SetAlarm                         0x08017a93   Thumb Code   488  stm32f4xx_hal_rtc.o(.text)
    HAL_RTC_SetAlarm_IT                      0x08017c7b   Thumb Code   550  stm32f4xx_hal_rtc.o(.text)
    HAL_RTC_DeactivateAlarm                  0x08017ea1   Thumb Code   244  stm32f4xx_hal_rtc.o(.text)
    HAL_RTC_GetAlarm                         0x08017f95   Thumb Code   154  stm32f4xx_hal_rtc.o(.text)
    HAL_RTC_AlarmIRQHandler                  0x08018031   Thumb Code   104  stm32f4xx_hal_rtc.o(.text)
    HAL_RTC_PollForAlarmAEvent               0x08018099   Thumb Code    74  stm32f4xx_hal_rtc.o(.text)
    HAL_RTC_GetState                         0x080180e3   Thumb Code     6  stm32f4xx_hal_rtc.o(.text)
    HAL_IWDG_Init                            0x080180ed   Thumb Code    80  stm32f4xx_hal_iwdg.o(.text)
    HAL_IWDG_Refresh                         0x0801813d   Thumb Code    14  stm32f4xx_hal_iwdg.o(.text)
    HAL_NVIC_SetPriorityGrouping             0x0801816d   Thumb Code    36  stm32f4xx_hal_cortex.o(.text)
    HAL_NVIC_SetPriority                     0x08018191   Thumb Code   124  stm32f4xx_hal_cortex.o(.text)
    HAL_NVIC_EnableIRQ                       0x0801820d   Thumb Code    26  stm32f4xx_hal_cortex.o(.text)
    HAL_NVIC_DisableIRQ                      0x08018227   Thumb Code    22  stm32f4xx_hal_cortex.o(.text)
    HAL_NVIC_SystemReset                     0x0801823d   Thumb Code    64  stm32f4xx_hal_cortex.o(.text)
    HAL_SYSTICK_Config                       0x0801827d   Thumb Code    52  stm32f4xx_hal_cortex.o(.text)
    HAL_MPU_Disable                          0x080182b1   Thumb Code    42  stm32f4xx_hal_cortex.o(.text)
    HAL_MPU_Enable                           0x080182db   Thumb Code    60  stm32f4xx_hal_cortex.o(.text)
    HAL_MPU_ConfigRegion                     0x08018317   Thumb Code    90  stm32f4xx_hal_cortex.o(.text)
    HAL_NVIC_GetPriorityGrouping             0x08018371   Thumb Code     8  stm32f4xx_hal_cortex.o(.text)
    HAL_NVIC_GetPriority                     0x08018379   Thumb Code   138  stm32f4xx_hal_cortex.o(.text)
    HAL_NVIC_SetPendingIRQ                   0x08018403   Thumb Code    24  stm32f4xx_hal_cortex.o(.text)
    HAL_NVIC_GetPendingIRQ                   0x0801841b   Thumb Code    38  stm32f4xx_hal_cortex.o(.text)
    HAL_NVIC_ClearPendingIRQ                 0x08018441   Thumb Code    22  stm32f4xx_hal_cortex.o(.text)
    HAL_NVIC_GetActive                       0x08018457   Thumb Code    38  stm32f4xx_hal_cortex.o(.text)
    HAL_SYSTICK_CLKSourceConfig              0x0801847d   Thumb Code    40  stm32f4xx_hal_cortex.o(.text)
    HAL_SYSTICK_Callback                     0x080184a5   Thumb Code     2  stm32f4xx_hal_cortex.o(.text)
    HAL_SYSTICK_IRQHandler                   0x080184a7   Thumb Code     8  stm32f4xx_hal_cortex.o(.text)
    HAL_TIMEx_HallSensor_MspInit             0x080184d1   Thumb Code     2  stm32f4xx_hal_tim_ex.o(.text)
    HAL_TIMEx_HallSensor_Init                0x080184d3   Thumb Code   196  stm32f4xx_hal_tim_ex.o(.text)
    HAL_TIMEx_HallSensor_MspDeInit           0x08018597   Thumb Code     2  stm32f4xx_hal_tim_ex.o(.text)
    HAL_TIMEx_HallSensor_DeInit              0x08018599   Thumb Code    70  stm32f4xx_hal_tim_ex.o(.text)
    HAL_TIMEx_HallSensor_Start               0x080185df   Thumb Code    30  stm32f4xx_hal_tim_ex.o(.text)
    HAL_TIMEx_HallSensor_Stop                0x080185fd   Thumb Code    56  stm32f4xx_hal_tim_ex.o(.text)
    HAL_TIMEx_HallSensor_Start_IT            0x08018635   Thumb Code    42  stm32f4xx_hal_tim_ex.o(.text)
    HAL_TIMEx_HallSensor_Stop_IT             0x0801865f   Thumb Code    68  stm32f4xx_hal_tim_ex.o(.text)
    HAL_TIMEx_HallSensor_Start_DMA           0x080186a3   Thumb Code   106  stm32f4xx_hal_tim_ex.o(.text)
    HAL_TIMEx_HallSensor_Stop_DMA            0x0801870d   Thumb Code    68  stm32f4xx_hal_tim_ex.o(.text)
    HAL_TIMEx_OCN_Start                      0x0801876d   Thumb Code    44  stm32f4xx_hal_tim_ex.o(.text)
    HAL_TIMEx_OCN_Stop                       0x08018799   Thumb Code    96  stm32f4xx_hal_tim_ex.o(.text)
    HAL_TIMEx_OCN_Start_IT                   0x080187f9   Thumb Code   132  stm32f4xx_hal_tim_ex.o(.text)
    HAL_TIMEx_OCN_Stop_IT                    0x0801887d   Thumb Code   196  stm32f4xx_hal_tim_ex.o(.text)
    HAL_TIMEx_OCN_Start_DMA                  0x08018941   Thumb Code   272  stm32f4xx_hal_tim_ex.o(.text)
    HAL_TIMEx_OCN_Stop_DMA                   0x08018a51   Thumb Code   192  stm32f4xx_hal_tim_ex.o(.text)
    HAL_TIMEx_PWMN_Start                     0x08018b11   Thumb Code    44  stm32f4xx_hal_tim_ex.o(.text)
    HAL_TIMEx_PWMN_Stop                      0x08018b3d   Thumb Code    96  stm32f4xx_hal_tim_ex.o(.text)
    HAL_TIMEx_PWMN_Start_IT                  0x08018b9d   Thumb Code   132  stm32f4xx_hal_tim_ex.o(.text)
    HAL_TIMEx_PWMN_Stop_IT                   0x08018c21   Thumb Code   196  stm32f4xx_hal_tim_ex.o(.text)
    HAL_TIMEx_PWMN_Start_DMA                 0x08018ce5   Thumb Code   272  stm32f4xx_hal_tim_ex.o(.text)
    HAL_TIMEx_PWMN_Stop_DMA                  0x08018df5   Thumb Code   178  stm32f4xx_hal_tim_ex.o(.text)
    HAL_TIMEx_OnePulseN_Start                0x08018ea7   Thumb Code    32  stm32f4xx_hal_tim_ex.o(.text)
    HAL_TIMEx_OnePulseN_Stop                 0x08018ec7   Thumb Code    96  stm32f4xx_hal_tim_ex.o(.text)
    HAL_TIMEx_OnePulseN_Start_IT             0x08018f27   Thumb Code    56  stm32f4xx_hal_tim_ex.o(.text)
    HAL_TIMEx_OnePulseN_Stop_IT              0x08018f5f   Thumb Code   120  stm32f4xx_hal_tim_ex.o(.text)
    HAL_TIMEx_ConfigCommutationEvent         0x08018fd7   Thumb Code   110  stm32f4xx_hal_tim_ex.o(.text)
    HAL_TIMEx_ConfigCommutationEvent_IT      0x08019045   Thumb Code   122  stm32f4xx_hal_tim_ex.o(.text)
    HAL_TIMEx_CommutationCallback            0x080190bf   Thumb Code     2  stm32f4xx_hal_tim_ex.o(.text)
    TIMEx_DMACommutationCplt                 0x080190c1   Thumb Code    20  stm32f4xx_hal_tim_ex.o(.text)
    HAL_TIMEx_ConfigCommutationEvent_DMA     0x080190d5   Thumb Code   146  stm32f4xx_hal_tim_ex.o(.text)
    HAL_TIMEx_MasterConfigSynchronization    0x08019167   Thumb Code    98  stm32f4xx_hal_tim_ex.o(.text)
    HAL_TIMEx_ConfigBreakDeadTime            0x080191c9   Thumb Code   126  stm32f4xx_hal_tim_ex.o(.text)
    HAL_TIMEx_RemapConfig                    0x08019247   Thumb Code    48  stm32f4xx_hal_tim_ex.o(.text)
    HAL_TIMEx_BreakCallback                  0x08019277   Thumb Code     2  stm32f4xx_hal_tim_ex.o(.text)
    HAL_TIMEx_HallSensor_GetState            0x08019279   Thumb Code     8  stm32f4xx_hal_tim_ex.o(.text)
    HAL_Init                                 0x080192ab   Thumb Code    54  stm32f4xx_hal.o(.text)
    HAL_MspDeInit                            0x080192e1   Thumb Code     2  stm32f4xx_hal.o(.text)
    HAL_DeInit                               0x080192e3   Thumb Code    64  stm32f4xx_hal.o(.text)
    HAL_IncTick                              0x08019323   Thumb Code    12  stm32f4xx_hal.o(.text)
    HAL_GetTick                              0x0801932f   Thumb Code     6  stm32f4xx_hal.o(.text)
    HAL_Delay                                0x08019335   Thumb Code    30  stm32f4xx_hal.o(.text)
    HAL_GetHalVersion                        0x08019377   Thumb Code     4  stm32f4xx_hal.o(.text)
    HAL_GetREVID                             0x0801937b   Thumb Code     8  stm32f4xx_hal.o(.text)
    HAL_GetDEVID                             0x08019383   Thumb Code    10  stm32f4xx_hal.o(.text)
    HAL_DBGMCU_EnableDBGSleepMode            0x0801938d   Thumb Code    14  stm32f4xx_hal.o(.text)
    HAL_DBGMCU_DisableDBGSleepMode           0x0801939b   Thumb Code    14  stm32f4xx_hal.o(.text)
    HAL_DBGMCU_EnableDBGStopMode             0x080193a9   Thumb Code    14  stm32f4xx_hal.o(.text)
    HAL_DBGMCU_DisableDBGStopMode            0x080193b7   Thumb Code    14  stm32f4xx_hal.o(.text)
    HAL_DBGMCU_EnableDBGStandbyMode          0x080193c5   Thumb Code    14  stm32f4xx_hal.o(.text)
    HAL_DBGMCU_DisableDBGStandbyMode         0x080193d3   Thumb Code    14  stm32f4xx_hal.o(.text)
    HAL_EnableCompensationCell               0x080193e1   Thumb Code     8  stm32f4xx_hal.o(.text)
    HAL_DisableCompensationCell              0x080193e9   Thumb Code     8  stm32f4xx_hal.o(.text)
    HAL_GetUID                               0x080193f1   Thumb Code    24  stm32f4xx_hal.o(.text)
    FLASH_WaitForLastOperation               0x080194b7   Thumb Code    90  stm32f4xx_hal_flash.o(.text)
    HAL_FLASH_Program                        0x080195b1   Thumb Code   146  stm32f4xx_hal_flash.o(.text)
    HAL_FLASH_Program_IT                     0x08019643   Thumb Code   130  stm32f4xx_hal_flash.o(.text)
    HAL_FLASH_EndOfOperationCallback         0x080196c5   Thumb Code     2  stm32f4xx_hal_flash.o(.text)
    HAL_FLASH_OperationErrorCallback         0x080196c7   Thumb Code     2  stm32f4xx_hal_flash.o(.text)
    HAL_FLASH_IRQHandler                     0x080196c9   Thumb Code   262  stm32f4xx_hal_flash.o(.text)
    HAL_FLASH_Unlock                         0x080197cf   Thumb Code    42  stm32f4xx_hal_flash.o(.text)
    HAL_FLASH_Lock                           0x080197f9   Thumb Code    36  stm32f4xx_hal_flash.o(.text)
    HAL_FLASH_OB_Unlock                      0x0801981d   Thumb Code    32  stm32f4xx_hal_flash.o(.text)
    HAL_FLASH_OB_Lock                        0x0801983d   Thumb Code    16  stm32f4xx_hal_flash.o(.text)
    HAL_FLASH_OB_Launch                      0x0801984d   Thumb Code    24  stm32f4xx_hal_flash.o(.text)
    HAL_FLASH_GetError                       0x08019865   Thumb Code     6  stm32f4xx_hal_flash.o(.text)
    HAL_ADC_Init                             0x080199d3   Thumb Code   100  stm32f4xx_hal_adc.o(.text)
    HAL_ADC_DeInit                           0x08019a39   Thumb Code    68  stm32f4xx_hal_adc.o(.text)
    HAL_ADC_Start                            0x08019a7d   Thumb Code   238  stm32f4xx_hal_adc.o(.text)
    HAL_ADC_Stop                             0x08019b6b   Thumb Code    72  stm32f4xx_hal_adc.o(.text)
    HAL_ADC_PollForConversion                0x08019bb3   Thumb Code   206  stm32f4xx_hal_adc.o(.text)
    HAL_ADC_PollForEvent                     0x08019c81   Thumb Code   118  stm32f4xx_hal_adc.o(.text)
    HAL_ADC_Start_IT                         0x08019cf7   Thumb Code   250  stm32f4xx_hal_adc.o(.text)
    HAL_ADC_Stop_IT                          0x08019df1   Thumb Code    86  stm32f4xx_hal_adc.o(.text)
    HAL_ADC_ErrorCallback                    0x08019e47   Thumb Code     2  stm32f4xx_hal_adc.o(.text)
    HAL_ADC_LevelOutOfWindowCallback         0x08019e49   Thumb Code     2  stm32f4xx_hal_adc.o(.text)
    HAL_ADC_ConvCpltCallback                 0x08019e4b   Thumb Code     2  stm32f4xx_hal_adc.o(.text)
    HAL_ADC_IRQHandler                       0x08019e4d   Thumb Code   372  stm32f4xx_hal_adc.o(.text)
    HAL_ADC_ConvHalfCpltCallback             0x08019fdb   Thumb Code     2  stm32f4xx_hal_adc.o(.text)
    HAL_ADC_Start_DMA                        0x0801a059   Thumb Code   334  stm32f4xx_hal_adc.o(.text)
    HAL_ADC_Stop_DMA                         0x0801a1a7   Thumb Code   108  stm32f4xx_hal_adc.o(.text)
    HAL_ADC_GetValue                         0x0801a213   Thumb Code     8  stm32f4xx_hal_adc.o(.text)
    HAL_ADC_ConfigChannel                    0x0801a21b   Thumb Code   380  stm32f4xx_hal_adc.o(.text)
    HAL_ADC_AnalogWDGConfig                  0x0801a397   Thumb Code   132  stm32f4xx_hal_adc.o(.text)
    HAL_ADC_GetState                         0x0801a41b   Thumb Code     6  stm32f4xx_hal_adc.o(.text)
    HAL_ADC_GetError                         0x0801a421   Thumb Code     6  stm32f4xx_hal_adc.o(.text)
    HAL_RCC_OscConfig                        0x0801a441   Thumb Code  1040  stm32f4xx_hal_rcc.o(.text)
    HAL_RCC_GetSysClockFreq                  0x0801a851   Thumb Code   162  stm32f4xx_hal_rcc.o(.text)
    HAL_RCC_ClockConfig                      0x0801a8f3   Thumb Code   366  stm32f4xx_hal_rcc.o(.text)
    HAL_RCC_MCOConfig                        0x0801aa61   Thumb Code   178  stm32f4xx_hal_rcc.o(.text)
    HAL_RCC_EnableCSS                        0x0801ab13   Thumb Code     8  stm32f4xx_hal_rcc.o(.text)
    HAL_RCC_DisableCSS                       0x0801ab1b   Thumb Code     8  stm32f4xx_hal_rcc.o(.text)
    HAL_RCC_GetHCLKFreq                      0x0801ab23   Thumb Code     6  stm32f4xx_hal_rcc.o(.text)
    HAL_RCC_GetPCLK1Freq                     0x0801ab29   Thumb Code    22  stm32f4xx_hal_rcc.o(.text)
    HAL_RCC_GetPCLK2Freq                     0x0801ab3f   Thumb Code    22  stm32f4xx_hal_rcc.o(.text)
    HAL_RCC_GetOscConfig                     0x0801ab55   Thumb Code   288  stm32f4xx_hal_rcc.o(.text)
    HAL_RCC_GetClockConfig                   0x0801ac75   Thumb Code    58  stm32f4xx_hal_rcc.o(.text)
    HAL_RCC_CSSCallback                      0x0801acaf   Thumb Code     2  stm32f4xx_hal_rcc.o(.text)
    HAL_RCC_NMI_IRQHandler                   0x0801acb1   Thumb Code    30  stm32f4xx_hal_rcc.o(.text)
    HAL_SPI_Init                             0x0801acdb   Thumb Code   140  stm32f4xx_hal_spi.o(.text)
    HAL_SPI_DeInit                           0x0801ad69   Thumb Code    54  stm32f4xx_hal_spi.o(.text)
    HAL_SPI_Transmit                         0x0801ae71   Thumb Code   422  stm32f4xx_hal_spi.o(.text)
    HAL_SPI_TransmitReceive                  0x0801b017   Thumb Code   542  stm32f4xx_hal_spi.o(.text)
    HAL_SPI_Receive                          0x0801b235   Thumb Code   364  stm32f4xx_hal_spi.o(.text)
    HAL_SPI_TxCpltCallback                   0x0801b3a1   Thumb Code     2  stm32f4xx_hal_spi.o(.text)
    HAL_SPI_ErrorCallback                    0x0801b3a3   Thumb Code     2  stm32f4xx_hal_spi.o(.text)
    HAL_SPI_Transmit_IT                      0x0801b485   Thumb Code   176  stm32f4xx_hal_spi.o(.text)
    HAL_SPI_RxCpltCallback                   0x0801b535   Thumb Code     2  stm32f4xx_hal_spi.o(.text)
    HAL_SPI_TxRxCpltCallback                 0x0801b5e5   Thumb Code     2  stm32f4xx_hal_spi.o(.text)
    HAL_SPI_TransmitReceive_IT               0x0801b769   Thumb Code   194  stm32f4xx_hal_spi.o(.text)
    HAL_SPI_Receive_IT                       0x0801b82b   Thumb Code   194  stm32f4xx_hal_spi.o(.text)
    HAL_SPI_TxHalfCpltCallback               0x0801b987   Thumb Code     2  stm32f4xx_hal_spi.o(.text)
    HAL_SPI_Transmit_DMA                     0x0801b997   Thumb Code   208  stm32f4xx_hal_spi.o(.text)
    HAL_SPI_RxHalfCpltCallback               0x0801bac7   Thumb Code     2  stm32f4xx_hal_spi.o(.text)
    HAL_SPI_TxRxHalfCpltCallback             0x0801bb31   Thumb Code     2  stm32f4xx_hal_spi.o(.text)
    HAL_SPI_TransmitReceive_DMA              0x0801bb41   Thumb Code   346  stm32f4xx_hal_spi.o(.text)
    HAL_SPI_Receive_DMA                      0x0801bc9b   Thumb Code   238  stm32f4xx_hal_spi.o(.text)
    HAL_SPI_Abort                            0x0801be05   Thumb Code   244  stm32f4xx_hal_spi.o(.text)
    HAL_SPI_AbortCpltCallback                0x0801bef9   Thumb Code     2  stm32f4xx_hal_spi.o(.text)
    HAL_SPI_Abort_IT                         0x0801c00d   Thumb Code   296  stm32f4xx_hal_spi.o(.text)
    HAL_SPI_DMAPause                         0x0801c135   Thumb Code    50  stm32f4xx_hal_spi.o(.text)
    HAL_SPI_DMAResume                        0x0801c167   Thumb Code    50  stm32f4xx_hal_spi.o(.text)
    HAL_SPI_DMAStop                          0x0801c199   Thumb Code    46  stm32f4xx_hal_spi.o(.text)
    HAL_SPI_IRQHandler                       0x0801c1db   Thumb Code   308  stm32f4xx_hal_spi.o(.text)
    HAL_SPI_GetState                         0x0801c30f   Thumb Code     8  stm32f4xx_hal_spi.o(.text)
    HAL_SPI_GetError                         0x0801c317   Thumb Code     6  stm32f4xx_hal_spi.o(.text)
    SystemInit                               0x0801c331   Thumb Code    80  system_stm32f4xx.o(.text)
    SystemCoreClockUpdate                    0x0801c381   Thumb Code   174  system_stm32f4xx.o(.text)
    HAL_InitTick                             0x0801c455   Thumb Code   122  stm32f4xx_hal_timebase_tim.o(.text)
    HAL_SuspendTick                          0x0801c4cf   Thumb Code    18  stm32f4xx_hal_timebase_tim.o(.text)
    HAL_ResumeTick                           0x0801c4e1   Thumb Code    18  stm32f4xx_hal_timebase_tim.o(.text)
    configureTimerForRunTimeStats            0x0801c505   Thumb Code     2  freertos.o(.text)
    getRunTimeCounterValue                   0x0801c507   Thumb Code     4  freertos.o(.text)
    vApplicationIdleHook                     0x0801c50b   Thumb Code     2  freertos.o(.text)
    vApplicationTickHook                     0x0801c50d   Thumb Code     2  freertos.o(.text)
    vApplicationStackOverflowHook            0x0801c50f   Thumb Code     2  freertos.o(.text)
    vApplicationMallocFailedHook             0x0801c511   Thumb Code     2  freertos.o(.text)
    NMI_Handler                              0x0801c515   Thumb Code     2  stm32f4xx_it.o(.text)
    HardFault_Handler                        0x0801c517   Thumb Code    78  stm32f4xx_it.o(.text)
    MemManage_Handler                        0x0801c565   Thumb Code     4  stm32f4xx_it.o(.text)
    BusFault_Handler                         0x0801c569   Thumb Code     4  stm32f4xx_it.o(.text)
    UsageFault_Handler                       0x0801c56d   Thumb Code     4  stm32f4xx_it.o(.text)
    DebugMon_Handler                         0x0801c571   Thumb Code     2  stm32f4xx_it.o(.text)
    SysTick_Handler                          0x0801c573   Thumb Code     8  stm32f4xx_it.o(.text)
    DMA1_Stream0_IRQHandler                  0x0801c57b   Thumb Code    10  stm32f4xx_it.o(.text)
    DMA1_Stream1_IRQHandler                  0x0801c585   Thumb Code    10  stm32f4xx_it.o(.text)
    DMA1_Stream2_IRQHandler                  0x0801c58f   Thumb Code    10  stm32f4xx_it.o(.text)
    DMA1_Stream3_IRQHandler                  0x0801c599   Thumb Code    10  stm32f4xx_it.o(.text)
    DMA1_Stream4_IRQHandler                  0x0801c5a3   Thumb Code    10  stm32f4xx_it.o(.text)
    DMA1_Stream5_IRQHandler                  0x0801c5ad   Thumb Code    10  stm32f4xx_it.o(.text)
    DMA1_Stream6_IRQHandler                  0x0801c5b7   Thumb Code    10  stm32f4xx_it.o(.text)
    EXTI9_5_IRQHandler                       0x0801c5c1   Thumb Code    12  stm32f4xx_it.o(.text)
    TIM1_UP_TIM10_IRQHandler                 0x0801c5cd   Thumb Code    10  stm32f4xx_it.o(.text)
    USART1_IRQHandler                        0x0801c5d7   Thumb Code     8  stm32f4xx_it.o(.text)
    USART2_IRQHandler                        0x0801c5df   Thumb Code    10  stm32f4xx_it.o(.text)
    USART3_IRQHandler                        0x0801c5e9   Thumb Code    10  stm32f4xx_it.o(.text)
    RTC_Alarm_IRQHandler                     0x0801c5f3   Thumb Code    10  stm32f4xx_it.o(.text)
    DMA1_Stream7_IRQHandler                  0x0801c5fd   Thumb Code    10  stm32f4xx_it.o(.text)
    UART4_IRQHandler                         0x0801c607   Thumb Code     8  stm32f4xx_it.o(.text)
    UART5_IRQHandler                         0x0801c60f   Thumb Code     8  stm32f4xx_it.o(.text)
    DMA2_Stream0_IRQHandler                  0x0801c617   Thumb Code    10  stm32f4xx_it.o(.text)
    DMA2_Stream1_IRQHandler                  0x0801c621   Thumb Code    10  stm32f4xx_it.o(.text)
    DMA2_Stream2_IRQHandler                  0x0801c62b   Thumb Code    10  stm32f4xx_it.o(.text)
    DMA2_Stream6_IRQHandler                  0x0801c635   Thumb Code    10  stm32f4xx_it.o(.text)
    DMA2_Stream7_IRQHandler                  0x0801c63f   Thumb Code    10  stm32f4xx_it.o(.text)
    USART6_IRQHandler                        0x0801c649   Thumb Code     8  stm32f4xx_it.o(.text)
    fputc_stdout                             0x0801c6b1   Thumb Code    48  main.o(.text)
    aws_task_lock                            0x0801c6e1   Thumb Code    16  main.o(.text)
    aws_task_unlock                          0x0801c6f1   Thumb Code    12  main.o(.text)
    _Error_Handler                           0x0801c6fd   Thumb Code     4  main.o(.text)
    SystemClock_Config                       0x0801cd69   Thumb Code   244  main.o(.text)
    main                                     0x0801ce5d   Thumb Code   184  main.o(.text)
    HAL_GPIO_EXTI_Callback                   0x0801cf15   Thumb Code    16  main.o(.text)
    HAL_RTC_AlarmAEventCallback              0x0801cf25   Thumb Code    20  main.o(.text)
    StartDefaultTask                         0x0801cf39   Thumb Code     8  main.o(.text)
    HAL_TIM_PeriodElapsedCallback            0x0801cf41   Thumb Code   210  main.o(.text)
    HAL_MspInit                              0x0801d021   Thumb Code    86  stm32f4xx_hal_msp.o(.text)
    HAL_ADC_MspInit                          0x0801d077   Thumb Code   132  stm32f4xx_hal_msp.o(.text)
    HAL_ADC_MspDeInit                        0x0801d0fb   Thumb Code    40  stm32f4xx_hal_msp.o(.text)
    HAL_RNG_MspInit                          0x0801d123   Thumb Code    48  stm32f4xx_hal_msp.o(.text)
    HAL_RNG_MspDeInit                        0x0801d153   Thumb Code    26  stm32f4xx_hal_msp.o(.text)
    HAL_RTC_MspInit                          0x0801d16d   Thumb Code    36  stm32f4xx_hal_msp.o(.text)
    HAL_RTC_MspDeInit                        0x0801d191   Thumb Code    26  stm32f4xx_hal_msp.o(.text)
    HAL_SPI_MspInit                          0x0801d1ab   Thumb Code   106  stm32f4xx_hal_msp.o(.text)
    HAL_SPI_MspDeInit                        0x0801d215   Thumb Code    34  stm32f4xx_hal_msp.o(.text)
    HAL_UART_MspInit                         0x0801d237   Thumb Code  1570  stm32f4xx_hal_msp.o(.text)
    HAL_UART_MspDeInit                       0x0801d859   Thumb Code   398  stm32f4xx_hal_msp.o(.text)
    ResetMcuSet                              0x0801da3d   Thumb Code     6  system_config.o(.text)
    ResetMcuTask                             0x0801da43   Thumb Code    84  system_config.o(.text)
    CFG_Init                                 0x0801da97   Thumb Code    16  system_config.o(.text)
    CFG_ReLoad                               0x0801daa7   Thumb Code    16  system_config.o(.text)
    DeviceIoStatus_Save                      0x0801dab7   Thumb Code    46  system_config.o(.text)
    OS_DeviceIoStatus_Save                   0x0801dae5   Thumb Code    68  system_config.o(.text)
    DeviceIoStatus_Load                      0x0801db29   Thumb Code   172  system_config.o(.text)
    DeviceCfg_Save                           0x0801dbd5   Thumb Code    74  system_config.o(.text)
    DeviceCfg_Load                           0x0801dc1f   Thumb Code  1258  system_config.o(.text)
    FLASH_ErasePage                          0x0801e1bf   Thumb Code    40  system_config.o(.text)
    CFG_Save                                 0x0801e1e7   Thumb Code   304  system_config.o(.text)
    CFG_Load                                 0x0801e317   Thumb Code   760  system_config.o(.text)
    CFG_CheckSum                             0x0801e60f   Thumb Code    44  system_config.o(.text)
    mbedtls_hardware_poll                    0x0801e6dd   Thumb Code    68  hardware_rng.o(.text)
    iot_shadow_thing_start                   0x08020507   Thumb Code    26  shadow_thing.o(.text)
    Line1_Status_DeltaCallback               0x08020521   Thumb Code   116  shadow_thing.o(.text)
    Line2_Status_DeltaCallback               0x08020595   Thumb Code   118  shadow_thing.o(.text)
    Line3_Status_DeltaCallback               0x0802060b   Thumb Code   118  shadow_thing.o(.text)
    Line4_Status_DeltaCallback               0x08020681   Thumb Code   118  shadow_thing.o(.text)
    Cmds_Status_DeltaCallback                0x080206f7   Thumb Code    42  shadow_thing.o(.text)
    Schedules_Time_Status_DeltaCallback      0x08020721   Thumb Code    38  shadow_thing.o(.text)
    Schedules_wD_Status_DeltaCallback        0x08020747   Thumb Code   162  shadow_thing.o(.text)
    Schedules_Cmd_Status_DeltaCallback       0x080207e9   Thumb Code   588  shadow_thing.o(.text)
    Schedules_Status_DeltaCallback           0x08020a35   Thumb Code  1156  shadow_thing.o(.text)
    Trigger_SendReportToServer               0x08020eb9   Thumb Code     8  shadow_thing.o(.text)
    Trigger_SendParamToServer                0x08020ec1   Thumb Code    12  shadow_thing.o(.text)
    ntp_init                                 0x08020ee1   Thumb Code     2  ntp_server.o(.text)
    ntp_reset                                0x08020ee3   Thumb Code     2  ntp_server.o(.text)
    ntp_stop                                 0x080211e7   Thumb Code    54  ntp_server.o(.text)
    ntp_get_time                             0x0802121d   Thumb Code     8  ntp_server.o(.text)
    ntp_start                                0x08021225   Thumb Code    40  ntp_server.o(.text)
    is_ntp_server_running                    0x0802124d   Thumb Code    14  ntp_server.o(.text)
    vSmartLightMainTask                      0x08021381   Thumb Code   446  smartlight.o(.text)
    SysWatchdogInit                          0x080215c5   Thumb Code    36  watchdog.o(.text)
    OsWatchdogFeed                           0x080215e9   Thumb Code    40  watchdog.o(.text)
    OsWatchdogEnable                         0x08021611   Thumb Code    40  watchdog.o(.text)
    OsWatchdogDisable                        0x08021639   Thumb Code    38  watchdog.o(.text)
    SysWatchdogEnable                        0x0802167b   Thumb Code    44  watchdog.o(.text)
    SysWatchdogDisable                       0x080216a7   Thumb Code    44  watchdog.o(.text)
    SysWatchdogFeed                          0x080216d3   Thumb Code    44  watchdog.o(.text)
    SysWatchdog                              0x080216ff   Thumb Code   194  watchdog.o(.text)
    all_sms_init                             0x08021855   Thumb Code     2  sms_task.o(.text)
    FindUserPhone                            0x08021857   Thumb Code    42  sms_task.o(.text)
    FindBossPhone                            0x08021881   Thumb Code    26  sms_task.o(.text)
    FindAllPhone                             0x0802189b   Thumb Code    40  sms_task.o(.text)
    io_process_action_task                   0x080218c3   Thumb Code  1278  sms_task.o(.text)
    SendReportSmsToUser                      0x08021dc1   Thumb Code   870  sms_task.o(.text)
    process_sms                              0x08022127   Thumb Code     6  sms_task.o(.text)
    Ampm_MainSmsRecvCallback                 0x0802212d   Thumb Code 11680  sms_task.o(.text)
    SST25_Erase                              0x08024f57   Thumb Code   236  sst25.o(.text)
    OS_SST25_Erase                           0x08025043   Thumb Code    44  sst25.o(.text)
    _SST25_Read                              0x0802506f   Thumb Code   128  sst25.o(.text)
    SST25_Read                               0x080250ef   Thumb Code   106  sst25.o(.text)
    OS_SST25_Read                            0x08025159   Thumb Code    52  sst25.o(.text)
    __SST25_Write                            0x0802518d   Thumb Code   192  sst25.o(.text)
    _SST25_Write                             0x0802524d   Thumb Code    94  sst25.o(.text)
    SST25_Write                              0x080252ab   Thumb Code   260  sst25.o(.text)
    OS_SST25_Write                           0x080253af   Thumb Code    52  sst25.o(.text)
    OS_SST25_WriteNoErase                    0x080253e3   Thumb Code    52  sst25.o(.text)
    SST25_Init                               0x080254a7   Thumb Code    88  sst25.o(.text)
    IO_ControlInit                           0x080255bd   Thumb Code    16  io_control.o(.text)
    IO_ToggleSetStatus                       0x080255cd   Thumb Code    86  io_control.o(.text)
    IO_ToggleProcess                         0x08025623   Thumb Code    82  io_control.o(.text)
    LedInit                                  0x0802567d   Thumb Code    48  led.o(.text)
    CtrLed                                   0x080256ad   Thumb Code    40  led.o(.text)
    vOTA_Backup_Check                        0x080256fb   Thumb Code    52  ota_backup_server.o(.text)
    ota_backup_stop                          0x08025ccb   Thumb Code    74  ota_backup_server.o(.text)
    ota_backup_start                         0x08025d15   Thumb Code    34  ota_backup_server.o(.text)
    PowerSensor_Init                         0x08025d85   Thumb Code     8  power_sensor.o(.text)
    PowerSensorPause                         0x08025d8d   Thumb Code    16  power_sensor.o(.text)
    PowerSensor_Task                         0x08025d9d   Thumb Code  3136  power_sensor.o(.text)
    creat_P2                                 0x080269f5   Thumb Code    64  elster_tasks.o(.text)
    calc_bcc_data                            0x08026a35   Thumb Code    26  elster_tasks.o(.text)
    calc_bcc_funs                            0x08026a4f   Thumb Code    60  elster_tasks.o(.text)
    MeterElterTasks_IsIdle                   0x08026a8b   Thumb Code    14  elster_tasks.o(.text)
    MeterElterRead                           0x08026a99   Thumb Code    42  elster_tasks.o(.text)
    MeterElterTasksInit                      0x08026ac3   Thumb Code    62  elster_tasks.o(.text)
    MeterElterTasksStart                     0x08026b01   Thumb Code    12  elster_tasks.o(.text)
    MeterElsterTasksClose                    0x08026b0d   Thumb Code    24  elster_tasks.o(.text)
    ElsterCmd_Task                           0x08026b25   Thumb Code   376  elster_tasks.o(.text)
    ElsterCmdTask_GetPhase                   0x08026c9d   Thumb Code     6  elster_tasks.o(.text)
    JsonSave                                 0x08026ca3   Thumb Code     2  elster_tasks.o(.text)
    elsterConvertData                        0x08026ca5   Thumb Code   166  elster_tasks.o(.text)
    data_reverse                             0x08026d4b   Thumb Code    60  elster_tasks.o(.text)
    endian_convert_u32                       0x08026d87   Thumb Code    40  elster_tasks.o(.text)
    cmd606_process                           0x08026daf   Thumb Code   328  elster_tasks.o(.text)
    get_packetforhis                         0x08026ef7   Thumb Code   138  elster_tasks.o(.text)
    elsterParse                              0x08026f81   Thumb Code  4214  elster_tasks.o(.text)
    ElsterCmdCheckList_IsEmpty               0x08027ff7   Thumb Code    16  elster_tasks.o(.text)
    ElsterCmdAddToList                       0x08028007   Thumb Code    16  elster_tasks.o(.text)
    ElsterCmdTask_IsIdle                     0x08028017   Thumb Code    24  elster_tasks.o(.text)
    MeterElterTasks                          0x0802802f   Thumb Code   656  elster_tasks.o(.text)
    ElsterWriteCmdStart                      0x080282bf   Thumb Code    22  elster_tasks.o(.text)
    ElsterRecvCmdStart                       0x080282d5   Thumb Code    64  elster_tasks.o(.text)
    ElsterWriteCmdStop                       0x08028315   Thumb Code    24  elster_tasks.o(.text)
    ElsterRecvCmdStop                        0x0802832d   Thumb Code     6  elster_tasks.o(.text)
    ElsterWriteCmdGetP0                      0x08028333   Thumb Code    22  elster_tasks.o(.text)
    ElsterRecvCmdGetP0                       0x08028349   Thumb Code   348  elster_tasks.o(.text)
    ElsterWriteCmdP2                         0x080284a5   Thumb Code   146  elster_tasks.o(.text)
    ElsterRecvCmdP2                          0x08028537   Thumb Code    16  elster_tasks.o(.text)
    ElsterCmdTask_SendCmd                    0x08028547   Thumb Code    68  elster_tasks.o(.text)
    ElsterCmd0Add                            0x0802858b   Thumb Code     6  elster_tasks.o(.text)
    ElsterSendCmd0                           0x08028591   Thumb Code    28  elster_tasks.o(.text)
    ElsterRecvCmd0                           0x080285ad   Thumb Code    40  elster_tasks.o(.text)
    ElsterWriteCmd                           0x080285d5   Thumb Code    62  elster_tasks.o(.text)
    ElsterRecvData                           0x08028613   Thumb Code    76  elster_tasks.o(.text)
    ElsterWriteCmd1                          0x0802865f   Thumb Code    62  elster_tasks.o(.text)
    ElsterRecvData1                          0x0802869d   Thumb Code   154  elster_tasks.o(.text)
    ElsterWriteCmd2                          0x08028737   Thumb Code    62  elster_tasks.o(.text)
    ElsterRecvData2                          0x08028775   Thumb Code   232  elster_tasks.o(.text)
    data_remove_zero                         0x0802885d   Thumb Code   308  elster_tasks.o(.text)
    USART1_IsOk                              0x08028991   Thumb Code     6  uart1.o(.text)
    USART1_Init                              0x08028997   Thumb Code    34  uart1.o(.text)
    mUSART1_GetFill                          0x080289b9   Thumb Code    40  uart1.o(.text)
    mUSART1_GetChar                          0x080289e1   Thumb Code    78  uart1.o(.text)
    mUSART1_PutChar                          0x08028a2f   Thumb Code   104  uart1.o(.text)
    mUSART1_PutString                        0x08028a97   Thumb Code    22  uart1.o(.text)
    mUSART1_IRQHandler                       0x08028aad   Thumb Code   118  uart1.o(.text)
    UART5_Init                               0x08028b49   Thumb Code    34  uart5.o(.text)
    mUART5_GetRxBufSize                      0x08028b6b   Thumb Code     6  uart5.o(.text)
    mUART5_GetFill                           0x08028b71   Thumb Code    40  uart5.o(.text)
    mUART5_GetChar                           0x08028b99   Thumb Code    78  uart5.o(.text)
    mUART5_PutChar                           0x08028be7   Thumb Code   116  uart5.o(.text)
    mUART5_PutString                         0x08028c5b   Thumb Code    22  uart5.o(.text)
    mUART5_IRQHandler                        0x08028c71   Thumb Code   116  uart5.o(.text)
    halSpiWriteByte                          0x08028d09   Thumb Code    62  spi1.o(.text)
    UART4_Init                               0x08028d71   Thumb Code    34  uart4.o(.text)
    UART4_Setup                              0x08028d93   Thumb Code    64  uart4.o(.text)
    mUART4_GetRxBufSize                      0x08028dd3   Thumb Code     6  uart4.o(.text)
    mUART4_GetFill                           0x08028dd9   Thumb Code    40  uart4.o(.text)
    mUART4_GetChar                           0x08028e01   Thumb Code   166  uart4.o(.text)
    mUART4_PutChar                           0x08028ea7   Thumb Code   178  uart4.o(.text)
    mUART4_PutString                         0x08028f59   Thumb Code    22  uart4.o(.text)
    mUART4_IRQHandler                        0x08028f6f   Thumb Code   118  uart4.o(.text)
    USART6_IsOk                              0x0802901d   Thumb Code     6  uart6.o(.text)
    USART6_Init                              0x08029023   Thumb Code    34  uart6.o(.text)
    mUSART6_GetFill                          0x08029045   Thumb Code    40  uart6.o(.text)
    mUSART6_GetChar                          0x0802906d   Thumb Code    76  uart6.o(.text)
    mUSART6_PutChar                          0x080290b9   Thumb Code   126  uart6.o(.text)
    mUSART6_PutString                        0x08029137   Thumb Code    22  uart6.o(.text)
    mUSART6_IRQHandler                       0x0802914d   Thumb Code   140  uart6.o(.text)
    LoadFirmwareFile                         0x08029201   Thumb Code   154  app_config_task.o(.text)
    AppConfigTaskInit                        0x0802929b   Thumb Code    30  app_config_task.o(.text)
    DbgCfgPrintf                             0x080292b9   Thumb Code     8  app_config_task.o(.text)
    CfgCalcCheckSum                          0x080292c1   Thumb Code    26  app_config_task.o(.text)
    CfgProcessData                           0x080292db   Thumb Code  2176  app_config_task.o(.text)
    CfgParserPacket                          0x08029b5b   Thumb Code   170  app_config_task.o(.text)
    UartConfigTaskInit                       0x08029c0d   Thumb Code    34  uart_config_task.o(.text)
    CfgUART4SendData                         0x08029c2f   Thumb Code    66  uart_config_task.o(.text)
    CfgUART5SendData                         0x08029c71   Thumb Code    66  uart_config_task.o(.text)
    UartConfigTask                           0x08029cb3   Thumb Code   216  uart_config_task.o(.text)
    RTC_UpdateNewTime                        0x08029db1   Thumb Code    94  alarm.o(.text)
    RTC_CalendarShow                         0x08029e0f   Thumb Code   280  alarm.o(.text)
    RTC_SetTime                              0x08029f27   Thumb Code   288  alarm.o(.text)
    RTC_SetTimeTest                          0x0802a047   Thumb Code    82  alarm.o(.text)
    Alarm_Set                                0x0802a099   Thumb Code    76  alarm.o(.text)
    Alarm_GetSize                            0x0802a0e5   Thumb Code    54  alarm.o(.text)
    Alarm_FindNext                           0x0802a11b   Thumb Code   662  alarm.o(.text)
    Alarm_Check                              0x0802a3b1   Thumb Code    76  alarm.o(.text)
    Alarm_Task                               0x0802a3fd   Thumb Code   902  alarm.o(.text)
    Alarm_Callback                           0x0802a783   Thumb Code     8  alarm.o(.text)
    relay_init                               0x0802a7ad   Thumb Code    16  relay.o(.text)
    update_relay_status                      0x0802a7bd   Thumb Code    76  relay.o(.text)
    relay_on                                 0x0802a809   Thumb Code   102  relay.o(.text)
    relay_off                                0x0802a86f   Thumb Code   102  relay.o(.text)
    Ampm_CallTask_Init                       0x0802a8e9   Thumb Code    20  ampm_gsm_call.o(.text)
    Ampm_VoiceCallCheckList_IsEmpty          0x0802a8fd   Thumb Code    20  ampm_gsm_call.o(.text)
    Ampm_VoiceCallSetAction                  0x0802a911   Thumb Code     8  ampm_gsm_call.o(.text)
    Ampm_VoiceCallStartRecvCall              0x0802a919   Thumb Code    38  ampm_gsm_call.o(.text)
    Ampm_VoiceCallAdd                        0x0802a93f   Thumb Code    16  ampm_gsm_call.o(.text)
    Ampm_VoiceCallCancel                     0x0802a94f   Thumb Code    26  ampm_gsm_call.o(.text)
    Ampm_VoiceCallSetup                      0x0802a969   Thumb Code    66  ampm_gsm_call.o(.text)
    Ampm_CallTaskPeriodic_1Sec               0x0802a9ab   Thumb Code    94  ampm_gsm_call.o(.text)
    Ampm_CallTask                            0x0802aa09   Thumb Code   268  ampm_gsm_call.o(.text)
    Ampm_GsmVoiceCallCheckCeerEndCallback    0x0802ab15   Thumb Code   112  ampm_gsm_call.o(.text)
    Ampm_GsmVoiceCallCheckStateEndCallback   0x0802ab85   Thumb Code   638  ampm_gsm_call.o(.text)
    Ampm_GsmCallEndCallback                  0x0802ae03   Thumb Code    40  ampm_gsm_call.o(.text)
    Ampm_GsmATM1EndCallback                  0x0802ae2b   Thumb Code    26  ampm_gsm_call.o(.text)
    Ampm_GsmCallDialEndCallback              0x0802ae45   Thumb Code   102  ampm_gsm_call.o(.text)
    Ampm_GsmCHLD_1X_Callback                 0x0802aeab   Thumb Code    44  ampm_gsm_call.o(.text)
    Ampm_GsmCallDialStartCallback            0x0802aed7   Thumb Code    42  ampm_gsm_call.o(.text)
    Ampm_CallListSetEmpty                    0x0802af01   Thumb Code    12  ampm_gsm_call.o(.text)
    Ampm_GetCeer                             0x0802af0d   Thumb Code   132  ampm_gsm_call.o(.text)
    Ampm_GetListOfCurrentCall                0x0802af91   Thumb Code    70  ampm_gsm_call.o(.text)
    Ampm_ComparePhoneNumber_1                0x0802afd7   Thumb Code   166  ampm_gsm_call.o(.text)
    Ampm_ComparePhoneNumber                  0x0802b07d   Thumb Code   166  ampm_gsm_call.o(.text)
    Ampm_GsmGetCENG                          0x0802b189   Thumb Code    30  ampm_gsm_common.o(.text)
    Ampm_GsmGetCSQ                           0x0802b1a7   Thumb Code   272  ampm_gsm_common.o(.text)
    Ampm_GsmATDone                           0x0802b2e1   Thumb Code    20  ampm_gsm_dial_up.o(.text)
    Ampm_GsmATDone1                          0x0802b2f5   Thumb Code    20  ampm_gsm_dial_up.o(.text)
    DialupAtCallback0                        0x0802b309   Thumb Code    20  ampm_gsm_dial_up.o(.text)
    Ampm_GSM_DialUp_Reset                    0x0802b31d   Thumb Code    24  ampm_gsm_dial_up.o(.text)
    Ampm_GSM_DialUp_IsOk                     0x0802b335   Thumb Code    16  ampm_gsm_dial_up.o(.text)
    Ampm_GSM_DialUp_IsDone                   0x0802b345   Thumb Code    22  ampm_gsm_dial_up.o(.text)
    Ampm_GSM_DialUp                          0x0802b35b   Thumb Code   250  ampm_gsm_dial_up.o(.text)
    Ampm_GsmGotoCmdMode                      0x0802b545   Thumb Code    14  ampm_gsm_io.o(.text)
    Ampm_GsmGotoDataMode                     0x0802b553   Thumb Code    14  ampm_gsm_io.o(.text)
    Ampm_GsmSetApn                           0x0802b561   Thumb Code     6  ampm_gsm_io.o(.text)
    Ampm_SendAtCheck_IsEmpty                 0x0802b567   Thumb Code    10  ampm_gsm_io.o(.text)
    Ampm_AtCmdCheckResponse                  0x0802b571   Thumb Code    60  ampm_gsm_io.o(.text)
    Ampm_SendCommand                         0x0802b5ad   Thumb Code   162  ampm_gsm_io.o(.text)
    Ampm_SetCmdOK                            0x0802b64f   Thumb Code    12  ampm_gsm_io.o(.text)
    Ampm_SendAtCmd                           0x0802b65b   Thumb Code    18  ampm_gsm_io.o(.text)
    Ampm_SendAtCmdNow                        0x0802b66d   Thumb Code    18  ampm_gsm_io.o(.text)
    Ampm_GsmRecvCallback                     0x0802b67f   Thumb Code   116  ampm_gsm_io.o(.text)
    Ampm_GsmSendCallback                     0x0802b6f3   Thumb Code   150  ampm_gsm_io.o(.text)
    Ampm_CmdTask_SendCmd                     0x0802b789   Thumb Code   148  ampm_gsm_io.o(.text)
    Ampm_GsmInternetSetDisconnect            0x0802b85f   Thumb Code    28  ampm_gsm_main_task.o(.text)
    Ampm_Gsm_Error                           0x0802b8a9   Thumb Code    22  ampm_gsm_main_task.o(.text)
    Ampm_GsmSetMode                          0x0802b8bf   Thumb Code     6  ampm_gsm_main_task.o(.text)
    Ampm_GsmMainATPhaseFinished              0x0802b8c5   Thumb Code    30  ampm_gsm_main_task.o(.text)
    Ampm_GsmMainCallPhaseFinished            0x0802b8e3   Thumb Code    12  ampm_gsm_main_task.o(.text)
    Ampm_GsmGPRS_IsWorking                   0x0802b8ef   Thumb Code    22  ampm_gsm_main_task.o(.text)
    Ampm_Gsm_IsIdle                          0x0802b905   Thumb Code    42  ampm_gsm_main_task.o(.text)
    Ampm_GsmIsGood                           0x0802b92f   Thumb Code    16  ampm_gsm_main_task.o(.text)
    Ampm_MainSwithToIdle                     0x0802b93f   Thumb Code    26  ampm_gsm_main_task.o(.text)
    Ampm_GsmGetPhase                         0x0802b959   Thumb Code     6  ampm_gsm_main_task.o(.text)
    vTcpIpTaskInit                           0x0802b95f   Thumb Code     4  ampm_gsm_main_task.o(.text)
    vTcpIpTask                               0x0802b963   Thumb Code     4  ampm_gsm_main_task.o(.text)
    AMPM_GSM_Init                            0x0802b967   Thumb Code   120  ampm_gsm_main_task.o(.text)
    AMPM_GSM_MainTask                        0x0802b9df   Thumb Code  3350  ampm_gsm_main_task.o(.text)
    GsmGetTime                               0x0802c6f5   Thumb Code   986  ampm_gsm_main_task.o(.text)
    GsmGetUTCTime                            0x0802cacf   Thumb Code   610  ampm_gsm_main_task.o(.text)
    Ampm_GSM_GetATI                          0x0802cd31   Thumb Code   576  ampm_gsm_main_task.o(.text)
    SmsResetIntervalCnt                      0x0802d079   Thumb Code     8  ampm_gsm_ring.o(.text)
    Ampm_RingingTimer                        0x0802d081   Thumb Code   104  ampm_gsm_ring.o(.text)
    Ampm_Ringing_GetPhase                    0x0802d0e9   Thumb Code     6  ampm_gsm_ring.o(.text)
    Ampm_Ringing_RI_isActive                 0x0802d0ef   Thumb Code    22  ampm_gsm_ring.o(.text)
    Ampm_RingingDisable                      0x0802d105   Thumb Code    18  ampm_gsm_ring.o(.text)
    Ampm_RingingEnable                       0x0802d117   Thumb Code     8  ampm_gsm_ring.o(.text)
    Ampm_Is_RingingEnable                    0x0802d11f   Thumb Code    14  ampm_gsm_ring.o(.text)
    Ampm_RingingReset                        0x0802d12d   Thumb Code    18  ampm_gsm_ring.o(.text)
    Ampm_SetRinging                          0x0802d13f   Thumb Code    30  ampm_gsm_ring.o(.text)
    Ampm_SetAtRing                           0x0802d15d   Thumb Code    20  ampm_gsm_ring.o(.text)
    Ampm_SetAtClip                           0x0802d171   Thumb Code    20  ampm_gsm_ring.o(.text)
    Ampm_SetAtCmti                           0x0802d185   Thumb Code    26  ampm_gsm_ring.o(.text)
    Ampm_RingingProcess                      0x0802d19f   Thumb Code   252  ampm_gsm_ring.o(.text)
    Ampm_GsmSmsRecvCallback_CheckAT_OK       0x0802d385   Thumb Code    26  ampm_gsm_sms.o(.text)
    Ampm_GsmSmsSendCallback_CheckAT_OK       0x0802d39f   Thumb Code    26  ampm_gsm_sms.o(.text)
    Ampm_GsmSmsSendCallback_CMGF             0x0802d3b9   Thumb Code    32  ampm_gsm_sms.o(.text)
    Ampm_GsmSmsSendCallback_CSCA             0x0802d3d9   Thumb Code    54  ampm_gsm_sms.o(.text)
    Ampm_UpdateStatus                        0x0802d40f   Thumb Code    46  ampm_gsm_sms.o(.text)
    Ampm_GsmSmsSent                          0x0802d43d   Thumb Code    68  ampm_gsm_sms.o(.text)
    Ampm_GsmCREG                             0x0802d481   Thumb Code    28  ampm_gsm_sms.o(.text)
    Ampm_GsmSmsSendMessageCallback           0x0802d49d   Thumb Code    84  ampm_gsm_sms.o(.text)
    Ampm_GsmSmsSendCallback_CMGS             0x0802d4f1   Thumb Code   300  ampm_gsm_sms.o(.text)
    Ampm_GsmSmsRecvCallback_CCLK             0x0802d61d   Thumb Code   132  ampm_gsm_sms.o(.text)
    Ampm_GsmSmsRecvCallback_CMGR             0x0802d6a1   Thumb Code    30  ampm_gsm_sms.o(.text)
    Ampm_GsmSmsRecvCallback_CMGD             0x0802d6bf   Thumb Code    20  ampm_gsm_sms.o(.text)
    Ampm_GsmSmsRecv0                         0x0802d6d3   Thumb Code   428  ampm_gsm_sms.o(.text)
    Ampm_GsmSmsRecv1                         0x0802d87f   Thumb Code   118  ampm_gsm_sms.o(.text)
    Ampm_GsmSmsRecv2                         0x0802d8f5   Thumb Code    94  ampm_gsm_sms.o(.text)
    Ampm_GsmSmsRecv3                         0x0802d953   Thumb Code    34  ampm_gsm_sms.o(.text)
    Ampm_StartRecvSms                        0x0802d975   Thumb Code    10  ampm_gsm_sms.o(.text)
    Ampm_RecvSms_IsFinished                  0x0802d97f   Thumb Code    26  ampm_gsm_sms.o(.text)
    Ampm_SmsTask_Init                        0x0802d999   Thumb Code    44  ampm_gsm_sms.o(.text)
    Ampm_SmsTaskPeriodic_1Sec                0x0802d9c5   Thumb Code   186  ampm_gsm_sms.o(.text)
    Ampm_SMS_IsInProcess                     0x0802da7f   Thumb Code    64  ampm_gsm_sms.o(.text)
    Ampm_SmsTask                             0x0802dabf   Thumb Code   566  ampm_gsm_sms.o(.text)
    Ampm_SmsCheckMessage_IsEmpty             0x0802dcf5   Thumb Code    50  ampm_gsm_sms.o(.text)
    Ampm_SmsAddMsg                           0x0802dd27   Thumb Code    56  ampm_gsm_sms.o(.text)
    Ampm_Sms_SendMsg                         0x0802dd5f   Thumb Code   202  ampm_gsm_sms.o(.text)
    Ampm_SMS_ReadMsg                         0x0802de29   Thumb Code   304  ampm_gsm_sms.o(.text)
    Ampm_GetServiceCenterNumber              0x0802df59   Thumb Code    84  ampm_gsm_sms.o(.text)
    Ampm_SMS_URC_Incomming                   0x0802dfad   Thumb Code   122  ampm_gsm_sms.o(.text)
    Ampm_SMS_Process                         0x0802e027   Thumb Code   126  ampm_gsm_sms.o(.text)
    Ampm_SendSmsPolling                      0x0802e0a5   Thumb Code   256  ampm_gsm_sms.o(.text)
    AMPM_GSM_Startup_Init                    0x0802e1a9   Thumb Code    24  ampm_gsm_startup.o(.text)
    Ampm_GSM_GetSimCPOS                      0x0802e1c1   Thumb Code    58  ampm_gsm_startup.o(.text)
    Ampm_GSM_GetSimCIMI                      0x0802e1fb   Thumb Code    50  ampm_gsm_startup.o(.text)
    Ampm_GSM_GetSimCID                       0x0802e22d   Thumb Code    50  ampm_gsm_startup.o(.text)
    Ampm_GSM_GetIMEI                         0x0802e25f   Thumb Code    54  ampm_gsm_startup.o(.text)
    AMPM_GSM_Startup                         0x0802e295   Thumb Code  1492  ampm_gsm_startup.o(.text)
    Ampm_URC_CLIP_Process                    0x0802e8cd   Thumb Code    76  at_command_parser.o(.text)
    Ampm_URC_RING_Process                    0x0802e919   Thumb Code    14  at_command_parser.o(.text)
    AT_CmdProcessInit                        0x0802e927   Thumb Code    18  at_command_parser.o(.text)
    AT_ComnandParser                         0x0802e939   Thumb Code    46  at_command_parser.o(.text)
    COMM_Putc                                0x0802e989   Thumb Code    12  comm.o(.text)
    COMM_Puts                                0x0802e995   Thumb Code    12  comm.o(.text)
    COMM_Getc                                0x0802e9a1   Thumb Code    36  comm.o(.text)
    COMM_PutcRx                              0x0802e9c5   Thumb Code    36  comm.o(.text)
    COMM_CarrierDetected                     0x0802e9e9   Thumb Code     4  comm.o(.text)
    MODEM_RTS_Set                            0x0802e9ed   Thumb Code     2  comm.o(.text)
    MODEM_RTS_Clr                            0x0802e9ef   Thumb Code     2  comm.o(.text)
    MODEM_DTR_Set                            0x0802e9f1   Thumb Code     2  comm.o(.text)
    MODEM_DTR_Clr                            0x0802e9f3   Thumb Code     2  comm.o(.text)
    COMM_ClearTx                             0x0802e9f5   Thumb Code     2  comm.o(.text)
    MODEM_MOSFET_On                          0x0802e9f7   Thumb Code    14  comm.o(.text)
    MODEM_MOSFET_Off                         0x0802ea05   Thumb Code    14  comm.o(.text)
    MODEM_POWER_Set                          0x0802ea13   Thumb Code    14  comm.o(.text)
    MODEM_POWER_Clr                          0x0802ea21   Thumb Code    14  comm.o(.text)
    MODEM_RESET_Set                          0x0802ea2f   Thumb Code     2  comm.o(.text)
    MODEM_RESET_Clr                          0x0802ea31   Thumb Code     2  comm.o(.text)
    MODEM_Wakeup                             0x0802ea33   Thumb Code     2  comm.o(.text)
    MODEM_Sleep                              0x0802ea35   Thumb Code     2  comm.o(.text)
    MODEM_UartInit                           0x0802ea37   Thumb Code     2  comm.o(.text)
    pdu_encode                               0x0802ec59   Thumb Code   232  pdu.o(.text)
    pdu16_encode                             0x0802ed41   Thumb Code   216  pdu.o(.text)
    pdu_decode                               0x0802ee19   Thumb Code   308  pdu.o(.text)
    AmpmGsm_SendSms                          0x0802ef4d   Thumb Code   202  ampm_gsm_sms_api.o(.text)
    AmpmGsm_SendSmsPolling                   0x0802f017   Thumb Code   114  ampm_gsm_sms_api.o(.text)
    AmpmGsm_SendSmsTextPolling               0x0802f089   Thumb Code    28  ampm_gsm_sms_api.o(.text)
    AmpmGsm_SendSmsPDUWitchCallback          0x0802f0a5   Thumb Code    34  ampm_gsm_sms_api.o(.text)
    AmpmGsm_SendSmsPDU                       0x0802f0c7   Thumb Code    28  ampm_gsm_sms_api.o(.text)
    AmpmGsm_SendSmsTextWithCallback          0x0802f0e3   Thumb Code    34  ampm_gsm_sms_api.o(.text)
    AmpmGsm_SendSmsText                      0x0802f105   Thumb Code    34  ampm_gsm_sms_api.o(.text)
    jsoneq                                   0x0802f1b5   Thumb Code    56  aws_iot_json_utils.o(.text)
    parseUnsignedInteger32Value              0x0802f1ed   Thumb Code    98  aws_iot_json_utils.o(.text)
    parseUnsignedInteger16Value              0x0802f24f   Thumb Code    98  aws_iot_json_utils.o(.text)
    parseUnsignedInteger8Value               0x0802f2b1   Thumb Code    98  aws_iot_json_utils.o(.text)
    parseInteger32Value                      0x0802f313   Thumb Code    90  aws_iot_json_utils.o(.text)
    parseInteger16Value                      0x0802f36d   Thumb Code    90  aws_iot_json_utils.o(.text)
    parseInteger8Value                       0x0802f3c7   Thumb Code    90  aws_iot_json_utils.o(.text)
    parseFloatValue                          0x0802f421   Thumb Code    90  aws_iot_json_utils.o(.text)
    parseDoubleValue                         0x0802f47b   Thumb Code    90  aws_iot_json_utils.o(.text)
    parseBooleanValue                        0x0802f4d5   Thumb Code   172  aws_iot_json_utils.o(.text)
    parseStringValue                         0x0802f581   Thumb Code   392  aws_iot_json_utils.o(.text)
    aws_iot_mqtt_get_client_state            0x0802f709   Thumb Code    12  aws_iot_mqtt_client.o(.text)
    aws_iot_mqtt_set_client_state            0x0802f715   Thumb Code    40  aws_iot_mqtt_client.o(.text)
    aws_iot_mqtt_set_connect_params          0x0802f73d   Thumb Code   216  aws_iot_mqtt_client.o(.text)
    aws_iot_mqtt_init                        0x0802f815   Thumb Code   250  aws_iot_mqtt_client.o(.text)
    aws_iot_mqtt_get_next_packet_id          0x0802f90f   Thumb Code    26  aws_iot_mqtt_client.o(.text)
    aws_iot_mqtt_is_client_connected         0x0802f929   Thumb Code    98  aws_iot_mqtt_client.o(.text)
    aws_iot_is_autoreconnect_enabled         0x0802f98b   Thumb Code    38  aws_iot_mqtt_client.o(.text)
    aws_iot_mqtt_autoreconnect_set_status    0x0802f9b1   Thumb Code    16  aws_iot_mqtt_client.o(.text)
    aws_iot_mqtt_set_disconnect_handler      0x0802f9c1   Thumb Code    40  aws_iot_mqtt_client.o(.text)
    aws_iot_mqtt_get_network_disconnected_count 0x0802f9e9   Thumb Code     6  aws_iot_mqtt_client.o(.text)
    aws_iot_mqtt_reset_network_disconnected_count 0x0802f9ef   Thumb Code     6  aws_iot_mqtt_client.o(.text)
    aws_iot_mqtt_internal_write_len_to_buffer 0x0802fa29   Thumb Code    32  aws_iot_mqtt_client_common_internal.o(.text)
    aws_iot_mqtt_internal_decode_remaining_length_from_buffer 0x0802fa49   Thumb Code    62  aws_iot_mqtt_client_common_internal.o(.text)
    aws_iot_mqtt_internal_get_final_packet_length_from_remaining_length 0x0802fa87   Thumb Code    34  aws_iot_mqtt_client_common_internal.o(.text)
    aws_iot_mqtt_internal_read_uint16_t      0x0802faa9   Thumb Code    30  aws_iot_mqtt_client_common_internal.o(.text)
    aws_iot_mqtt_internal_write_uint_16      0x0802fac7   Thumb Code    48  aws_iot_mqtt_client_common_internal.o(.text)
    aws_iot_mqtt_internal_read_char          0x0802faf7   Thumb Code    14  aws_iot_mqtt_client_common_internal.o(.text)
    aws_iot_mqtt_internal_write_char         0x0802fb05   Thumb Code    12  aws_iot_mqtt_client_common_internal.o(.text)
    aws_iot_mqtt_internal_write_utf8_string  0x0802fb11   Thumb Code    38  aws_iot_mqtt_client_common_internal.o(.text)
    aws_iot_mqtt_internal_init_header        0x0802fb37   Thumb Code   308  aws_iot_mqtt_client_common_internal.o(.text)
    aws_iot_mqtt_internal_send_packet        0x0802fc6b   Thumb Code   118  aws_iot_mqtt_client_common_internal.o(.text)
    aws_iot_mqtt_internal_cycle_read         0x08030061   Thumb Code   124  aws_iot_mqtt_client_common_internal.o(.text)
    aws_iot_mqtt_internal_wait_for_read      0x080300dd   Thumb Code    96  aws_iot_mqtt_client_common_internal.o(.text)
    aws_iot_mqtt_internal_serialize_zero     0x0803013d   Thumb Code    98  aws_iot_mqtt_client_common_internal.o(.text)
    aws_iot_mqtt_connect                     0x08030547   Thumb Code   122  aws_iot_mqtt_client_connect.o(.text)
    _aws_iot_mqtt_internal_disconnect        0x080305c1   Thumb Code   200  aws_iot_mqtt_client_connect.o(.text)
    aws_iot_mqtt_disconnect                  0x08030689   Thumb Code    98  aws_iot_mqtt_client_connect.o(.text)
    aws_iot_mqtt_attempt_reconnect           0x080306eb   Thumb Code    78  aws_iot_mqtt_client_connect.o(.text)
    aws_iot_mqtt_internal_serialize_ack      0x080308bd   Thumb Code   128  aws_iot_mqtt_client_publish.o(.text)
    aws_iot_mqtt_internal_deserialize_ack    0x0803093d   Thumb Code   156  aws_iot_mqtt_client_publish.o(.text)
    aws_iot_mqtt_publish                     0x08030a81   Thumb Code   130  aws_iot_mqtt_client_publish.o(.text)
    aws_iot_mqtt_internal_deserialize_publish 0x08030b03   Thumb Code   220  aws_iot_mqtt_client_publish.o(.text)
    aws_iot_mqtt_subscribe                   0x08030e79   Thumb Code   134  aws_iot_mqtt_client_subscribe.o(.text)
    aws_iot_mqtt_resubscribe                 0x08030fd5   Thumb Code    90  aws_iot_mqtt_client_subscribe.o(.text)
    aws_iot_mqtt_unsubscribe                 0x0803120f   Thumb Code   126  aws_iot_mqtt_client_unsubscribe.o(.text)
    aws_iot_mqtt_yield                       0x080314c5   Thumb Code   128  aws_iot_mqtt_client_yield.o(.text)
    aws_iot_shadow_reset_last_received_version 0x08031545   Thumb Code     8  aws_iot_shadow.o(.text)
    aws_iot_shadow_get_last_received_version 0x0803154d   Thumb Code     6  aws_iot_shadow.o(.text)
    aws_iot_shadow_enable_discard_old_delta_msgs 0x08031553   Thumb Code     8  aws_iot_shadow.o(.text)
    aws_iot_shadow_disable_discard_old_delta_msgs 0x0803155b   Thumb Code     8  aws_iot_shadow.o(.text)
    aws_iot_shadow_init                      0x08031563   Thumb Code   100  aws_iot_shadow.o(.text)
    aws_iot_shadow_connect                   0x080315c7   Thumb Code   182  aws_iot_shadow.o(.text)
    aws_iot_shadow_register_delta            0x0803167d   Thumb Code    38  aws_iot_shadow.o(.text)
    aws_iot_shadow_yield                     0x080316a3   Thumb Code    28  aws_iot_shadow.o(.text)
    aws_iot_shadow_disconnect                0x080316bf   Thumb Code    12  aws_iot_shadow.o(.text)
    aws_iot_shadow_update                    0x080316cb   Thumb Code    66  aws_iot_shadow.o(.text)
    aws_iot_shadow_delete                    0x0803170d   Thumb Code    72  aws_iot_shadow.o(.text)
    aws_iot_shadow_get                       0x08031755   Thumb Code    72  aws_iot_shadow.o(.text)
    aws_iot_shadow_set_autoreconnect_status  0x0803179d   Thumb Code    16  aws_iot_shadow.o(.text)
    aws_iot_shadow_internal_action           0x080317ed   Thumb Code   170  aws_iot_shadow_actions.o(.text)
    resetClientTokenSequenceNum              0x08031899   Thumb Code     8  aws_iot_shadow_json.o(.text)
    FillWithClientToken                      0x080318a1   Thumb Code     2  aws_iot_shadow_json.o(.text)
    aws_iot_shadow_internal_get_request_json 0x080318cf   Thumb Code    12  aws_iot_shadow_json.o(.text)
    aws_iot_shadow_internal_delete_request_json 0x080318db   Thumb Code    12  aws_iot_shadow_json.o(.text)
    aws_iot_shadow_init_json_document        0x080318e7   Thumb Code    46  aws_iot_shadow_json.o(.text)
    aws_iot_shahow_add_reported_header       0x08031915   Thumb Code    64  aws_iot_shadow_json.o(.text)
    aws_shadow_footer_reported               0x08031955   Thumb Code    66  aws_iot_shadow_json.o(.text)
    aws_iot_shadow_add_fields                0x08031acd   Thumb Code   196  aws_iot_shadow_json.o(.text)
    aws_iot_add_object                       0x08031b91   Thumb Code   440  aws_iot_shadow_json.o(.text)
    aws_iot_add_object_from_buffer           0x08031d49   Thumb Code   104  aws_iot_shadow_json.o(.text)
    aws_iot_shadow_add_desired               0x08031db1   Thumb Code   292  aws_iot_shadow_json.o(.text)
    aws_iot_shadow_add_reported              0x08031ed5   Thumb Code   292  aws_iot_shadow_json.o(.text)
    FillWithClientTokenSize                  0x08031ff9   Thumb Code    24  aws_iot_shadow_json.o(.text)
    aws_iot_fill_with_client_token           0x08032011   Thumb Code    28  aws_iot_shadow_json.o(.text)
    aws_iot_finalize_json_document           0x0803202d   Thumb Code   202  aws_iot_shadow_json.o(.text)
    isJsonValidAndParse                      0x080320f7   Thumb Code   278  aws_iot_shadow_json.o(.text)
    UpdateValueIfNoObject                    0x0803220d   Thumb Code   194  aws_iot_shadow_json.o(.text)
    isJsonKeyMatchingAndUpdateValue          0x080322cf   Thumb Code   114  aws_iot_shadow_json.o(.text)
    isReceivedJsonValid                      0x08032341   Thumb Code    98  aws_iot_shadow_json.o(.text)
    extractClientToken                       0x080323a3   Thumb Code   186  aws_iot_shadow_json.o(.text)
    extractVersionNumber                     0x0803245d   Thumb Code    76  aws_iot_shadow_json.o(.text)
    initDeltaTokens                          0x080324dd   Thumb Code    34  aws_iot_shadow_records.o(.text)
    registerJsonTokenOnDelta                 0x0803261f   Thumb Code   150  aws_iot_shadow_records.o(.text)
    initializeRecords                        0x08032c0d   Thumb Code    86  aws_iot_shadow_records.o(.text)
    isSubscriptionPresent                    0x08032c63   Thumb Code   126  aws_iot_shadow_records.o(.text)
    subscribeToShadowActionAcks              0x08032ce1   Thumb Code   388  aws_iot_shadow_records.o(.text)
    incrementSubscriptionCnt                 0x08032e65   Thumb Code   136  aws_iot_shadow_records.o(.text)
    publishToShadowAction                    0x08032eed   Thumb Code    86  aws_iot_shadow_records.o(.text)
    getNextFreeIndexOfAckWaitList            0x08032f43   Thumb Code    52  aws_iot_shadow_records.o(.text)
    addToAckWaitList                         0x08032f77   Thumb Code   158  aws_iot_shadow_records.o(.text)
    HandleExpiredResponseCallbacks           0x08033015   Thumb Code   142  aws_iot_shadow_records.o(.text)
    has_timer_expired                        0x080330b5   Thumb Code    26  aws_timer.o(.text)
    countdown_ms                             0x080330cf   Thumb Code    16  aws_timer.o(.text)
    countdown_sec                            0x080330df   Thumb Code    22  aws_timer.o(.text)
    left_ms                                  0x080330f5   Thumb Code    36  aws_timer.o(.text)
    init_timer                               0x08033119   Thumb Code    20  aws_timer.o(.text)
    mbedtls_net_init                         0x08033135   Thumb Code     2  net_socket.o(.text)
    mbedtls_net_connect                      0x08033137   Thumb Code   194  net_socket.o(.text)
    mbedtls_net_set_block                    0x080331f9   Thumb Code    30  net_socket.o(.text)
    mbedtls_net_set_nonblock                 0x08033217   Thumb Code    30  net_socket.o(.text)
    mbedtls_net_recv                         0x0803325d   Thumb Code    96  net_socket.o(.text)
    mbedtls_net_send                         0x080332bd   Thumb Code   100  net_socket.o(.text)
    mbedtls_net_recv_timeout                 0x08033321   Thumb Code   182  net_socket.o(.text)
    mbedtls_net_free                         0x080333d7   Thumb Code    46  net_socket.o(.text)
    jsmn_parse                               0x080336d1   Thumb Code   606  jsmn.o(.text)
    jsmn_init                                0x0803392f   Thumb Code    12  jsmn.o(.text)
    _iot_tls_set_connect_params              0x080339e3   Thumb Code    24  network_mbedtls_wrapper.o(.text)
    iot_tls_destroy                          0x080339fb   Thumb Code    64  network_mbedtls_wrapper.o(.text)
    iot_tls_is_connected                     0x08033a3b   Thumb Code     6  network_mbedtls_wrapper.o(.text)
    iot_tls_disconnect                       0x08033a41   Thumb Code    30  network_mbedtls_wrapper.o(.text)
    iot_tls_write                            0x08033a5f   Thumb Code   182  network_mbedtls_wrapper.o(.text)
    iot_tls_read                             0x08033b15   Thumb Code   116  network_mbedtls_wrapper.o(.text)
    iot_tls_dbg                              0x08033b89   Thumb Code     6  network_mbedtls_wrapper.o(.text)
    iot_tls_connect                          0x08033b8f   Thumb Code  1776  network_mbedtls_wrapper.o(.text)
    iot_tls_init                             0x0803427f   Thumb Code   760  network_mbedtls_wrapper.o(.text)
    mbedtls_aes_init                         0x0803458f   Thumb Code    16  aes.o(.text)
    mbedtls_aes_free                         0x0803459f   Thumb Code    22  aes.o(.text)
    mbedtls_aes_setkey_enc                   0x080345b5   Thumb Code   496  aes.o(.text)
    mbedtls_aes_setkey_dec                   0x080347a5   Thumb Code   204  aes.o(.text)
    mbedtls_internal_aes_encrypt             0x08034871   Thumb Code  1304  aes.o(.text)
    mbedtls_aes_encrypt                      0x08034d89   Thumb Code    20  aes.o(.text)
    mbedtls_internal_aes_decrypt             0x08034d9d   Thumb Code  1262  aes.o(.text)
    mbedtls_aes_decrypt                      0x0803528b   Thumb Code    20  aes.o(.text)
    mbedtls_aes_crypt_ecb                    0x0803529f   Thumb Code    38  aes.o(.text)
    mbedtls_aes_crypt_cbc                    0x080352c5   Thumb Code   162  aes.o(.text)
    mbedtls_aes_self_test                    0x08035367   Thumb Code   546  aes.o(.text)
    mbedtls_asn1_get_len                     0x08035623   Thumb Code   254  asn1parse.o(.text)
    mbedtls_asn1_get_tag                     0x08035721   Thumb Code    56  asn1parse.o(.text)
    mbedtls_asn1_get_bool                    0x08035759   Thumb Code    64  asn1parse.o(.text)
    mbedtls_asn1_get_int                     0x08035799   Thumb Code    92  asn1parse.o(.text)
    mbedtls_asn1_get_mpi                     0x080357f5   Thumb Code    52  asn1parse.o(.text)
    mbedtls_asn1_get_bitstring               0x08035829   Thumb Code    96  asn1parse.o(.text)
    mbedtls_asn1_get_bitstring_null          0x08035889   Thumb Code    58  asn1parse.o(.text)
    mbedtls_asn1_get_sequence_of             0x080358c3   Thumb Code   152  asn1parse.o(.text)
    mbedtls_asn1_get_alg                     0x0803595b   Thumb Code   174  asn1parse.o(.text)
    mbedtls_asn1_get_alg_null                0x08035a09   Thumb Code    60  asn1parse.o(.text)
    mbedtls_asn1_free_named_data             0x08035a45   Thumb Code    36  asn1parse.o(.text)
    mbedtls_asn1_free_named_data_list        0x08035a69   Thumb Code    32  asn1parse.o(.text)
    mbedtls_asn1_find_named_data             0x08035a89   Thumb Code    42  asn1parse.o(.text)
    mbedtls_asn1_write_len                   0x08035abd   Thumb Code   254  asn1write.o(.text)
    mbedtls_asn1_write_tag                   0x08035bbb   Thumb Code    28  asn1write.o(.text)
    mbedtls_asn1_write_raw_buffer            0x08035bd7   Thumb Code    58  asn1write.o(.text)
    mbedtls_asn1_write_mpi                   0x08035c11   Thumb Code   168  asn1write.o(.text)
    mbedtls_asn1_write_null                  0x08035cb9   Thumb Code    60  asn1write.o(.text)
    mbedtls_asn1_write_oid                   0x08035cf5   Thumb Code    94  asn1write.o(.text)
    mbedtls_asn1_write_algorithm_identifier  0x08035d53   Thumb Code   122  asn1write.o(.text)
    mbedtls_asn1_write_bool                  0x08035dcd   Thumb Code   102  asn1write.o(.text)
    mbedtls_asn1_write_int                   0x08035e33   Thumb Code   134  asn1write.o(.text)
    mbedtls_asn1_write_printable_string      0x08035eb9   Thumb Code    94  asn1write.o(.text)
    mbedtls_asn1_write_ia5_string            0x08035f17   Thumb Code    94  asn1write.o(.text)
    mbedtls_asn1_write_bitstring             0x08035f75   Thumb Code   144  asn1write.o(.text)
    mbedtls_asn1_write_octet_string          0x08036005   Thumb Code    94  asn1write.o(.text)
    mbedtls_asn1_store_named_data            0x08036063   Thumb Code   198  asn1write.o(.text)
    mbedtls_base64_encode                    0x08036131   Thumb Code   312  base64.o(.text)
    mbedtls_base64_decode                    0x08036269   Thumb Code   350  base64.o(.text)
    mbedtls_base64_self_test                 0x080363c7   Thumb Code   124  base64.o(.text)
    mbedtls_mpi_init                         0x080364b9   Thumb Code    18  bignum.o(.text)
    mbedtls_mpi_free                         0x080364cb   Thumb Code    42  bignum.o(.text)
    mbedtls_mpi_grow                         0x080364f5   Thumb Code    86  bignum.o(.text)
    mbedtls_mpi_shrink                       0x0803654b   Thumb Code   116  bignum.o(.text)
    mbedtls_mpi_copy                         0x080365bf   Thumb Code   106  bignum.o(.text)
    mbedtls_mpi_swap                         0x08036629   Thumb Code    28  bignum.o(.text)
    mbedtls_mpi_safe_cond_assign             0x08036645   Thumb Code   134  bignum.o(.text)
    mbedtls_mpi_safe_cond_swap               0x080366cb   Thumb Code   176  bignum.o(.text)
    mbedtls_mpi_lset                         0x0803677b   Thumb Code    68  bignum.o(.text)
    mbedtls_mpi_get_bit                      0x080367bf   Thumb Code    34  bignum.o(.text)
    mbedtls_mpi_set_bit                      0x080367e1   Thumb Code   112  bignum.o(.text)
    mbedtls_mpi_lsb                          0x08036851   Thumb Code    52  bignum.o(.text)
    mbedtls_mpi_bitlen                       0x080368a3   Thumb Code    66  bignum.o(.text)
    mbedtls_mpi_size                         0x080368e5   Thumb Code    16  bignum.o(.text)
    mbedtls_mpi_add_abs                      0x08036935   Thumb Code   242  bignum.o(.text)
    mbedtls_mpi_cmp_abs                      0x08036a8b   Thumb Code   138  bignum.o(.text)
    mbedtls_mpi_sub_abs                      0x08036b15   Thumb Code   140  bignum.o(.text)
    mbedtls_mpi_sub_mpi                      0x08036ba1   Thumb Code   120  bignum.o(.text)
    mbedtls_mpi_sub_int                      0x08036c19   Thumb Code    56  bignum.o(.text)
    mbedtls_mpi_add_mpi                      0x08036c51   Thumb Code   120  bignum.o(.text)
    mbedtls_mpi_add_int                      0x08036cc9   Thumb Code    56  bignum.o(.text)
    mbedtls_mpi_mul_mpi                      0x08037331   Thumb Code   238  bignum.o(.text)
    mbedtls_mpi_mul_int                      0x0803741f   Thumb Code    34  bignum.o(.text)
    mbedtls_mpi_read_string                  0x08037441   Thumb Code   374  bignum.o(.text)
    mbedtls_mpi_cmp_mpi                      0x080375b7   Thumb Code   172  bignum.o(.text)
    mbedtls_mpi_cmp_int                      0x08037663   Thumb Code    52  bignum.o(.text)
    mbedtls_mpi_shift_r                      0x08037697   Thumb Code   166  bignum.o(.text)
    mbedtls_mpi_shift_l                      0x0803773d   Thumb Code   194  bignum.o(.text)
    mbedtls_mpi_div_mpi                      0x08037867   Thumb Code   980  bignum.o(.text)
    mbedtls_mpi_div_int                      0x08037c3b   Thumb Code    64  bignum.o(.text)
    mbedtls_mpi_mod_int                      0x08037c7b   Thumb Code   120  bignum.o(.text)
    mbedtls_mpi_write_string                 0x08037d7b   Thumb Code   354  bignum.o(.text)
    mbedtls_mpi_read_binary                  0x08037edd   Thumb Code   144  bignum.o(.text)
    mbedtls_mpi_write_binary                 0x08037f6d   Thumb Code    80  bignum.o(.text)
    mbedtls_mpi_mod_mpi                      0x08037fbd   Thumb Code   126  bignum.o(.text)
    mbedtls_mpi_exp_mod                      0x08038165   Thumb Code  1380  bignum.o(.text)
    mbedtls_mpi_gcd                          0x080386c9   Thumb Code   348  bignum.o(.text)
    mbedtls_mpi_fill_random                  0x08038825   Thumb Code    82  bignum.o(.text)
    mbedtls_mpi_inv_mod                      0x08038877   Thumb Code   816  bignum.o(.text)
    mbedtls_mpi_self_test                    0x08038ba7   Thumb Code   932  bignum.o(.text)
    mbedtls_ccm_init                         0x08038f8b   Thumb Code    14  ccm.o(.text)
    mbedtls_ccm_setkey                       0x08038f99   Thumb Code    96  ccm.o(.text)
    mbedtls_ccm_free                         0x08038ff9   Thumb Code    20  ccm.o(.text)
    mbedtls_ccm_encrypt_and_tag              0x08039369   Thumb Code    44  ccm.o(.text)
    mbedtls_ccm_auth_decrypt                 0x08039395   Thumb Code   114  ccm.o(.text)
    mbedtls_ccm_self_test                    0x08039407   Thumb Code   288  ccm.o(.text)
    mbedtls_cipher_list                      0x0803959b   Thumb Code    36  cipher.o(.text)
    mbedtls_cipher_info_from_type            0x080395bf   Thumb Code    28  cipher.o(.text)
    mbedtls_cipher_info_from_string          0x080395db   Thumb Code    42  cipher.o(.text)
    mbedtls_cipher_info_from_values          0x08039605   Thumb Code    52  cipher.o(.text)
    mbedtls_cipher_init                      0x08039639   Thumb Code    14  cipher.o(.text)
    mbedtls_cipher_free                      0x08039647   Thumb Code    34  cipher.o(.text)
    mbedtls_cipher_set_padding_mode          0x080396f7   Thumb Code    56  cipher.o(.text)
    mbedtls_cipher_setup                     0x0803972f   Thumb Code    52  cipher.o(.text)
    mbedtls_cipher_setkey                    0x08039763   Thumb Code   108  cipher.o(.text)
    mbedtls_cipher_set_iv                    0x080397cf   Thumb Code    78  cipher.o(.text)
    mbedtls_cipher_reset                     0x0803981d   Thumb Code    20  cipher.o(.text)
    mbedtls_cipher_update_ad                 0x08039831   Thumb Code    52  cipher.o(.text)
    mbedtls_cipher_update                    0x08039865   Thumb Code   446  cipher.o(.text)
    mbedtls_cipher_finish                    0x08039a23   Thumb Code   270  cipher.o(.text)
    mbedtls_cipher_write_tag                 0x08039b31   Thumb Code    58  cipher.o(.text)
    mbedtls_cipher_check_tag                 0x08039b6b   Thumb Code   108  cipher.o(.text)
    mbedtls_cipher_crypt                     0x08039bd7   Thumb Code   114  cipher.o(.text)
    mbedtls_cipher_auth_encrypt              0x08039c49   Thumb Code   106  cipher.o(.text)
    mbedtls_cipher_auth_decrypt              0x08039cb3   Thumb Code   144  cipher.o(.text)
    mbedtls_ctr_drbg_init                    0x08039ea7   Thumb Code    16  ctr_drbg.o(.text)
    mbedtls_ctr_drbg_reseed                  0x0803a05f   Thumb Code   118  ctr_drbg.o(.text)
    mbedtls_ctr_drbg_seed_entropy_len        0x0803a0d5   Thumb Code    94  ctr_drbg.o(.text)
    mbedtls_ctr_drbg_seed                    0x0803a133   Thumb Code    38  ctr_drbg.o(.text)
    mbedtls_ctr_drbg_free                    0x0803a159   Thumb Code    30  ctr_drbg.o(.text)
    mbedtls_ctr_drbg_set_prediction_resistance 0x0803a177   Thumb Code     4  ctr_drbg.o(.text)
    mbedtls_ctr_drbg_set_entropy_len         0x0803a17b   Thumb Code     4  ctr_drbg.o(.text)
    mbedtls_ctr_drbg_set_reseed_interval     0x0803a17f   Thumb Code     4  ctr_drbg.o(.text)
    mbedtls_ctr_drbg_update                  0x0803a183   Thumb Code    44  ctr_drbg.o(.text)
    mbedtls_ctr_drbg_random_with_add         0x0803a1af   Thumb Code   212  ctr_drbg.o(.text)
    mbedtls_ctr_drbg_random                  0x0803a283   Thumb Code    36  ctr_drbg.o(.text)
    mbedtls_ctr_drbg_self_test               0x0803a2d1   Thumb Code   332  ctr_drbg.o(.text)
    mbedtls_debug_set_threshold              0x0803a489   Thumb Code     6  debug.o(.text)
    mbedtls_debug_print_msg                  0x0803a4b5   Thumb Code   112  debug.o(.text)
    mbedtls_debug_print_ret                  0x0803a525   Thumb Code    96  debug.o(.text)
    mbedtls_debug_print_buf                  0x0803a585   Thumb Code   298  debug.o(.text)
    mbedtls_debug_print_mpi                  0x0803a6af   Thumb Code   376  debug.o(.text)
    mbedtls_debug_print_ecp                  0x0803a827   Thumb Code   264  debug.o(.text)
    mbedtls_debug_print_crt                  0x0803aa6d   Thumb Code   162  debug.o(.text)
    mbedtls_ecdh_gen_public                  0x0803ab59   Thumb Code    36  ecdh.o(.text)
    mbedtls_ecdh_compute_shared              0x0803ab7d   Thumb Code   114  ecdh.o(.text)
    mbedtls_ecdh_init                        0x0803abef   Thumb Code    16  ecdh.o(.text)
    mbedtls_ecdh_free                        0x0803abff   Thumb Code    74  ecdh.o(.text)
    mbedtls_ecdh_make_params                 0x0803ac49   Thumb Code   132  ecdh.o(.text)
    mbedtls_ecdh_read_params                 0x0803accd   Thumb Code    60  ecdh.o(.text)
    mbedtls_ecdh_get_params                  0x0803ad09   Thumb Code    92  ecdh.o(.text)
    mbedtls_ecdh_make_public                 0x0803ad65   Thumb Code    80  ecdh.o(.text)
    mbedtls_ecdh_read_public                 0x0803adb5   Thumb Code    54  ecdh.o(.text)
    mbedtls_ecdh_calc_secret                 0x0803adeb   Thumb Code   110  ecdh.o(.text)
    mbedtls_ecdsa_sign                       0x0803aee1   Thumb Code   466  ecdsa.o(.text)
    mbedtls_ecdsa_sign_det                   0x0803b0b3   Thumb Code   182  ecdsa.o(.text)
    mbedtls_ecdsa_verify                     0x0803b169   Thumb Code   392  ecdsa.o(.text)
    mbedtls_ecdsa_write_signature            0x0803b37d   Thumb Code   112  ecdsa.o(.text)
    mbedtls_ecdsa_write_signature_det        0x0803b3ed   Thumb Code    44  ecdsa.o(.text)
    mbedtls_ecdsa_read_signature             0x0803b419   Thumb Code   164  ecdsa.o(.text)
    mbedtls_ecdsa_genkey                     0x0803b4bd   Thumb Code    48  ecdsa.o(.text)
    mbedtls_ecdsa_free                       0x0803b4ed   Thumb Code    12  ecdsa.o(.text)
    mbedtls_ecdsa_from_keypair               0x0803b4f9   Thumb Code    60  ecdsa.o(.text)
    mbedtls_ecdsa_init                       0x0803b535   Thumb Code    12  ecdsa.o(.text)
    mbedtls_ecp_curve_list                   0x0803b55f   Thumb Code     4  ecp.o(.text)
    mbedtls_ecp_grp_id_list                  0x0803b563   Thumb Code    52  ecp.o(.text)
    mbedtls_ecp_curve_info_from_grp_id       0x0803b597   Thumb Code    34  ecp.o(.text)
    mbedtls_ecp_curve_info_from_tls_id       0x0803b5b9   Thumb Code    34  ecp.o(.text)
    mbedtls_ecp_curve_info_from_name         0x0803b5db   Thumb Code    38  ecp.o(.text)
    mbedtls_ecp_point_init                   0x0803b617   Thumb Code    34  ecp.o(.text)
    mbedtls_ecp_group_init                   0x0803b639   Thumb Code    20  ecp.o(.text)
    mbedtls_ecp_keypair_init                 0x0803b64d   Thumb Code    34  ecp.o(.text)
    mbedtls_ecp_point_free                   0x0803b66f   Thumb Code    34  ecp.o(.text)
    mbedtls_ecp_group_free                   0x0803b691   Thumb Code   102  ecp.o(.text)
    mbedtls_ecp_keypair_free                 0x0803b6f7   Thumb Code    34  ecp.o(.text)
    mbedtls_ecp_copy                         0x0803b719   Thumb Code    74  ecp.o(.text)
    mbedtls_ecp_group_copy                   0x0803b763   Thumb Code    16  ecp.o(.text)
    mbedtls_ecp_set_zero                     0x0803b773   Thumb Code    68  ecp.o(.text)
    mbedtls_ecp_is_zero                      0x0803b7b7   Thumb Code    24  ecp.o(.text)
    mbedtls_ecp_point_cmp                    0x0803b7cf   Thumb Code    52  ecp.o(.text)
    mbedtls_ecp_point_read_string            0x0803b803   Thumb Code    82  ecp.o(.text)
    mbedtls_ecp_point_write_binary           0x0803b855   Thumb Code   224  ecp.o(.text)
    mbedtls_ecp_point_read_binary            0x0803b935   Thumb Code   168  ecp.o(.text)
    mbedtls_ecp_tls_read_point               0x0803b9dd   Thumb Code    66  ecp.o(.text)
    mbedtls_ecp_tls_write_point              0x0803ba1f   Thumb Code    66  ecp.o(.text)
    mbedtls_ecp_tls_read_group               0x0803ba61   Thumb Code    86  ecp.o(.text)
    mbedtls_ecp_tls_write_group              0x0803bab7   Thumb Code    58  ecp.o(.text)
    mbedtls_ecp_check_pubkey                 0x0803dbdd   Thumb Code    66  ecp.o(.text)
    mbedtls_ecp_check_privkey                0x0803dc1f   Thumb Code   116  ecp.o(.text)
    mbedtls_ecp_mul                          0x0803dc93   Thumb Code   130  ecp.o(.text)
    mbedtls_ecp_muladd                       0x0803dda1   Thumb Code   162  ecp.o(.text)
    mbedtls_ecp_gen_keypair_base             0x0803de43   Thumb Code   340  ecp.o(.text)
    mbedtls_ecp_gen_keypair                  0x0803df97   Thumb Code    38  ecp.o(.text)
    mbedtls_ecp_gen_key                      0x0803dfbd   Thumb Code    52  ecp.o(.text)
    mbedtls_ecp_check_pub_priv               0x0803dff1   Thumb Code   178  ecp.o(.text)
    mbedtls_ecp_self_test                    0x0803e0a3   Thumb Code   586  ecp.o(.text)
    mbedtls_ecp_group_load                   0x0803f09b   Thumb Code   150  ecp_curves.o(.text)
    mbedtls_entropy_add_source               0x0803f18b   Thumb Code    88  entropy.o(.text)
    mbedtls_entropy_init                     0x0803f1e3   Thumb Code    40  entropy.o(.text)
    mbedtls_entropy_free                     0x0803f20b   Thumb Code    16  entropy.o(.text)
    mbedtls_entropy_update_manual            0x0803f267   Thumb Code    30  entropy.o(.text)
    mbedtls_entropy_gather                   0x0803f32d   Thumb Code    16  entropy.o(.text)
    mbedtls_entropy_func                     0x0803f33d   Thumb Code   232  entropy.o(.text)
    mbedtls_entropy_source_self_test         0x0803f4b3   Thumb Code   148  entropy.o(.text)
    mbedtls_entropy_self_test                0x0803f547   Thumb Code   296  entropy.o(.text)
    mbedtls_gcm_init                         0x0803f687   Thumb Code    16  gcm.o(.text)
    mbedtls_gcm_setkey                       0x0803f82b   Thumb Code   112  gcm.o(.text)
    mbedtls_gcm_starts                       0x0803fa5b   Thumb Code   378  gcm.o(.text)
    mbedtls_gcm_update                       0x0803fbd5   Thumb Code   296  gcm.o(.text)
    mbedtls_gcm_finish                       0x0803fcfd   Thumb Code   378  gcm.o(.text)
    mbedtls_gcm_crypt_and_tag                0x0803fe77   Thumb Code    88  gcm.o(.text)
    mbedtls_gcm_auth_decrypt                 0x0803fecf   Thumb Code   112  gcm.o(.text)
    mbedtls_gcm_free                         0x0803ff3f   Thumb Code    22  gcm.o(.text)
    mbedtls_gcm_self_test                    0x0803ff55   Thumb Code  1294  gcm.o(.text)
    mbedtls_hmac_drbg_init                   0x0804048f   Thumb Code    14  hmac_drbg.o(.text)
    mbedtls_hmac_drbg_update                 0x0804049d   Thumb Code   144  hmac_drbg.o(.text)
    mbedtls_hmac_drbg_seed_buf               0x0804052d   Thumb Code    88  hmac_drbg.o(.text)
    mbedtls_hmac_drbg_reseed                 0x08040585   Thumb Code   100  hmac_drbg.o(.text)
    mbedtls_hmac_drbg_seed                   0x080405e9   Thumb Code   134  hmac_drbg.o(.text)
    mbedtls_hmac_drbg_set_prediction_resistance 0x0804066f   Thumb Code     4  hmac_drbg.o(.text)
    mbedtls_hmac_drbg_set_entropy_len        0x08040673   Thumb Code     4  hmac_drbg.o(.text)
    mbedtls_hmac_drbg_set_reseed_interval    0x08040677   Thumb Code     4  hmac_drbg.o(.text)
    mbedtls_hmac_drbg_random_with_add        0x0804067b   Thumb Code   212  hmac_drbg.o(.text)
    mbedtls_hmac_drbg_random                 0x0804074f   Thumb Code    36  hmac_drbg.o(.text)
    mbedtls_hmac_drbg_free                   0x08040773   Thumb Code    26  hmac_drbg.o(.text)
    mbedtls_hmac_drbg_self_test              0x080407b7   Thumb Code   344  hmac_drbg.o(.text)
    mbedtls_md_list                          0x0804098b   Thumb Code     4  md.o(.text)
    mbedtls_md_info_from_type                0x0804098f   Thumb Code    42  md.o(.text)
    mbedtls_md_info_from_string              0x080409b9   Thumb Code   114  md.o(.text)
    mbedtls_md_init                          0x08040a2b   Thumb Code    10  md.o(.text)
    mbedtls_md_free                          0x08040a35   Thumb Code    60  md.o(.text)
    mbedtls_md_clone                         0x08040a71   Thumb Code    44  md.o(.text)
    mbedtls_md_setup                         0x08040a9d   Thumb Code    66  md.o(.text)
    mbedtls_md_init_ctx                      0x08040adf   Thumb Code    18  md.o(.text)
    mbedtls_md_starts                        0x08040af1   Thumb Code    26  md.o(.text)
    mbedtls_md_update                        0x08040b0b   Thumb Code    34  md.o(.text)
    mbedtls_md_finish                        0x08040b2d   Thumb Code    30  md.o(.text)
    mbedtls_md                               0x08040b4b   Thumb Code    34  md.o(.text)
    mbedtls_md_hmac_starts                   0x08040b6d   Thumb Code   174  md.o(.text)
    mbedtls_md_hmac_update                   0x08040c1b   Thumb Code    38  md.o(.text)
    mbedtls_md_hmac_finish                   0x08040c41   Thumb Code    88  md.o(.text)
    mbedtls_md_hmac_reset                    0x08040c99   Thumb Code    44  md.o(.text)
    mbedtls_md_hmac                          0x08040cc5   Thumb Code    88  md.o(.text)
    mbedtls_md_process                       0x08040d1d   Thumb Code    30  md.o(.text)
    mbedtls_md_get_size                      0x08040d3b   Thumb Code    12  md.o(.text)
    mbedtls_md_get_type                      0x08040d47   Thumb Code    12  md.o(.text)
    mbedtls_md_get_name                      0x08040d53   Thumb Code    12  md.o(.text)
    mbedtls_memory_buffer_set_verify         0x0804163f   Thumb Code     6  memory_buffer_alloc.o(.text)
    mbedtls_memory_buffer_alloc_verify       0x08041645   Thumb Code     8  memory_buffer_alloc.o(.text)
    mbedtls_memory_buffer_alloc_status       0x0804164d   Thumb Code    88  memory_buffer_alloc.o(.text)
    mbedtls_memory_buffer_alloc_max_get      0x080416a5   Thumb Code    14  memory_buffer_alloc.o(.text)
    mbedtls_memory_buffer_alloc_max_reset    0x080416b3   Thumb Code    10  memory_buffer_alloc.o(.text)
    mbedtls_memory_buffer_alloc_cur_get      0x080416bd   Thumb Code    14  memory_buffer_alloc.o(.text)
    mbedtls_memory_buffer_alloc_init         0x080416cb   Thumb Code   100  memory_buffer_alloc.o(.text)
    mbedtls_memory_buffer_alloc_free         0x0804172f   Thumb Code    12  memory_buffer_alloc.o(.text)
    mbedtls_memory_buffer_alloc_self_test    0x0804177d   Thumb Code   840  memory_buffer_alloc.o(.text)
    mbedtls_oid_get_attr_short_name          0x08041b05   Thumb Code    30  oid.o(.text)
    mbedtls_oid_get_x509_ext_type            0x08041b5b   Thumb Code    30  oid.o(.text)
    mbedtls_oid_get_extended_key_usage       0x08041bb1   Thumb Code    30  oid.o(.text)
    mbedtls_oid_get_sig_alg_desc             0x08041c07   Thumb Code    30  oid.o(.text)
    mbedtls_oid_get_sig_alg                  0x08041c25   Thumb Code    40  oid.o(.text)
    mbedtls_oid_get_oid_by_sig_alg           0x08041c4d   Thumb Code    48  oid.o(.text)
    mbedtls_oid_get_pk_alg                   0x08041cb5   Thumb Code    30  oid.o(.text)
    mbedtls_oid_get_oid_by_pk_alg            0x08041cd3   Thumb Code    42  oid.o(.text)
    mbedtls_oid_get_ec_grp                   0x08041d35   Thumb Code    30  oid.o(.text)
    mbedtls_oid_get_oid_by_ec_grp            0x08041d53   Thumb Code    42  oid.o(.text)
    mbedtls_oid_get_cipher_alg               0x08041db5   Thumb Code    30  oid.o(.text)
    mbedtls_oid_get_md_alg                   0x08041e0b   Thumb Code    30  oid.o(.text)
    mbedtls_oid_get_oid_by_md                0x08041e29   Thumb Code    42  oid.o(.text)
    mbedtls_oid_get_numeric_string           0x08041e53   Thumb Code   228  oid.o(.text)
    mbedtls_pem_init                         0x08041f53   Thumb Code    10  pem.o(.text)
    mbedtls_pem_read_buffer                  0x08041f5d   Thumb Code   296  pem.o(.text)
    mbedtls_pem_free                         0x08042085   Thumb Code    30  pem.o(.text)
    mbedtls_pk_get_bitlen                    0x080420d1   Thumb Code    24  pk.o(.text)
    mbedtls_pk_init                          0x080420ff   Thumb Code    14  pk.o(.text)
    mbedtls_pk_free                          0x0804210d   Thumb Code    32  pk.o(.text)
    mbedtls_pk_info_from_type                0x0804212d   Thumb Code    40  pk.o(.text)
    mbedtls_pk_setup                         0x08042155   Thumb Code    36  pk.o(.text)
    mbedtls_pk_setup_rsa_alt                 0x08042179   Thumb Code    68  pk.o(.text)
    mbedtls_pk_can_do                        0x080421bd   Thumb Code    26  pk.o(.text)
    mbedtls_pk_verify                        0x080421ff   Thumb Code    74  pk.o(.text)
    mbedtls_pk_verify_ext                    0x08042249   Thumb Code   176  pk.o(.text)
    mbedtls_pk_sign                          0x080422f9   Thumb Code    76  pk.o(.text)
    mbedtls_pk_decrypt                       0x08042345   Thumb Code    68  pk.o(.text)
    mbedtls_pk_encrypt                       0x08042389   Thumb Code    68  pk.o(.text)
    mbedtls_pk_check_pair                    0x080423cd   Thumb Code    76  pk.o(.text)
    mbedtls_pk_debug                         0x08042419   Thumb Code    42  pk.o(.text)
    mbedtls_pk_get_name                      0x08042443   Thumb Code    18  pk.o(.text)
    mbedtls_pk_get_type                      0x08042455   Thumb Code    18  pk.o(.text)
    mbedtls_pk_parse_subpubkey               0x08042ae1   Thumb Code   264  pkparse.o(.text)
    mbedtls_pk_parse_key                     0x08042fcb   Thumb Code   732  pkparse.o(.text)
    mbedtls_pk_parse_public_key              0x080432a7   Thumb Code   104  pkparse.o(.text)
    mbedtls_platform_set_calloc_free         0x08043351   Thumb Code    14  platform.o(.text)
    mbedtls_platform_set_exit                0x08043361   Thumb Code    10  platform.o(.text)
    mbedtls_platform_setup                   0x0804336b   Thumb Code     6  platform.o(.text)
    mbedtls_platform_teardown                0x08043371   Thumb Code     2  platform.o(.text)
    mbedtls_rsa_set_padding                  0x08043397   Thumb Code    10  rsa.o(.text)
    mbedtls_rsa_init                         0x080433a1   Thumb Code    28  rsa.o(.text)
    mbedtls_rsa_check_pubkey                 0x080433bd   Thumb Code   106  rsa.o(.text)
    mbedtls_rsa_check_privkey                0x08043427   Thumb Code   562  rsa.o(.text)
    mbedtls_rsa_check_pub_priv               0x08043659   Thumb Code    62  rsa.o(.text)
    mbedtls_rsa_public                       0x08043697   Thumb Code   134  rsa.o(.text)
    mbedtls_rsa_private                      0x08043831   Thumb Code   688  rsa.o(.text)
    mbedtls_rsa_rsaes_oaep_encrypt           0x08043b6b   Thumb Code   304  rsa.o(.text)
    mbedtls_rsa_rsaes_pkcs1_v15_encrypt      0x08043c9b   Thumb Code   234  rsa.o(.text)
    mbedtls_rsa_pkcs1_encrypt                0x08043d85   Thumb Code    80  rsa.o(.text)
    mbedtls_rsa_rsaes_oaep_decrypt           0x08043dd5   Thumb Code   458  rsa.o(.text)
    mbedtls_rsa_rsaes_pkcs1_v15_decrypt      0x08043f9f   Thumb Code   362  rsa.o(.text)
    mbedtls_rsa_pkcs1_decrypt                0x08044109   Thumb Code    86  rsa.o(.text)
    mbedtls_rsa_rsassa_pss_sign              0x0804415f   Thumb Code   394  rsa.o(.text)
    mbedtls_rsa_rsassa_pkcs1_v15_sign        0x080442e9   Thumb Code   488  rsa.o(.text)
    mbedtls_rsa_pkcs1_sign                   0x080444d1   Thumb Code    74  rsa.o(.text)
    mbedtls_rsa_rsassa_pss_verify_ext        0x0804451b   Thumb Code   510  rsa.o(.text)
    mbedtls_rsa_rsassa_pss_verify            0x08044719   Thumb Code    64  rsa.o(.text)
    mbedtls_rsa_rsassa_pkcs1_v15_verify      0x08044759   Thumb Code   682  rsa.o(.text)
    mbedtls_rsa_pkcs1_verify                 0x08044a03   Thumb Code    74  rsa.o(.text)
    mbedtls_rsa_free                         0x08044a4d   Thumb Code   110  rsa.o(.text)
    mbedtls_rsa_copy                         0x08044abb   Thumb Code   330  rsa.o(.text)
    mbedtls_rsa_self_test                    0x08044c29   Thumb Code   528  rsa.o(.text)
    mbedtls_sha1_init                        0x08044f1b   Thumb Code    14  sha1.o(.text)
    mbedtls_sha1_free                        0x08044f29   Thumb Code    20  sha1.o(.text)
    mbedtls_sha1_clone                       0x08044f3d   Thumb Code    18  sha1.o(.text)
    mbedtls_sha1_starts                      0x08044f4f   Thumb Code    30  sha1.o(.text)
    mbedtls_sha1_process                     0x08044f6d   Thumb Code  6442  sha1.o(.text)
    mbedtls_sha1_update                      0x08046897   Thumb Code   124  sha1.o(.text)
    mbedtls_sha1_finish                      0x08046913   Thumb Code   228  sha1.o(.text)
    mbedtls_sha1                             0x080469f7   Thumb Code    50  sha1.o(.text)
    mbedtls_sha1_self_test                   0x08046a29   Thumb Code   188  sha1.o(.text)
    mbedtls_sha256_init                      0x08046b37   Thumb Code    14  sha256.o(.text)
    mbedtls_sha256_free                      0x08046b45   Thumb Code    20  sha256.o(.text)
    mbedtls_sha256_clone                     0x08046b59   Thumb Code    18  sha256.o(.text)
    mbedtls_sha256_starts                    0x08046b6b   Thumb Code    78  sha256.o(.text)
    mbedtls_sha256_process                   0x08046bb9   Thumb Code  3600  sha256.o(.text)
    mbedtls_sha256_update                    0x080479c9   Thumb Code   124  sha256.o(.text)
    mbedtls_sha256_finish                    0x08047a45   Thumb Code   350  sha256.o(.text)
    mbedtls_sha256                           0x08047ba3   Thumb Code    54  sha256.o(.text)
    mbedtls_sha256_self_test                 0x08047bd9   Thumb Code   254  sha256.o(.text)
    mbedtls_sha512_init                      0x08047d4b   Thumb Code    14  sha512.o(.text)
    mbedtls_sha512_free                      0x08047d59   Thumb Code    20  sha512.o(.text)
    mbedtls_sha512_clone                     0x08047d6d   Thumb Code    18  sha512.o(.text)
    mbedtls_sha512_starts                    0x08047d7f   Thumb Code   150  sha512.o(.text)
    mbedtls_sha512_process                   0x08047e15   Thumb Code  3730  sha512.o(.text)
    mbedtls_sha512_update                    0x08048ca7   Thumb Code   144  sha512.o(.text)
    mbedtls_sha512_finish                    0x08048d37   Thumb Code  1072  sha512.o(.text)
    mbedtls_sha512                           0x08049167   Thumb Code    54  sha512.o(.text)
    mbedtls_sha512_self_test                 0x0804919d   Thumb Code   254  sha512.o(.text)
    mbedtls_ssl_ciphersuite_from_id          0x080492f1   Thumb Code    28  ssl_ciphersuites.o(.text)
    mbedtls_ssl_list_ciphersuites            0x0804930d   Thumb Code    64  ssl_ciphersuites.o(.text)
    mbedtls_ssl_ciphersuite_from_string      0x0804934d   Thumb Code    40  ssl_ciphersuites.o(.text)
    mbedtls_ssl_get_ciphersuite_name         0x08049375   Thumb Code    22  ssl_ciphersuites.o(.text)
    mbedtls_ssl_get_ciphersuite_id           0x0804938b   Thumb Code    22  ssl_ciphersuites.o(.text)
    mbedtls_ssl_get_ciphersuite_sig_pk_alg   0x080493a1   Thumb Code    48  ssl_ciphersuites.o(.text)
    mbedtls_ssl_get_ciphersuite_sig_alg      0x080493d1   Thumb Code    38  ssl_ciphersuites.o(.text)
    mbedtls_ssl_ciphersuite_uses_ec          0x080493f7   Thumb Code    38  ssl_ciphersuites.o(.text)
    mbedtls_ssl_ciphersuite_uses_psk         0x0804941d   Thumb Code    36  ssl_ciphersuites.o(.text)
    mbedtls_ssl_handshake_client_step        0x0804cd3d   Thumb Code   700  ssl_cli.o(.text)
    mbedtls_ssl_sig_hash_set_const_hash      0x0804d03d   Thumb Code     6  ssl_tls.o(.text)
    mbedtls_ssl_session_free                 0x0804d183   Thumb Code    46  ssl_tls.o(.text)
    mbedtls_ssl_derive_keys                  0x0804d72f   Thumb Code  1964  ssl_tls.o(.text)
    mbedtls_ssl_psk_derive_premaster         0x0804dedb   Thumb Code   528  ssl_tls.o(.text)
    mbedtls_ssl_write_version                0x0804e0eb   Thumb Code    36  ssl_tls.o(.text)
    mbedtls_ssl_flush_output                 0x0804f37d   Thumb Code   320  ssl_tls.o(.text)
    mbedtls_ssl_write_record                 0x0804f561   Thumb Code  1020  ssl_tls.o(.text)
    mbedtls_ssl_resend                       0x0804f9fb   Thumb Code   266  ssl_tls.o(.text)
    mbedtls_ssl_fetch_input                  0x0804fb05   Thumb Code  1312  ssl_tls.o(.text)
    mbedtls_ssl_recv_flight_completed        0x08050047   Thumb Code    82  ssl_tls.o(.text)
    mbedtls_ssl_send_flight_completed        0x08050099   Thumb Code    56  ssl_tls.o(.text)
    mbedtls_ssl_prepare_handshake_record     0x08050575   Thumb Code   418  ssl_tls.o(.text)
    mbedtls_ssl_update_handshake_status      0x08050717   Thumb Code    62  ssl_tls.o(.text)
    mbedtls_ssl_dtls_replay_check            0x080509e7   Thumb Code   126  ssl_tls.o(.text)
    mbedtls_ssl_dtls_replay_update           0x08050a65   Thumb Code   176  ssl_tls.o(.text)
    mbedtls_ssl_send_alert_message           0x08050b15   Thumb Code   134  ssl_tls.o(.text)
    mbedtls_ssl_read_version                 0x08050b9b   Thumb Code    48  ssl_tls.o(.text)
    mbedtls_ssl_handle_message_type          0x08050eb3   Thumb Code   736  ssl_tls.o(.text)
    mbedtls_ssl_transform_free               0x08051193   Thumb Code    52  ssl_tls.o(.text)
    mbedtls_ssl_handshake_free               0x080511c7   Thumb Code   138  ssl_tls.o(.text)
    mbedtls_ssl_read_record_layer            0x080512a7   Thumb Code  1020  ssl_tls.o(.text)
    mbedtls_ssl_read_record                  0x080516a3   Thumb Code   166  ssl_tls.o(.text)
    mbedtls_ssl_send_fatal_handshake_failure 0x08051749   Thumb Code    26  ssl_tls.o(.text)
    mbedtls_ssl_write_certificate            0x08051763   Thumb Code   386  ssl_tls.o(.text)
    mbedtls_ssl_check_cert_usage             0x080518e5   Thumb Code   158  ssl_tls.o(.text)
    mbedtls_ssl_check_curve                  0x08051983   Thumb Code    44  ssl_tls.o(.text)
    mbedtls_ssl_parse_certificate            0x080519af   Thumb Code  1992  ssl_tls.o(.text)
    mbedtls_ssl_write_change_cipher_spec     0x08052177   Thumb Code   102  ssl_tls.o(.text)
    mbedtls_ssl_parse_change_cipher_spec     0x080521dd   Thumb Code   286  ssl_tls.o(.text)
    mbedtls_ssl_optimize_checksum            0x0805232b   Thumb Code    62  ssl_tls.o(.text)
    mbedtls_ssl_reset_checksum               0x08052369   Thumb Code    30  ssl_tls.o(.text)
    mbedtls_ssl_handshake_wrapup             0x080523ad   Thumb Code   202  ssl_tls.o(.text)
    mbedtls_ssl_write_finished               0x08052477   Thumb Code   886  ssl_tls.o(.text)
    mbedtls_ssl_parse_finished               0x080527ed   Thumb Code   326  ssl_tls.o(.text)
    mbedtls_ssl_session_init                 0x080529b3   Thumb Code    14  ssl_tls.o(.text)
    mbedtls_ssl_init                         0x08052aab   Thumb Code   222  ssl_tls.o(.text)
    mbedtls_ssl_setup                        0x08052b89   Thumb Code   238  ssl_tls.o(.text)
    mbedtls_ssl_session_reset                0x08052d4b   Thumb Code    14  ssl_tls.o(.text)
    mbedtls_ssl_conf_endpoint                0x08052d59   Thumb Code    14  ssl_tls.o(.text)
    mbedtls_ssl_conf_transport               0x08052d67   Thumb Code    14  ssl_tls.o(.text)
    mbedtls_ssl_conf_dtls_anti_replay        0x08052d75   Thumb Code    14  ssl_tls.o(.text)
    mbedtls_ssl_conf_dtls_badmac_limit       0x08052d83   Thumb Code     6  ssl_tls.o(.text)
    mbedtls_ssl_conf_handshake_timeout       0x08052d89   Thumb Code     8  ssl_tls.o(.text)
    mbedtls_ssl_conf_authmode                0x08052d91   Thumb Code    14  ssl_tls.o(.text)
    mbedtls_ssl_conf_verify                  0x08052d9f   Thumb Code     6  ssl_tls.o(.text)
    mbedtls_ssl_conf_rng                     0x08052da5   Thumb Code     6  ssl_tls.o(.text)
    mbedtls_ssl_conf_dbg                     0x08052dab   Thumb Code     6  ssl_tls.o(.text)
    mbedtls_ssl_set_bio                      0x08052db1   Thumb Code    14  ssl_tls.o(.text)
    mbedtls_ssl_conf_read_timeout            0x08052dbf   Thumb Code     4  ssl_tls.o(.text)
    mbedtls_ssl_set_timer_cb                 0x08052dc3   Thumb Code    30  ssl_tls.o(.text)
    mbedtls_ssl_set_session                  0x08052de1   Thumb Code    58  ssl_tls.o(.text)
    mbedtls_ssl_conf_ciphersuites            0x08052e1b   Thumb Code    10  ssl_tls.o(.text)
    mbedtls_ssl_conf_ciphersuites_for_version 0x08052e25   Thumb Code    24  ssl_tls.o(.text)
    mbedtls_ssl_conf_cert_profile            0x08052e3d   Thumb Code     4  ssl_tls.o(.text)
    mbedtls_ssl_conf_own_cert                0x08052e83   Thumb Code    22  ssl_tls.o(.text)
    mbedtls_ssl_conf_ca_chain                0x08052e99   Thumb Code     6  ssl_tls.o(.text)
    mbedtls_ssl_set_hs_own_cert              0x08052e9f   Thumb Code    24  ssl_tls.o(.text)
    mbedtls_ssl_set_hs_ca_chain              0x08052eb7   Thumb Code    14  ssl_tls.o(.text)
    mbedtls_ssl_set_hs_authmode              0x08052ec5   Thumb Code     8  ssl_tls.o(.text)
    mbedtls_ssl_conf_psk                     0x08052ecd   Thumb Code   162  ssl_tls.o(.text)
    mbedtls_ssl_set_hs_psk                   0x08052f6f   Thumb Code   112  ssl_tls.o(.text)
    mbedtls_ssl_conf_psk_cb                  0x08052fdf   Thumb Code     6  ssl_tls.o(.text)
    mbedtls_ssl_conf_sig_hashes              0x08052fe5   Thumb Code     4  ssl_tls.o(.text)
    mbedtls_ssl_conf_curves                  0x08052fe9   Thumb Code     4  ssl_tls.o(.text)
    mbedtls_ssl_set_hostname                 0x08052fed   Thumb Code    84  ssl_tls.o(.text)
    mbedtls_ssl_conf_sni                     0x08053041   Thumb Code     6  ssl_tls.o(.text)
    mbedtls_ssl_conf_alpn_protocols          0x08053047   Thumb Code    58  ssl_tls.o(.text)
    mbedtls_ssl_get_alpn_protocol            0x08053081   Thumb Code     8  ssl_tls.o(.text)
    mbedtls_ssl_conf_max_version             0x08053089   Thumb Code    10  ssl_tls.o(.text)
    mbedtls_ssl_conf_min_version             0x08053093   Thumb Code    10  ssl_tls.o(.text)
    mbedtls_ssl_conf_encrypt_then_mac        0x0805309d   Thumb Code    14  ssl_tls.o(.text)
    mbedtls_ssl_conf_extended_master_secret  0x080530ab   Thumb Code    14  ssl_tls.o(.text)
    mbedtls_ssl_conf_max_frag_len            0x080530b9   Thumb Code    38  ssl_tls.o(.text)
    mbedtls_ssl_conf_legacy_renegotiation    0x080530df   Thumb Code    14  ssl_tls.o(.text)
    mbedtls_ssl_conf_renegotiation           0x080530ed   Thumb Code    14  ssl_tls.o(.text)
    mbedtls_ssl_conf_renegotiation_enforced  0x080530fb   Thumb Code     6  ssl_tls.o(.text)
    mbedtls_ssl_conf_renegotiation_period    0x08053101   Thumb Code    14  ssl_tls.o(.text)
    mbedtls_ssl_conf_session_tickets         0x0805310f   Thumb Code    14  ssl_tls.o(.text)
    mbedtls_ssl_conf_export_keys_cb          0x0805311d   Thumb Code     6  ssl_tls.o(.text)
    mbedtls_ssl_get_bytes_avail              0x08053123   Thumb Code    14  ssl_tls.o(.text)
    mbedtls_ssl_get_verify_result            0x08053131   Thumb Code    28  ssl_tls.o(.text)
    mbedtls_ssl_get_ciphersuite              0x0805314d   Thumb Code    24  ssl_tls.o(.text)
    mbedtls_ssl_get_version                  0x08053165   Thumb Code    76  ssl_tls.o(.text)
    mbedtls_ssl_get_record_expansion         0x080531b1   Thumb Code   110  ssl_tls.o(.text)
    mbedtls_ssl_get_max_frag_len             0x0805321f   Thumb Code    48  ssl_tls.o(.text)
    mbedtls_ssl_get_peer_cert                0x0805324f   Thumb Code    18  ssl_tls.o(.text)
    mbedtls_ssl_get_session                  0x08053261   Thumb Code    40  ssl_tls.o(.text)
    mbedtls_ssl_handshake_step               0x08053289   Thumb Code    42  ssl_tls.o(.text)
    mbedtls_ssl_handshake                    0x080532b3   Thumb Code    78  ssl_tls.o(.text)
    mbedtls_ssl_renegotiate                  0x0805344f   Thumb Code   110  ssl_tls.o(.text)
    mbedtls_ssl_read                         0x08053535   Thumb Code  1166  ssl_tls.o(.text)
    mbedtls_ssl_write                        0x08053a65   Thumb Code   152  ssl_tls.o(.text)
    mbedtls_ssl_close_notify                 0x08053afd   Thumb Code   112  ssl_tls.o(.text)
    mbedtls_ssl_free                         0x08053b87   Thumb Code   224  ssl_tls.o(.text)
    mbedtls_ssl_config_init                  0x08053c67   Thumb Code    14  ssl_tls.o(.text)
    mbedtls_ssl_config_defaults              0x08053c75   Thumb Code   242  ssl_tls.o(.text)
    mbedtls_ssl_config_free                  0x08053d67   Thumb Code   234  ssl_tls.o(.text)
    mbedtls_ssl_sig_from_pk                  0x08053e51   Thumb Code    36  ssl_tls.o(.text)
    mbedtls_ssl_sig_from_pk_alg              0x08053e75   Thumb Code    30  ssl_tls.o(.text)
    mbedtls_ssl_pk_alg_from_sig              0x08053e93   Thumb Code    24  ssl_tls.o(.text)
    mbedtls_ssl_sig_hash_set_find            0x08053eab   Thumb Code    24  ssl_tls.o(.text)
    mbedtls_ssl_sig_hash_set_add             0x08053ec3   Thumb Code    32  ssl_tls.o(.text)
    mbedtls_ssl_md_alg_from_hash             0x08053ee3   Thumb Code    42  ssl_tls.o(.text)
    mbedtls_ssl_hash_from_md_alg             0x08053f0d   Thumb Code    42  ssl_tls.o(.text)
    mbedtls_ssl_check_sig_hash               0x08053f37   Thumb Code    44  ssl_tls.o(.text)
    mbedtls_ssl_set_calc_verify_md           0x08053f63   Thumb Code    50  ssl_tls.o(.text)
    mbedtls_x509_get_serial                  0x08053ff5   Thumb Code    92  x509.o(.text)
    mbedtls_x509_get_alg_null                0x08054051   Thumb Code    36  x509.o(.text)
    mbedtls_x509_get_alg                     0x08054075   Thumb Code    42  x509.o(.text)
    mbedtls_x509_get_name                    0x08054181   Thumb Code   136  x509.o(.text)
    mbedtls_x509_get_time                    0x08054423   Thumb Code    94  x509.o(.text)
    mbedtls_x509_get_sig                     0x08054481   Thumb Code    76  x509.o(.text)
    mbedtls_x509_get_sig_alg                 0x080544cd   Thumb Code    70  x509.o(.text)
    mbedtls_x509_get_ext                     0x08054513   Thumb Code   102  x509.o(.text)
    mbedtls_x509_dn_gets                     0x08054579   Thumb Code   274  x509.o(.text)
    mbedtls_x509_serial_gets                 0x0805468b   Thumb Code   154  x509.o(.text)
    mbedtls_x509_sig_alg_gets                0x08054725   Thumb Code    88  x509.o(.text)
    mbedtls_x509_key_size_helper             0x0805477d   Thumb Code    54  x509.o(.text)
    mbedtls_x509_time_is_past                0x080547b3   Thumb Code     6  x509.o(.text)
    mbedtls_x509_time_is_future              0x080547b9   Thumb Code     6  x509.o(.text)
    mbedtls_x509_self_test                   0x080547bf   Thumb Code   296  x509.o(.text)
    mbedtls_x509_crt_free                    0x08054ec5   Thumb Code   212  x509_crt.o(.text)
    mbedtls_x509_crt_init                    0x080552d3   Thumb Code    16  x509_crt.o(.text)
    mbedtls_x509_crt_parse_der               0x080552e3   Thumb Code   140  x509_crt.o(.text)
    mbedtls_x509_crt_parse                   0x0805536f   Thumb Code   246  x509_crt.o(.text)
    mbedtls_x509_crt_info                    0x08055961   Thumb Code  1610  x509_crt.o(.text)
    mbedtls_x509_crt_verify_info             0x08055fab   Thumb Code   124  x509_crt.o(.text)
    mbedtls_x509_crt_check_key_usage         0x08056027   Thumb Code    68  x509_crt.o(.text)
    mbedtls_x509_crt_check_extended_key_usage 0x0805606b   Thumb Code    96  x509_crt.o(.text)
    mbedtls_x509_crt_is_revoked              0x080560cb   Thumb Code    60  x509_crt.o(.text)
    mbedtls_x509_crt_verify_with_profile     0x0805691d   Thumb Code   550  x509_crt.o(.text)
    mbedtls_x509_crt_verify                  0x08056b43   Thumb Code    42  x509_crt.o(.text)
    netconn_new_with_proto_and_callback      0x08056b9f   Thumb Code   176  lwip_api_lib.o(.text)
    netconn_delete                           0x08056c4f   Thumb Code    48  lwip_api_lib.o(.text)
    netconn_getaddr                          0x08056c7f   Thumb Code   108  lwip_api_lib.o(.text)
    netconn_bind                             0x08056ceb   Thumb Code    60  lwip_api_lib.o(.text)
    netconn_connect                          0x08056d27   Thumb Code    62  lwip_api_lib.o(.text)
    netconn_disconnect                       0x08056d65   Thumb Code    48  lwip_api_lib.o(.text)
    netconn_listen_with_backlog              0x08056d95   Thumb Code    50  lwip_api_lib.o(.text)
    netconn_accept                           0x08056dc7   Thumb Code   190  lwip_api_lib.o(.text)
    netconn_recv_tcp_pbuf                    0x08057287   Thumb Code    54  lwip_api_lib.o(.text)
    netconn_recv                             0x080572bd   Thumb Code   180  lwip_api_lib.o(.text)
    netconn_send                             0x08057371   Thumb Code    58  lwip_api_lib.o(.text)
    netconn_sendto                           0x080573ab   Thumb Code    44  lwip_api_lib.o(.text)
    netconn_write_partly                     0x080573d7   Thumb Code   172  lwip_api_lib.o(.text)
    netconn_close                            0x08057483   Thumb Code    14  lwip_api_lib.o(.text)
    netconn_shutdown                         0x08057491   Thumb Code    36  lwip_api_lib.o(.text)
    netconn_join_leave_group                 0x080574b5   Thumb Code    76  lwip_api_lib.o(.text)
    netconn_gethostbyname                    0x08057501   Thumb Code   140  lwip_api_lib.o(.text)
    netconn_free                             0x080581bb   Thumb Code   112  lwip_api_msg.o(.text)
    netconn_alloc                            0x0805822b   Thumb Code   164  lwip_api_msg.o(.text)
    lwip_netconn_do_newconn                  0x0805844b   Thumb Code    64  lwip_api_msg.o(.text)
    lwip_netconn_do_delconn                  0x08058659   Thumb Code   394  lwip_api_msg.o(.text)
    lwip_netconn_do_bind                     0x080587e3   Thumb Code   130  lwip_api_msg.o(.text)
    lwip_netconn_do_connect                  0x0805895b   Thumb Code   560  lwip_api_msg.o(.text)
    lwip_netconn_do_disconnect               0x08058b8b   Thumb Code    78  lwip_api_msg.o(.text)
    lwip_netconn_do_listen                   0x08058bd9   Thumb Code   270  lwip_api_msg.o(.text)
    lwip_netconn_do_send                     0x08058ce7   Thumb Code   140  lwip_api_msg.o(.text)
    lwip_netconn_do_recv                     0x08058d73   Thumb Code   112  lwip_api_msg.o(.text)
    lwip_netconn_do_write                    0x08058de3   Thumb Code   326  lwip_api_msg.o(.text)
    lwip_netconn_do_getaddr                  0x08058f29   Thumb Code   224  lwip_api_msg.o(.text)
    lwip_netconn_do_close                    0x08059009   Thumb Code   254  lwip_api_msg.o(.text)
    lwip_netconn_do_join_leave_group         0x08059107   Thumb Code   124  lwip_api_msg.o(.text)
    lwip_netconn_do_gethostbyname            0x080591af   Thumb Code    44  lwip_api_msg.o(.text)
    err_to_errno                             0x08059201   Thumb Code    26  lwip_err.o(.text)
    lwip_strerr                              0x0805921b   Thumb Code    26  lwip_err.o(.text)
    netbuf_new                               0x0805924d   Thumb Code    30  lwip_netbuf.o(.text)
    netbuf_delete                            0x0805926b   Thumb Code    32  lwip_netbuf.o(.text)
    netbuf_alloc                             0x0805928b   Thumb Code    88  lwip_netbuf.o(.text)
    netbuf_free                              0x080592e3   Thumb Code    42  lwip_netbuf.o(.text)
    netbuf_ref                               0x0805930d   Thumb Code    84  lwip_netbuf.o(.text)
    netbuf_chain                             0x08059361   Thumb Code    66  lwip_netbuf.o(.text)
    netbuf_data                              0x080593a3   Thumb Code   100  lwip_netbuf.o(.text)
    netbuf_next                              0x08059407   Thumb Code    58  lwip_netbuf.o(.text)
    netbuf_first                             0x08059441   Thumb Code    30  lwip_netbuf.o(.text)
    lwip_gethostbyname                       0x080595dd   Thumb Code    96  lwip_netdb.o(.text)
    lwip_gethostbyname_r                     0x0805963d   Thumb Code   196  lwip_netdb.o(.text)
    lwip_freeaddrinfo                        0x08059701   Thumb Code    24  lwip_netdb.o(.text)
    lwip_getaddrinfo                         0x08059719   Thumb Code   368  lwip_netdb.o(.text)
    lwip_socket_thread_init                  0x0805992d   Thumb Code     2  lwip_sockets.o(.text)
    lwip_socket_thread_cleanup               0x0805992f   Thumb Code     2  lwip_sockets.o(.text)
    lwip_accept                              0x08059c37   Thumb Code   670  lwip_sockets.o(.text)
    lwip_bind                                0x08059ed5   Thumb Code   196  lwip_sockets.o(.text)
    lwip_close                               0x0805a00b   Thumb Code   142  lwip_sockets.o(.text)
    lwip_connect                             0x0805a099   Thumb Code   222  lwip_sockets.o(.text)
    lwip_listen                              0x0805a177   Thumb Code   354  lwip_sockets.o(.text)
    lwip_recvfrom                            0x0805a2d9   Thumb Code   680  lwip_sockets.o(.text)
    lwip_read                                0x0805a581   Thumb Code    28  lwip_sockets.o(.text)
    lwip_recv                                0x0805a59d   Thumb Code    34  lwip_sockets.o(.text)
    lwip_sendto                              0x0805a5bf   Thumb Code   418  lwip_sockets.o(.text)
    lwip_send                                0x0805a761   Thumb Code   160  lwip_sockets.o(.text)
    lwip_sendmsg                             0x0805a801   Thumb Code   690  lwip_sockets.o(.text)
    lwip_socket                              0x0805aab3   Thumb Code   312  lwip_sockets.o(.text)
    lwip_write                               0x0805abeb   Thumb Code    22  lwip_sockets.o(.text)
    lwip_writev                              0x0805ac01   Thumb Code    40  lwip_sockets.o(.text)
    lwip_select                              0x0805aebd   Thumb Code  1006  lwip_sockets.o(.text)
    lwip_shutdown                            0x0805b2ab   Thumb Code   202  lwip_sockets.o(.text)
    lwip_getpeername                         0x0805b423   Thumb Code   114  lwip_sockets.o(.text)
    lwip_getsockname                         0x0805b495   Thumb Code    22  lwip_sockets.o(.text)
    lwip_getsockopt                          0x0805b8ef   Thumb Code   118  lwip_sockets.o(.text)
    lwip_setsockopt                          0x0805be5d   Thumb Code   120  lwip_sockets.o(.text)
    lwip_ioctl                               0x0805bed5   Thumb Code   136  lwip_sockets.o(.text)
    lwip_fcntl                               0x0805bf5d   Thumb Code   184  lwip_sockets.o(.text)
    tcpip_inpkt                              0x0805c0cd   Thumb Code    92  lwip_tcpip.o(.text)
    tcpip_input                              0x0805c129   Thumb Code    18  lwip_tcpip.o(.text)
    tcpip_callback_with_block                0x0805c13b   Thumb Code   102  lwip_tcpip.o(.text)
    tcpip_send_msg_wait_sem                  0x0805c1a1   Thumb Code    28  lwip_tcpip.o(.text)
    tcpip_api_call                           0x0805c1bd   Thumb Code    28  lwip_tcpip.o(.text)
    tcpip_callbackmsg_new                    0x0805c1d9   Thumb Code    38  lwip_tcpip.o(.text)
    tcpip_callbackmsg_delete                 0x0805c1ff   Thumb Code    14  lwip_tcpip.o(.text)
    tcpip_trycallback                        0x0805c20d   Thumb Code    38  lwip_tcpip.o(.text)
    tcpip_init                               0x0805c233   Thumb Code    88  lwip_tcpip.o(.text)
    pbuf_free_callback                       0x0805c299   Thumb Code    16  lwip_tcpip.o(.text)
    mem_free_callback                        0x0805c2a9   Thumb Code    16  lwip_tcpip.o(.text)
    lwip_net_init                            0x0805c3a5   Thumb Code     2  lwip_net_socket.o(.text)
    lwip_net_connect                         0x0805c3a7   Thumb Code   166  lwip_net_socket.o(.text)
    lwip_net_set_block                       0x0805c44d   Thumb Code    30  lwip_net_socket.o(.text)
    lwip_net_set_nonblock                    0x0805c46b   Thumb Code    30  lwip_net_socket.o(.text)
    lwip_net_recv                            0x0805c4b1   Thumb Code    94  lwip_net_socket.o(.text)
    lwip_net_send                            0x0805c50f   Thumb Code    98  lwip_net_socket.o(.text)
    lwip_net_recv_timeout                    0x0805c571   Thumb Code   180  lwip_net_socket.o(.text)
    lwip_net_free                            0x0805c625   Thumb Code    36  lwip_net_socket.o(.text)
    sys_mbox_new                             0x0805c655   Thumb Code    78  lwip_sys_arch.o(.text)
    sys_mbox_free                            0x0805c6a3   Thumb Code    52  lwip_sys_arch.o(.text)
    sys_mbox_post                            0x0805c6d7   Thumb Code    26  lwip_sys_arch.o(.text)
    sys_mbox_trypost                         0x0805c6f1   Thumb Code    46  lwip_sys_arch.o(.text)
    sys_arch_mbox_fetch                      0x0805c71f   Thumb Code    94  lwip_sys_arch.o(.text)
    sys_arch_mbox_tryfetch                   0x0805c77d   Thumb Code    48  lwip_sys_arch.o(.text)
    sys_mbox_valid                           0x0805c7ad   Thumb Code    14  lwip_sys_arch.o(.text)
    sys_mbox_set_invalid                     0x0805c7bb   Thumb Code     6  lwip_sys_arch.o(.text)
    sys_sem_new                              0x0805c7c1   Thumb Code    98  lwip_sys_arch.o(.text)
    sys_arch_sem_wait                        0x0805c823   Thumb Code    62  lwip_sys_arch.o(.text)
    sys_sem_signal                           0x0805c861   Thumb Code    12  lwip_sys_arch.o(.text)
    sys_sem_free                             0x0805c86d   Thumb Code    26  lwip_sys_arch.o(.text)
    sys_sem_valid                            0x0805c887   Thumb Code    14  lwip_sys_arch.o(.text)
    sys_sem_set_invalid                      0x0805c895   Thumb Code     6  lwip_sys_arch.o(.text)
    sys_init                                 0x0805c89b   Thumb Code    14  lwip_sys_arch.o(.text)
    sys_mutex_new                            0x0805c8a9   Thumb Code    84  lwip_sys_arch.o(.text)
    sys_mutex_free                           0x0805c8fd   Thumb Code    28  lwip_sys_arch.o(.text)
    sys_mutex_lock                           0x0805c919   Thumb Code    16  lwip_sys_arch.o(.text)
    sys_mutex_unlock                         0x0805c929   Thumb Code    12  lwip_sys_arch.o(.text)
    sys_thread_new                           0x0805c935   Thumb Code    54  lwip_sys_arch.o(.text)
    sys_arch_protect                         0x0805c96b   Thumb Code    18  lwip_sys_arch.o(.text)
    sys_arch_unprotect                       0x0805c97d   Thumb Code    14  lwip_sys_arch.o(.text)
    sys_thread_sem_init                      0x0805c98b   Thumb Code    14  lwip_sys_arch.o(.text)
    sys_thread_sem_get                       0x0805c999   Thumb Code    16  lwip_sys_arch.o(.text)
    sys_thread_sem_deinit                    0x0805c9a9   Thumb Code    16  lwip_sys_arch.o(.text)
    sys_jiffies                              0x0805c9b9   Thumb Code     8  lwip_sys_arch.o(.text)
    sys_now                                  0x0805c9c1   Thumb Code     8  lwip_sys_arch.o(.text)
    sys_msleep                               0x0805c9c9   Thumb Code    12  lwip_sys_arch.o(.text)
    assert_printf                            0x0805c9d5   Thumb Code    32  lwip_sys_arch.o(.text)
    lwip_htons                               0x0805ca2d   Thumb Code    12  lwip_def.o(.text)
    lwip_htonl                               0x0805ca39   Thumb Code    26  lwip_def.o(.text)
    lwip_strnstr                             0x0805ca53   Thumb Code    74  lwip_def.o(.text)
    lwip_stricmp                             0x0805ca9d   Thumb Code    60  lwip_def.o(.text)
    lwip_strnicmp                            0x0805cad9   Thumb Code    70  lwip_def.o(.text)
    lwip_itoa                                0x0805cb1f   Thumb Code    98  lwip_def.o(.text)
    dns_init                                 0x0805cb85   Thumb Code    14  lwip_dns.o(.text)
    dns_setserver                            0x0805cb93   Thumb Code    28  lwip_dns.o(.text)
    dns_getserver                            0x0805cbaf   Thumb Code    18  lwip_dns.o(.text)
    dns_tmr                                  0x0805cf3d   Thumb Code    12  lwip_dns.o(.text)
    dns_gethostbyname_addrtype               0x0805d5e7   Thumb Code   108  lwip_dns.o(.text)
    dns_gethostbyname                        0x0805d653   Thumb Code    28  lwip_dns.o(.text)
    lwip_standard_chksum                     0x0805d681   Thumb Code    72  lwip_inet_chksum.o(.text)
    inet_chksum_pseudo                       0x0805d74f   Thumb Code    76  lwip_inet_chksum.o(.text)
    ip_chksum_pseudo                         0x0805d79b   Thumb Code    36  lwip_inet_chksum.o(.text)
    inet_chksum_pseudo_partial               0x0805d86d   Thumb Code    80  lwip_inet_chksum.o(.text)
    ip_chksum_pseudo_partial                 0x0805d8bd   Thumb Code    36  lwip_inet_chksum.o(.text)
    inet_chksum                              0x0805d8e1   Thumb Code    20  lwip_inet_chksum.o(.text)
    inet_chksum_pbuf                         0x0805d8f5   Thumb Code    86  lwip_inet_chksum.o(.text)
    lwip_init                                0x0805d95d   Thumb Code    74  lwip_init.o(.text)
    mem_init                                 0x0805dab7   Thumb Code   106  lwip_mem.o(.text)
    mem_free                                 0x0805db21   Thumb Code   192  lwip_mem.o(.text)
    mem_trim                                 0x0805dbe1   Thumb Code   368  lwip_mem.o(.text)
    mem_malloc                               0x0805dd51   Thumb Code   836  lwip_mem.o(.text)
    mem_calloc                               0x0805e095   Thumb Code    34  lwip_mem.o(.text)
    memp_init_pool                           0x0805e251   Thumb Code    74  lwip_memp.o(.text)
    memp_init                                0x0805e29b   Thumb Code    40  lwip_memp.o(.text)
    memp_malloc_pool_fn                      0x0805e353   Thumb Code    44  lwip_memp.o(.text)
    memp_malloc_fn                           0x0805e37f   Thumb Code    56  lwip_memp.o(.text)
    memp_free_pool                           0x0805e425   Thumb Code    42  lwip_memp.o(.text)
    memp_free                                0x0805e44f   Thumb Code    48  lwip_memp.o(.text)
    netif_init                               0x0805e56d   Thumb Code     2  lwip_netif.o(.text)
    netif_input                              0x0805e56f   Thumb Code    16  lwip_netif.o(.text)
    netif_set_ipaddr                         0x0805e5a1   Thumb Code    94  lwip_netif.o(.text)
    netif_set_gw                             0x0805e5ff   Thumb Code    16  lwip_netif.o(.text)
    netif_set_netmask                        0x0805e60f   Thumb Code    16  lwip_netif.o(.text)
    netif_set_addr                           0x0805e61f   Thumb Code    72  lwip_netif.o(.text)
    netif_add                                0x0805e667   Thumb Code   176  lwip_netif.o(.text)
    netif_set_default                        0x0805e717   Thumb Code    10  lwip_netif.o(.text)
    netif_set_down                           0x0805e721   Thumb Code    42  lwip_netif.o(.text)
    netif_remove                             0x0805e74b   Thumb Code   130  lwip_netif.o(.text)
    netif_find                               0x0805e7cd   Thumb Code    72  lwip_netif.o(.text)
    netif_set_up                             0x0805e815   Thumb Code    60  lwip_netif.o(.text)
    netif_set_status_callback                0x0805e851   Thumb Code     6  lwip_netif.o(.text)
    netif_set_link_up                        0x0805e857   Thumb Code    58  lwip_netif.o(.text)
    netif_set_link_down                      0x0805e891   Thumb Code    42  lwip_netif.o(.text)
    netif_set_link_callback                  0x0805e8bb   Thumb Code     6  lwip_netif.o(.text)
    pbuf_free                                0x0805e929   Thumb Code   246  lwip_pbuf.o(.text)
    pbuf_alloc                               0x0805ea1f   Thumb Code   634  lwip_pbuf.o(.text)
    pbuf_alloced_custom                      0x0805ec99   Thumb Code   626  lwip_pbuf.o(.text)
    pbuf_realloc                             0x0805ef0b   Thumb Code   234  lwip_pbuf.o(.text)
    pbuf_header                              0x0805f0c7   Thumb Code    18  lwip_pbuf.o(.text)
    pbuf_header_force                        0x0805f0d9   Thumb Code    18  lwip_pbuf.o(.text)
    pbuf_clen                                0x0805f0eb   Thumb Code    18  lwip_pbuf.o(.text)
    pbuf_ref                                 0x0805f0fd   Thumb Code    56  lwip_pbuf.o(.text)
    pbuf_cat                                 0x0805f135   Thumb Code   114  lwip_pbuf.o(.text)
    pbuf_chain                               0x0805f1a7   Thumb Code    26  lwip_pbuf.o(.text)
    pbuf_dechain                             0x0805f1c1   Thumb Code   116  lwip_pbuf.o(.text)
    pbuf_copy                                0x0805f235   Thumb Code   758  lwip_pbuf.o(.text)
    pbuf_copy_partial                        0x0805f52b   Thumb Code   174  lwip_pbuf.o(.text)
    pbuf_skip                                0x0805f5fb   Thumb Code    28  lwip_pbuf.o(.text)
    pbuf_take                                0x0805f617   Thumb Code   220  lwip_pbuf.o(.text)
    pbuf_take_at                             0x0805f6f3   Thumb Code   118  lwip_pbuf.o(.text)
    pbuf_coalesce                            0x0805f769   Thumb Code    76  lwip_pbuf.o(.text)
    pbuf_try_get_at                          0x0805f7b5   Thumb Code    46  lwip_pbuf.o(.text)
    pbuf_get_at                              0x0805f7e3   Thumb Code    28  lwip_pbuf.o(.text)
    pbuf_put_at                              0x0805f7ff   Thumb Code    42  lwip_pbuf.o(.text)
    pbuf_memcmp                              0x0805f829   Thumb Code   430  lwip_pbuf.o(.text)
    pbuf_memfind                             0x0805f9d7   Thumb Code    72  lwip_pbuf.o(.text)
    pbuf_strstr                              0x0805fa1f   Thumb Code    60  lwip_pbuf.o(.text)
    stats_init                               0x0805fa5d   Thumb Code     8  lwip_stats.o(.text)
    stats_display_proto                      0x0805fa65   Thumb Code   112  lwip_stats.o(.text)
    stats_display_mem                        0x0805fad5   Thumb Code    48  lwip_stats.o(.text)
    stats_display_memp                       0x0805fb05   Thumb Code    20  lwip_stats.o(.text)
    stats_display_sys                        0x0805fb19   Thumb Code    84  lwip_stats.o(.text)
    stats_display                            0x0805fb6d   Thumb Code    46  lwip_stats.o(.text)
    tcp_init                                 0x0805fd39   Thumb Code    20  lwip_tcp.o(.text)
    tcp_seg_free                             0x0805fd4d   Thumb Code    26  lwip_tcp.o(.text)
    tcp_segs_free                            0x0805fd67   Thumb Code    24  lwip_tcp.o(.text)
    tcp_pcb_purge                            0x0805fd7f   Thumb Code    84  lwip_tcp.o(.text)
    tcp_slowtmr                              0x0805fdd3   Thumb Code  1360  lwip_tcp.o(.text)
    tcp_pcb_remove                           0x0806039b   Thumb Code   156  lwip_tcp.o(.text)
    tcp_close                                0x080605f7   Thumb Code    32  lwip_tcp.o(.text)
    tcp_update_rcv_ann_wnd                   0x08060617   Thumb Code   376  lwip_tcp.o(.text)
    tcp_recved                               0x0806078f   Thumb Code   134  lwip_tcp.o(.text)
    tcp_recv_null                            0x08060815   Thumb Code    46  lwip_tcp.o(.text)
    tcp_process_refused_data                 0x08060843   Thumb Code   152  lwip_tcp.o(.text)
    tcp_fasttmr                              0x080608db   Thumb Code   138  lwip_tcp.o(.text)
    tcp_tmr                                  0x08060965   Thumb Code    30  lwip_tcp.o(.text)
    tcp_shutdown                             0x08060983   Thumb Code    98  lwip_tcp.o(.text)
    tcp_abandon                              0x080609e5   Thumb Code   244  lwip_tcp.o(.text)
    tcp_abort                                0x08060ad9   Thumb Code    14  lwip_tcp.o(.text)
    tcp_bind                                 0x08060b47   Thumb Code   406  lwip_tcp.o(.text)
    tcp_listen_with_backlog_and_err          0x08060cf1   Thumb Code   258  lwip_tcp.o(.text)
    tcp_listen_with_backlog                  0x08060df3   Thumb Code    18  lwip_tcp.o(.text)
    tcp_eff_send_mss_impl                    0x08060e05   Thumb Code    58  lwip_tcp.o(.text)
    tcp_next_iss                             0x08060e3f   Thumb Code    18  lwip_tcp.o(.text)
    tcp_connect                              0x08060e51   Thumb Code   402  lwip_tcp.o(.text)
    tcp_txnow                                0x08060fe3   Thumb Code    30  lwip_tcp.o(.text)
    tcp_setprio                              0x08061001   Thumb Code     4  lwip_tcp.o(.text)
    tcp_alloc                                0x08061181   Thumb Code   294  lwip_tcp.o(.text)
    tcp_new                                  0x080612a7   Thumb Code    10  lwip_tcp.o(.text)
    tcp_new_ip_type                          0x080612b1   Thumb Code    16  lwip_tcp.o(.text)
    tcp_arg                                  0x080612c1   Thumb Code     6  lwip_tcp.o(.text)
    tcp_recv                                 0x080612c7   Thumb Code    36  lwip_tcp.o(.text)
    tcp_sent                                 0x080612eb   Thumb Code    36  lwip_tcp.o(.text)
    tcp_err                                  0x0806130f   Thumb Code    38  lwip_tcp.o(.text)
    tcp_accept                               0x08061335   Thumb Code    16  lwip_tcp.o(.text)
    tcp_poll                                 0x08061345   Thumb Code    38  lwip_tcp.o(.text)
    tcp_netif_ip_addr_changed                0x08061399   Thumb Code    70  lwip_tcp.o(.text)
    tcp_debug_state_str                      0x080613df   Thumb Code    10  lwip_tcp.o(.text)
    tcp_input                                0x080626ad   Thumb Code  1822  lwip_tcp_in.o(.text)
    tcp_trigger_input_pcb_close              0x08062dcb   Thumb Code    14  lwip_tcp_in.o(.text)
    tcp_enqueue_flags                        0x08062f97   Thumb Code   376  lwip_tcp_out.o(.text)
    tcp_send_fin                             0x0806310f   Thumb Code    74  lwip_tcp_out.o(.text)
    tcp_write                                0x08063205   Thumb Code  1792  lwip_tcp_out.o(.text)
    tcp_send_empty_ack                       0x08063905   Thumb Code   150  lwip_tcp_out.o(.text)
    tcp_output                               0x08063a79   Thumb Code   616  lwip_tcp_out.o(.text)
    tcp_rst                                  0x08063ce1   Thumb Code   180  lwip_tcp_out.o(.text)
    tcp_rexmit_rto                           0x08063d95   Thumb Code    66  lwip_tcp_out.o(.text)
    tcp_rexmit                               0x08063dd7   Thumb Code   168  lwip_tcp_out.o(.text)
    tcp_rexmit_fast                          0x08063e7f   Thumb Code   118  lwip_tcp_out.o(.text)
    tcp_keepalive                            0x08063ef5   Thumb Code   138  lwip_tcp_out.o(.text)
    tcp_zero_window_probe                    0x08063f7f   Thumb Code   262  lwip_tcp_out.o(.text)
    sys_timeout                              0x08064085   Thumb Code   222  lwip_timeouts.o(.text)
    tcp_timer_needed                         0x0806418b   Thumb Code    38  lwip_timeouts.o(.text)
    sys_timeouts_init                        0x080641c7   Thumb Code    38  lwip_timeouts.o(.text)
    sys_untimeout                            0x080641ed   Thumb Code    90  lwip_timeouts.o(.text)
    sys_restart_timeouts                     0x080642b7   Thumb Code    12  lwip_timeouts.o(.text)
    sys_timeouts_mbox_fetch                  0x080642f3   Thumb Code    58  lwip_timeouts.o(.text)
    udp_init                                 0x08064395   Thumb Code    20  lwip_udp.o(.text)
    udp_input                                0x0806443b   Thumb Code   422  lwip_udp.o(.text)
    udp_bind                                 0x080645e1   Thumb Code   186  lwip_udp.o(.text)
    udp_sendto_if_src                        0x0806469b   Thumb Code   488  lwip_udp.o(.text)
    udp_sendto_if                            0x08064883   Thumb Code    82  lwip_udp.o(.text)
    udp_sendto                               0x080648d5   Thumb Code   104  lwip_udp.o(.text)
    udp_send                                 0x0806493d   Thumb Code    30  lwip_udp.o(.text)
    udp_connect                              0x0806495b   Thumb Code   116  lwip_udp.o(.text)
    udp_disconnect                           0x080649cf   Thumb Code    16  lwip_udp.o(.text)
    udp_recv                                 0x080649df   Thumb Code     6  lwip_udp.o(.text)
    udp_remove                               0x080649e5   Thumb Code    64  lwip_udp.o(.text)
    udp_new                                  0x08064a25   Thumb Code    42  lwip_udp.o(.text)
    udp_new_ip_type                          0x08064a4f   Thumb Code    14  lwip_udp.o(.text)
    udp_netif_ip_addr_changed                0x08064a5d   Thumb Code    42  lwip_udp.o(.text)
    icmp_input                               0x08064a91   Thumb Code   522  lwip_icmp.o(.text)
    icmp_dest_unreach                        0x08064d43   Thumb Code    18  lwip_icmp.o(.text)
    icmp_time_exceeded                       0x08064d55   Thumb Code    18  lwip_icmp.o(.text)
    igmp_init                                0x08064e09   Thumb Code    18  lwip_igmp.o(.text)
    igmp_lookfor_group                       0x08064e1b   Thumb Code    32  lwip_igmp.o(.text)
    igmp_start                               0x08064ee1   Thumb Code    66  lwip_igmp.o(.text)
    igmp_stop                                0x08064f23   Thumb Code    60  lwip_igmp.o(.text)
    igmp_report_groups                       0x08064faf   Thumb Code    32  lwip_igmp.o(.text)
    igmp_input                               0x08064ff7   Thumb Code   278  lwip_igmp.o(.text)
    igmp_joingroup_netif                     0x080651e1   Thumb Code   350  lwip_igmp.o(.text)
    igmp_joingroup                           0x0806533f   Thumb Code   132  lwip_igmp.o(.text)
    igmp_leavegroup_netif                    0x080653c3   Thumb Code   214  lwip_igmp.o(.text)
    igmp_leavegroup                          0x08065499   Thumb Code   132  lwip_igmp.o(.text)
    igmp_tmr                                 0x0806554f   Thumb Code    52  lwip_igmp.o(.text)
    ip4_set_default_multicast_netif          0x080657d5   Thumb Code     6  lwip_ip4.o(.text)
    ip4_route                                0x080657db   Thumb Code   160  lwip_ip4.o(.text)
    ip4_input                                0x0806587b   Thumb Code   598  lwip_ip4.o(.text)
    ip4_output_if_opt_src                    0x08065ad1   Thumb Code   540  lwip_ip4.o(.text)
    ip4_output_if_opt                        0x08065ced   Thumb Code    68  lwip_ip4.o(.text)
    ip4_output_if                            0x08065d31   Thumb Code    52  lwip_ip4.o(.text)
    ip4_output_if_src                        0x08065d65   Thumb Code    52  lwip_ip4.o(.text)
    ip4_output                               0x08065d99   Thumb Code    80  lwip_ip4.o(.text)
    ip4_addr_isbroadcast_u32                 0x08065df5   Thumb Code    78  lwip_ip4_addr.o(.text)
    ip4_addr_netmask_valid                   0x08065e43   Thumb Code    56  lwip_ip4_addr.o(.text)
    ip4addr_aton                             0x08065e7b   Thumb Code   408  lwip_ip4_addr.o(.text)
    ipaddr_addr                              0x08066013   Thumb Code    24  lwip_ip4_addr.o(.text)
    ip4addr_ntoa_r                           0x0806602b   Thumb Code   168  lwip_ip4_addr.o(.text)
    ip4addr_ntoa                             0x080660d3   Thumb Code    16  lwip_ip4_addr.o(.text)
    ip_reass_tmr                             0x08066221   Thumb Code    56  lwip_ip4_frag.o(.text)
    ip4_reass                                0x08066629   Thumb Code   442  lwip_ip4_frag.o(.text)
    ip4_frag                                 0x08066851   Thumb Code   688  lwip_ip4_frag.o(.text)
    link_required                            0x08066b01   Thumb Code     2  lwip_auth.o(.text)
    link_terminated                          0x08066b03   Thumb Code    42  lwip_auth.o(.text)
    upper_layers_down                        0x08066b2d   Thumb Code    72  lwip_auth.o(.text)
    link_down                                0x08066b75   Thumb Code    26  lwip_auth.o(.text)
    continue_networks                        0x08066b8f   Thumb Code    64  lwip_auth.o(.text)
    start_networks                           0x08066bcf   Thumb Code    20  lwip_auth.o(.text)
    link_established                         0x08066bef   Thumb Code   114  lwip_auth.o(.text)
    auth_withpeer_fail                       0x08066c61   Thumb Code    22  lwip_auth.o(.text)
    auth_withpeer_success                    0x08066c77   Thumb Code    90  lwip_auth.o(.text)
    np_up                                    0x08066cd1   Thumb Code    32  lwip_auth.o(.text)
    np_down                                  0x08066cf1   Thumb Code    30  lwip_auth.o(.text)
    np_finished                              0x08066d0f   Thumb Code    32  lwip_auth.o(.text)
    get_secret                               0x08066d2f   Thumb Code    88  lwip_auth.o(.text)
    chap_auth_with_peer                      0x08066ed5   Thumb Code    94  lwip_chap-new.o(.text)
    fsm_init                                 0x080672cd   Thumb Code    20  lwip_fsm.o(.text)
    fsm_sdata                                0x080672e1   Thumb Code   148  lwip_fsm.o(.text)
    fsm_lowerup                              0x0806757f   Thumb Code    54  lwip_fsm.o(.text)
    fsm_lowerdown                            0x080675b5   Thumb Code   110  lwip_fsm.o(.text)
    fsm_open                                 0x08067623   Thumb Code   108  lwip_fsm.o(.text)
    fsm_close                                0x0806771d   Thumb Code    96  lwip_fsm.o(.text)
    fsm_input                                0x08067c1f   Thumb Code   380  lwip_fsm.o(.text)
    fsm_protreject                           0x08067d9b   Thumb Code   106  lwip_fsm.o(.text)
    lcp_open                                 0x08069117   Thumb Code    60  lwip_lcp.o(.text)
    lcp_close                                0x0806917f   Thumb Code    86  lwip_lcp.o(.text)
    lcp_lowerup                              0x080691d5   Thumb Code   134  lwip_lcp.o(.text)
    lcp_lowerdown                            0x0806925b   Thumb Code    42  lwip_lcp.o(.text)
    lcp_sprotrej                             0x08069427   Thumb Code   258  lwip_lcp.o(.text)
    magic_init                               0x0806aa01   Thumb Code    12  lwip_magic.o(.text)
    magic_randomize                          0x0806aa0d   Thumb Code    12  lwip_magic.o(.text)
    magic_random_bytes                       0x0806aa19   Thumb Code    88  lwip_magic.o(.text)
    magic                                    0x0806aa71   Thumb Code    14  lwip_magic.o(.text)
    magic_pow                                0x0806aa7f   Thumb Code    18  lwip_magic.o(.text)
    ppp_set_auth                             0x0806aa9d   Thumb Code    22  lwip_ppp.o(.text)
    new_phase                                0x0806aab3   Thumb Code     6  lwip_ppp.o(.text)
    ppp_connect                              0x0806aaf1   Thumb Code    58  lwip_ppp.o(.text)
    ppp_link_terminated                      0x0806ab2b   Thumb Code    16  lwip_ppp.o(.text)
    ppp_close                                0x0806ab3b   Thumb Code   136  lwip_ppp.o(.text)
    ppp_free                                 0x0806abc3   Thumb Code    46  lwip_ppp.o(.text)
    ppp_ioctl                                0x0806abf1   Thumb Code    56  lwip_ppp.o(.text)
    ppp_init                                 0x0806aca3   Thumb Code    22  lwip_ppp.o(.text)
    ppp_new                                  0x0806acb9   Thumb Code   178  lwip_ppp.o(.text)
    ppp_start                                0x0806ad6b   Thumb Code    26  lwip_ppp.o(.text)
    ppp_link_failed                          0x0806ad85   Thumb Code    32  lwip_ppp.o(.text)
    ppp_link_end                             0x0806ada5   Thumb Code    38  lwip_ppp.o(.text)
    ppp_singlebuf                            0x0806adcb   Thumb Code    74  lwip_ppp.o(.text)
    ppp_input                                0x0806ae15   Thumb Code   400  lwip_ppp.o(.text)
    ppp_write                                0x0806afa5   Thumb Code    20  lwip_ppp.o(.text)
    ppp_send_config                          0x0806afb9   Thumb Code    44  lwip_ppp.o(.text)
    ppp_recv_config                          0x0806afe5   Thumb Code    44  lwip_ppp.o(.text)
    sifaddr                                  0x0806b011   Thumb Code    32  lwip_ppp.o(.text)
    cifaddr                                  0x0806b031   Thumb Code    24  lwip_ppp.o(.text)
    sdns                                     0x0806b049   Thumb Code    32  lwip_ppp.o(.text)
    cdns                                     0x0806b069   Thumb Code    64  lwip_ppp.o(.text)
    sifup                                    0x0806b0a9   Thumb Code    44  lwip_ppp.o(.text)
    sifdown                                  0x0806b0d5   Thumb Code    22  lwip_ppp.o(.text)
    get_mask                                 0x0806b0eb   Thumb Code     8  lwip_ppp.o(.text)
    netif_set_mtu                            0x0806b0f3   Thumb Code     6  lwip_ppp.o(.text)
    netif_get_mtu                            0x0806b0f9   Thumb Code     8  lwip_ppp.o(.text)
    pppos_create                             0x0806b10d   Thumb Code    80  lwip_pppos.o(.text)
    pppos_input                              0x0806b559   Thumb Code   612  lwip_pppos.o(.text)
    ppp_strlcpy                              0x0806b885   Thumb Code    56  lwip_utils.o(.text)
    ppp_strlcat                              0x0806b8bd   Thumb Code    44  lwip_utils.o(.text)
    ppp_vslprintf                            0x0806b8e9   Thumb Code  1422  lwip_utils.o(.text)
    ppp_slprintf                             0x0806be77   Thumb Code    38  lwip_utils.o(.text)
    ppp_print_string                         0x0806be9d   Thumb Code   122  lwip_utils.o(.text)
    ppp_fatal                                0x0806bf75   Thumb Code    44  lwip_utils.o(.text)
    ppp_error                                0x0806bfa1   Thumb Code    28  lwip_utils.o(.text)
    ppp_warn                                 0x0806bfbd   Thumb Code    28  lwip_utils.o(.text)
    ppp_notice                               0x0806bfd9   Thumb Code    28  lwip_utils.o(.text)
    ppp_info                                 0x0806bff5   Thumb Code    28  lwip_utils.o(.text)
    ppp_dbglog                               0x0806c011   Thumb Code    28  lwip_utils.o(.text)
    md5_starts                               0x0806c03d   Thumb Code    26  lwip_md5.o(.text)
    md5_update                               0x0806c96d   Thumb Code   128  lwip_md5.o(.text)
    md5_finish                               0x0806c9ed   Thumb Code   206  lwip_md5.o(.text)
    md5                                      0x0806cabb   Thumb Code    38  lwip_md5.o(.text)
    lwip_seed_random                         0x0806cae5   Thumb Code     2  lwip_random.o(.text)
    lwip_add_random_seed                     0x0806cae7   Thumb Code     2  lwip_random.o(.text)
    lwip_get_random                          0x0806cae9   Thumb Code     8  lwip_random.o(.text)
    lwip_init_tcp_isn                        0x0806caf1   Thumb Code    36  lwip_tcp_isn.o(.text)
    lwip_hook_tcp_isn                        0x0806cb15   Thumb Code   146  lwip_tcp_isn.o(.text)
    mbed_lwip_get_ip_addr                    0x0806cbd5   Thumb Code    40  lwip_stack.o(.text)
    add_dns_addr                             0x0806cc1d   Thumb Code    76  lwip_stack.o(.text)
    mbed_lwip_get_mac_address                0x0806ccc9   Thumb Code    14  lwip_stack.o(.text)
    mbed_lwip_get_ip_address                 0x0806ccd7   Thumb Code    34  lwip_stack.o(.text)
    mbed_lwip_get_netmask                    0x0806ccf9   Thumb Code    32  lwip_stack.o(.text)
    mbed_lwip_get_gateway                    0x0806cd19   Thumb Code    32  lwip_stack.o(.text)
    mbed_lwip_core_init                      0x0806cd39   Thumb Code    96  lwip_stack.o(.text)
    mbed_lwip_ppp_bringup                    0x0806cdf9   Thumb Code    92  lwip_stack.o(.text)
    mbed_lwip_ppp_link_status                0x0806ce55   Thumb Code    40  lwip_stack.o(.text)
    mbed_lwip_ppp_link_set_connected         0x0806ce7d   Thumb Code    16  lwip_stack.o(.text)
    mbed_lwip_ppp_bringdown                  0x0806ce8d   Thumb Code    64  lwip_stack.o(.text)
    handle_modem_hangup                      0x0806d0c1   Thumb Code    24  ppp_lwip.o(.text)
    ppp_lwip_is_dead                         0x0806d127   Thumb Code    26  ppp_lwip.o(.text)
    ppp_lwip_connect                         0x0806d141   Thumb Code    50  ppp_lwip.o(.text)
    ppp_lwip_disconnect                      0x0806d173   Thumb Code    52  ppp_lwip.o(.text)
    ppp_lwip_if_init                         0x0806d1a7   Thumb Code    74  ppp_lwip.o(.text)
    nsapi_ppp_error_code                     0x0806d1f1   Thumb Code     6  ppp_lwip.o(.text)
    nsapi_ppp_connect                        0x0806d1f7   Thumb Code   690  ppp_lwip.o(.text)
    nsapi_ppp_disconnect                     0x0806d4a9   Thumb Code     8  ppp_lwip.o(.text)
    nsapi_ppp_get_ip_addr                    0x0806d4b1   Thumb Code    30  ppp_lwip.o(.text)
    nsapi_ppp_get_netmask                    0x0806d4cf   Thumb Code    30  ppp_lwip.o(.text)
    nsapi_ppp_get_gw_addr                    0x0806d4ed   Thumb Code    30  ppp_lwip.o(.text)
    __aeabi_uldivmod                         0x0806d51d   Thumb Code    98  uldiv.o(.text)
    __aeabi_llsl                             0x0806d57f   Thumb Code    30  llshl.o(.text)
    _ll_shift_l                              0x0806d57f   Thumb Code     0  llshl.o(.text)
    __rt_ctype_table                         0x0806d59d   Thumb Code     4  ctype_o.o(.text)
    isspace                                  0x0806d5a5   Thumb Code    18  isspace_o.o(.text)
    toupper                                  0x0806d5b7   Thumb Code    12  toupper.o(.text)
    rand                                     0x0806d5c5   Thumb Code    20  rand.o(.text)
    srand                                    0x0806d5d9   Thumb Code     6  rand.o(.text)
    ___aeabi_memcpy8$move                    0x0806d5e9   Thumb Code     0  memmovea.o(.text)
    __aeabi_memcpy                           0x0806d5e9   Thumb Code    64  memmovea.o(.text)
    __aeabi_memcpy4                          0x0806d5e9   Thumb Code     0  memmovea.o(.text)
    __aeabi_memmove                          0x0806d5e9   Thumb Code     0  memmovea.o(.text)
    __aeabi_memmove4                         0x0806d5e9   Thumb Code     0  memmovea.o(.text)
    __aeabi_memmove8                         0x0806d5e9   Thumb Code     0  memmovea.o(.text)
    __aeabi_memset                           0x0806d629   Thumb Code    14  memseta.o(.text)
    __aeabi_memset4                          0x0806d629   Thumb Code     0  memseta.o(.text)
    __aeabi_memset8                          0x0806d629   Thumb Code     0  memseta.o(.text)
    __aeabi_memclr                           0x0806d637   Thumb Code     4  memseta.o(.text)
    __aeabi_memclr4                          0x0806d637   Thumb Code     0  memseta.o(.text)
    __aeabi_memclr8                          0x0806d637   Thumb Code     0  memseta.o(.text)
    _memset$wrapper                          0x0806d63b   Thumb Code    18  memseta.o(.text)
    strcat                                   0x0806d64d   Thumb Code    24  strcat.o(.text)
    strstr                                   0x0806d665   Thumb Code    36  strstr.o(.text)
    strncpy                                  0x0806d689   Thumb Code    24  strncpy.o(.text)
    strlen                                   0x0806d6a1   Thumb Code    14  strlen.o(.text)
    strcmp                                   0x0806d6af   Thumb Code    28  strcmp.o(.text)
    memcmp                                   0x0806d6cb   Thumb Code    26  memcmp.o(.text)
    strcpy                                   0x0806d6e5   Thumb Code    18  strcpy.o(.text)
    strncmp                                  0x0806d6f7   Thumb Code    30  strncmp.o(.text)
    calloc                                   0x0806d715   Thumb Code    28  calloc.o(.text)
    __0sscanf                                0x0806d731   Thumb Code    48  __0sscanf.o(.text)
    _scanf_int                               0x0806d769   Thumb Code   332  _scanf_int.o(.text)
    _scanf_string                            0x0806d8b5   Thumb Code   224  _scanf_str.o(.text)
    _scanf_real                              0x0806da95   Thumb Code     0  scanf_fp.o(.text)
    _scanf_really_real                       0x0806da95   Thumb Code   556  scanf_fp.o(.text)
    atoi                                     0x0806dccd   Thumb Code    26  atoi.o(.text)
    atoll                                    0x0806dce7   Thumb Code    26  atoll.o(.text)
    __aeabi_ddiv                             0x0806dd01   Thumb Code   222  ddiv.o(.text)
    __aeabi_f2d                              0x0806dddf   Thumb Code    38  f2d.o(.text)
    __aeabi_d2f                              0x0806de05   Thumb Code    56  d2f.o(.text)
    __aeabi_uidiv                            0x0806de3d   Thumb Code     0  uidiv.o(.text)
    __aeabi_uidivmod                         0x0806de3d   Thumb Code    44  uidiv.o(.text)
    __aeabi_llsr                             0x0806de69   Thumb Code    32  llushr.o(.text)
    _ll_ushift_r                             0x0806de69   Thumb Code     0  llushr.o(.text)
    _chval                                   0x0806de89   Thumb Code    28  _chval.o(.text)
    __vfscanf_char                           0x0806deb1   Thumb Code    20  scanf_char.o(.text)
    _sgetc                                   0x0806decd   Thumb Code    30  _sgetc.o(.text)
    _sbackspace                              0x0806deeb   Thumb Code    34  _sgetc.o(.text)
    strtol                                   0x0806df0d   Thumb Code   112  strtol.o(.text)
    __strtoll                                0x0806df7d   Thumb Code   144  __strtoll.o(.text)
    __I$use$fp                               0x0806e00d   Thumb Code     0  iusefp.o(.text)
    _float_round                             0x0806e00d   Thumb Code    18  fepilogue.o(.text)
    _float_epilogue                          0x0806e01f   Thumb Code    92  fepilogue.o(.text)
    _double_round                            0x0806e07b   Thumb Code    30  depilogue.o(.text)
    _double_epilogue                         0x0806e099   Thumb Code   156  depilogue.o(.text)
    __aeabi_dadd                             0x0806e135   Thumb Code   322  dadd.o(.text)
    __aeabi_dsub                             0x0806e277   Thumb Code     6  dadd.o(.text)
    __aeabi_drsub                            0x0806e27d   Thumb Code     6  dadd.o(.text)
    __aeabi_dmul                             0x0806e283   Thumb Code   228  dmul.o(.text)
    __aeabi_ul2d                             0x0806e367   Thumb Code    24  dfltul.o(.text)
    __aeabi_d2ulz                            0x0806e37f   Thumb Code    48  dfixul.o(.text)
    __aeabi_cdrcmple                         0x0806e3b1   Thumb Code    48  cdrcmple.o(.text)
    __scatterload                            0x0806e3e1   Thumb Code    28  init.o(.text)
    __scatterload_rt2                        0x0806e3e1   Thumb Code     0  init.o(.text)
    __aeabi_lasr                             0x0806e405   Thumb Code    36  llsshr.o(.text)
    _ll_sshift_r                             0x0806e405   Thumb Code     0  llsshr.o(.text)
    __vfscanf                                0x0806e429   Thumb Code   808  _scanf.o(.text)
    _strtoul                                 0x0806e755   Thumb Code   158  _strtoul.o(.text)
    _strtoull                                0x0806e7f3   Thumb Code   194  _strtoull.o(.text)
    __decompress                             0x0806e8b5   Thumb Code     0  __dczerorl2.o(.text)
    __decompress1                            0x0806e8b5   Thumb Code    86  __dczerorl2.o(.text)
    __0fprintf                               0x0806e90d   Thumb Code    22  printfa.o(i.__0fprintf)
    __1fprintf                               0x0806e90d   Thumb Code     0  printfa.o(i.__0fprintf)
    __2fprintf                               0x0806e90d   Thumb Code     0  printfa.o(i.__0fprintf)
    __c89fprintf                             0x0806e90d   Thumb Code     0  printfa.o(i.__0fprintf)
    fprintf                                  0x0806e90d   Thumb Code     0  printfa.o(i.__0fprintf)
    __0printf                                0x0806e929   Thumb Code    22  printfa.o(i.__0printf)
    __1printf                                0x0806e929   Thumb Code     0  printfa.o(i.__0printf)
    __2printf                                0x0806e929   Thumb Code     0  printfa.o(i.__0printf)
    __c89printf                              0x0806e929   Thumb Code     0  printfa.o(i.__0printf)
    printf                                   0x0806e929   Thumb Code     0  printfa.o(i.__0printf)
    __0snprintf                              0x0806e949   Thumb Code    44  printfa.o(i.__0snprintf)
    __1snprintf                              0x0806e949   Thumb Code     0  printfa.o(i.__0snprintf)
    __2snprintf                              0x0806e949   Thumb Code     0  printfa.o(i.__0snprintf)
    __c89snprintf                            0x0806e949   Thumb Code     0  printfa.o(i.__0snprintf)
    snprintf                                 0x0806e949   Thumb Code     0  printfa.o(i.__0snprintf)
    __0sprintf                               0x0806e979   Thumb Code    34  printfa.o(i.__0sprintf)
    __1sprintf                               0x0806e979   Thumb Code     0  printfa.o(i.__0sprintf)
    __2sprintf                               0x0806e979   Thumb Code     0  printfa.o(i.__0sprintf)
    __c89sprintf                             0x0806e979   Thumb Code     0  printfa.o(i.__0sprintf)
    sprintf                                  0x0806e979   Thumb Code     0  printfa.o(i.__0sprintf)
    __0vsnprintf                             0x0806e9a1   Thumb Code    40  printfa.o(i.__0vsnprintf)
    __1vsnprintf                             0x0806e9a1   Thumb Code     0  printfa.o(i.__0vsnprintf)
    __2vsnprintf                             0x0806e9a1   Thumb Code     0  printfa.o(i.__0vsnprintf)
    __c89vsnprintf                           0x0806e9a1   Thumb Code     0  printfa.o(i.__0vsnprintf)
    vsnprintf                                0x0806e9a1   Thumb Code     0  printfa.o(i.__0vsnprintf)
    __0vsprintf                              0x0806e9cd   Thumb Code    30  printfa.o(i.__0vsprintf)
    __1vsprintf                              0x0806e9cd   Thumb Code     0  printfa.o(i.__0vsprintf)
    __2vsprintf                              0x0806e9cd   Thumb Code     0  printfa.o(i.__0vsprintf)
    __c89vsprintf                            0x0806e9cd   Thumb Code     0  printfa.o(i.__0vsprintf)
    vsprintf                                 0x0806e9cd   Thumb Code     0  printfa.o(i.__0vsprintf)
    __aeabi_errno_addr                       0x0806e9f1   Thumb Code     4  errno.o(i.__aeabi_errno_addr)
    __rt_errno_addr                          0x0806e9f1   Thumb Code     0  errno.o(i.__aeabi_errno_addr)
    __scatterload_copy                       0x0806e9f9   Thumb Code    14  handlers.o(i.__scatterload_copy)
    __scatterload_null                       0x0806ea07   Thumb Code     2  handlers.o(i.__scatterload_null)
    __scatterload_zeroinit                   0x0806ea09   Thumb Code    14  handlers.o(i.__scatterload_zeroinit)
    _is_digit                                0x0806eb9d   Thumb Code    14  scanf_fp.o(i._is_digit)
    fread                                    0x0806f2fb   Thumb Code    52  fread.o(i.fread)
    free                                     0x0806f331   Thumb Code    76  malloc.o(i.free)
    fwrite                                   0x0806f381   Thumb Code    36  fwrite.o(i.fwrite)
    malloc                                   0x0806f3a5   Thumb Code    92  malloc.o(i.malloc)
    _ytab                                    0x0806f410   Data          96  m_time.o(.constdata)
    AHBPrescTable                            0x0806f478   Data          16  system_stm32f4xx.o(.constdata)
    APBPrescTable                            0x0806f488   Data           8  system_stm32f4xx.o(.constdata)
    os_semaphore_def_PUTC                    0x0806f490   Data           4  main.o(.constdata)
    os_semaphore_def_PRINTF                  0x0806f494   Data           4  main.o(.constdata)
    os_semaphore_def_AWS_SYNC                0x0806f498   Data           4  main.o(.constdata)
    os_semaphore_def_CONFIG_SEM              0x0806f4b0   Data           4  system_config.o(.constdata)
    os_semaphore_def_SHADOW_SEM              0x0806f4b4   Data           4  shadow_thing.o(.constdata)
    watchdogCntValueMax                      0x0806f918   Data          12  watchdog.o(.constdata)
    os_semaphore_def_WATCHDOG_SEM            0x0806f924   Data           4  watchdog.o(.constdata)
    os_semaphore_def_SST25_SEM               0x0806f928   Data           4  sst25.o(.constdata)
    os_semaphore_def_IO_CONTROL_SEM          0x0806f92c   Data           4  io_control.o(.constdata)
    historyInfoBuf                           0x0806f944   Data         256  elster_tasks.o(.constdata)
    elsteWriterCmd0                          0x0806fa44   Data          16  elster_tasks.o(.constdata)
    elsteWriterCmd1                          0x0806fa54   Data          16  elster_tasks.o(.constdata)
    elsteWriterCmd2                          0x0806fa64   Data          16  elster_tasks.o(.constdata)
    elsteWriterCmdTime                       0x0806fa74   Data          16  elster_tasks.o(.constdata)
    elsteWriterCmd3                          0x0806fa84   Data          16  elster_tasks.o(.constdata)
    elsteWriterCmd4                          0x0806fa94   Data          16  elster_tasks.o(.constdata)
    elsteWriterCmd5                          0x0806faa4   Data          16  elster_tasks.o(.constdata)
    elsteWriterCmd6                          0x0806fab4   Data          16  elster_tasks.o(.constdata)
    elsteWriterCmd7Reload                    0x0806fac4   Data          20  elster_tasks.o(.constdata)
    elsteWriterCmd8                          0x0806fad8   Data          16  elster_tasks.o(.constdata)
    elsteWriterCmd9                          0x0806fae8   Data          16  elster_tasks.o(.constdata)
    elsteWriterCmd10                         0x0806faf8   Data          16  elster_tasks.o(.constdata)
    elsteWriterCmd11                         0x0806fb08   Data          16  elster_tasks.o(.constdata)
    elsteWriterCmd12                         0x0806fb18   Data          16  elster_tasks.o(.constdata)
    elsteWriterCmd13                         0x0806fb28   Data          16  elster_tasks.o(.constdata)
    elsteWriterCmd14                         0x0806fb38   Data          16  elster_tasks.o(.constdata)
    elsteWriterCmd14_1                       0x0806fb48   Data          16  elster_tasks.o(.constdata)
    elsteWriterCmd14_2                       0x0806fb58   Data          16  elster_tasks.o(.constdata)
    elsteWriterCmd15                         0x0806fb68   Data          16  elster_tasks.o(.constdata)
    elsteWriterCmd16                         0x0806fb78   Data          16  elster_tasks.o(.constdata)
    elsteWriterCmd17                         0x0806fb88   Data          16  elster_tasks.o(.constdata)
    elsteWriterCmd18                         0x0806fb98   Data          16  elster_tasks.o(.constdata)
    elsteWriterCmd19                         0x0806fba8   Data          16  elster_tasks.o(.constdata)
    elsteWriterCmd20                         0x0806fbb8   Data          16  elster_tasks.o(.constdata)
    elsteWriterCmd21                         0x0806fbc8   Data          16  elster_tasks.o(.constdata)
    elsteWriterCmd22                         0x0806fbd8   Data          16  elster_tasks.o(.constdata)
    elsteWriterCmd23Reload                   0x0806fbe8   Data          20  elster_tasks.o(.constdata)
    elsteWriterCmd36                         0x0806fbfc   Data          16  elster_tasks.o(.constdata)
    elsteWriterCmd37Reload                   0x0806fc0c   Data          20  elster_tasks.o(.constdata)
    elsterCmdRead0                           0x0806fc20   Data         200  elster_tasks.o(.constdata)
    elsterCmdRead1                           0x0806fce8   Data         500  elster_tasks.o(.constdata)
    elsterCmdRead2                           0x0806fedc   Data         520  elster_tasks.o(.constdata)
    elsterCmdGroup0                          0x080700e4   Data         760  elster_tasks.o(.constdata)
    os_semaphore_def_APP_CONFIG_SEM          0x080703dc   Data           4  app_config_task.o(.constdata)
    os_semaphore_def_REALAY_SEM              0x080703e0   Data           4  relay.o(.constdata)
    ampmAtCmd_ATA                            0x080703e4   Data          24  ampm_gsm_call.o(.constdata)
    ampmAtCmd_AT_CLVL                        0x080703fc   Data          24  ampm_gsm_call.o(.constdata)
    ampmAtCmd_ATM                            0x08070414   Data          24  ampm_gsm_call.o(.constdata)
    ampmAtCmd_ATL                            0x0807042c   Data          24  ampm_gsm_call.o(.constdata)
    callDial                                 0x08070444   Data          24  ampm_gsm_call.o(.constdata)
    ampmAtCmd_AT_CLCC                        0x0807045c   Data          24  ampm_gsm_call.o(.constdata)
    ampmAtCmd_AT_CEER                        0x08070474   Data          24  ampm_gsm_call.o(.constdata)
    ampmAtCmd_AT_CHLD_1X                     0x0807048c   Data          24  ampm_gsm_call.o(.constdata)
    voiceCallSendCmdProcess_end              0x080704a4   Data          28  ampm_gsm_call.o(.constdata)
    voiceCallSendCmdProcess_AT_CHLD_1X       0x080704c0   Data          28  ampm_gsm_call.o(.constdata)
    voiceCallSendCmdProcess_AT_CHLD          0x080704dc   Data          28  ampm_gsm_call.o(.constdata)
    voiceCallSendCmdProcess_ATH              0x080704f8   Data          28  ampm_gsm_call.o(.constdata)
    voiceCallSendCmdProcess_AT_CEER          0x08070514   Data          28  ampm_gsm_call.o(.constdata)
    voiceCallSendCmdProcess_AT_CLCC          0x08070530   Data          28  ampm_gsm_call.o(.constdata)
    voiceCallSendCmdProcess_ATD              0x0807054c   Data          28  ampm_gsm_call.o(.constdata)
    voiceCallSendCmdProcess_ATM              0x08070568   Data          28  ampm_gsm_call.o(.constdata)
    voiceCallSendCmdProcess_CLVL             0x08070584   Data          28  ampm_gsm_call.o(.constdata)
    voiceCallSendCmdProcess_ATL              0x080705a0   Data          28  ampm_gsm_call.o(.constdata)
    voiceCallSendCmdProcess_Start            0x080705bc   Data          28  ampm_gsm_call.o(.constdata)
    voiceCallSendCmdProcess_ATA              0x080705d8   Data          28  ampm_gsm_call.o(.constdata)
    ampmAtCmd_AT_CSCS_GSM                    0x080705f4   Data          24  ampm_gsm_common.o(.constdata)
    ampmAtCmd_AT                             0x0807060c   Data          24  ampm_gsm_common.o(.constdata)
    ampmAtCmd_GotoCmdMode                    0x08070624   Data          24  ampm_gsm_common.o(.constdata)
    ampmAtCmd_AT_CHLD                        0x0807063c   Data          24  ampm_gsm_common.o(.constdata)
    ampmAtCmd_ATH                            0x08070654   Data          24  ampm_gsm_common.o(.constdata)
    ampmAtCmd_AT_CSQ                         0x0807066c   Data          24  ampm_gsm_common.o(.constdata)
    ampmAtCmd_AT_CEND                        0x08070684   Data          24  ampm_gsm_common.o(.constdata)
    ampmAtCmd_AT_CLIP                        0x0807069c   Data          24  ampm_gsm_common.o(.constdata)
    ampmAtCmd_AT_CMGF_1                      0x080706b4   Data          24  ampm_gsm_common.o(.constdata)
    ampmAtCmd_AT_CMGF_0                      0x080706cc   Data          24  ampm_gsm_common.o(.constdata)
    ampmAtCmd_AT_CMGL                        0x080706e4   Data          24  ampm_gsm_common.o(.constdata)
    ampmAtCmd_AT_CGACT                       0x080706fc   Data          24  ampm_gsm_common.o(.constdata)
    ampmAtCmd_AT_DIALUP                      0x08070714   Data          24  ampm_gsm_common.o(.constdata)
    ampmAtCmd_AT_CREG                        0x0807072c   Data          24  ampm_gsm_common.o(.constdata)
    ampmCmdProcess_AT                        0x08070744   Data          28  ampm_gsm_common.o(.constdata)
    ampmCmdProcess_ATH                       0x08070760   Data          28  ampm_gsm_common.o(.constdata)
    ampmAtCmd_AT_CGDCONT                     0x0807077c   Data          24  ampm_gsm_dial_up.o(.constdata)
    dialupCmdProcess_4                       0x08070794   Data          28  ampm_gsm_dial_up.o(.constdata)
    dialupCmdProcess_3                       0x080707b0   Data          28  ampm_gsm_dial_up.o(.constdata)
    dialupCmdProcess_2                       0x080707cc   Data          28  ampm_gsm_dial_up.o(.constdata)
    dialupCmdProcess_1                       0x080707e8   Data          28  ampm_gsm_dial_up.o(.constdata)
    dialupCmdProcess_Start                   0x08070804   Data          28  ampm_gsm_dial_up.o(.constdata)
    dialupCmdProcess_Stop_End1               0x08070820   Data          28  ampm_gsm_dial_up.o(.constdata)
    dialupCmdProcess_Stop_End                0x0807083c   Data          28  ampm_gsm_dial_up.o(.constdata)
    dialupCmdProcess_Stop_1                  0x08070858   Data          28  ampm_gsm_dial_up.o(.constdata)
    dialupCmdProcess_Stop                    0x08070874   Data          28  ampm_gsm_dial_up.o(.constdata)
    os_thread_def_AMPM_GSM_MainTask          0x08070890   Data          20  ampm_gsm_main_task.o(.constdata)
    ampm_AtGsmCmdStart                       0x080708a4   Data         638  ampm_gsm_main_task.o(.constdata)
    ampm_AtGsmCmdStartBGS2_W                 0x08070b22   Data         565  ampm_gsm_main_task.o(.constdata)
    ampm_AtGsmCmdStartBGS2_E                 0x08070d57   Data         656  ampm_gsm_main_task.o(.constdata)
    ampm_AtGsmCmdStartBG2_E                  0x08070fe7   Data         549  ampm_gsm_main_task.o(.constdata)
    ampm_AtGsmCmdStartM95                    0x0807120c   Data         373  ampm_gsm_main_task.o(.constdata)
    ampm_AtGsmCmdStartM26                    0x08071381   Data         373  ampm_gsm_main_task.o(.constdata)
    ampm_AtGsmCmdStartSIM900                 0x080714f6   Data         325  ampm_gsm_main_task.o(.constdata)
    ampm_AtGsmCmdStartUbloxG100              0x0807163b   Data         376  ampm_gsm_main_task.o(.constdata)
    smsRecvCmd_Read_AT_CCLK                  0x080717b4   Data          24  ampm_gsm_main_task.o(.constdata)
    sendCmd_AT_CGSN                          0x080717cc   Data          24  ampm_gsm_main_task.o(.constdata)
    ampmAtCmd_AT_CFUN_1                      0x080717e4   Data          24  ampm_gsm_main_task.o(.constdata)
    ampmAtCmd_AT_CFUN_9                      0x080717fc   Data          24  ampm_gsm_main_task.o(.constdata)
    ampmMainCmdProcess_CHLD                  0x08071814   Data          28  ampm_gsm_main_task.o(.constdata)
    ampmMainCmdProcess_End                   0x08071830   Data          28  ampm_gsm_main_task.o(.constdata)
    ampmMainCmdProcess_AT_CFUN_1             0x0807184c   Data          28  ampm_gsm_main_task.o(.constdata)
    ampmMainCmdProcess_AT_CFUN_9             0x08071868   Data          28  ampm_gsm_main_task.o(.constdata)
    ampmMainCmdProcess_ATH                   0x08071884   Data          28  ampm_gsm_main_task.o(.constdata)
    ampmMainCmdProcess_AT                    0x080718a0   Data          28  ampm_gsm_main_task.o(.constdata)
    os_mutex_def_ampmGsmSmsMutex             0x080718bc   Data           4  ampm_gsm_sms.o(.constdata)
    smsSevdCmd_Set_AT_CCLK                   0x080718c0   Data          24  ampm_gsm_sms.o(.constdata)
    smsRecvCmd_AT_CMGR                       0x080718d8   Data          24  ampm_gsm_sms.o(.constdata)
    smsRecvCmd_AT_CMGD                       0x080718f0   Data          24  ampm_gsm_sms.o(.constdata)
    smsRecvCmdProcess_end                    0x08071908   Data          28  ampm_gsm_sms.o(.constdata)
    smsRecvCmdProcess_5                      0x08071924   Data          28  ampm_gsm_sms.o(.constdata)
    smsRecvCmdProcess_4                      0x08071940   Data          28  ampm_gsm_sms.o(.constdata)
    smsRecvCmdProcess_3                      0x0807195c   Data          28  ampm_gsm_sms.o(.constdata)
    smsRecvCmdProcess_2                      0x08071978   Data          28  ampm_gsm_sms.o(.constdata)
    smsRecvCmdProcess_1                      0x08071994   Data          28  ampm_gsm_sms.o(.constdata)
    smsRecvCmdProcess_03                     0x080719b0   Data          28  ampm_gsm_sms.o(.constdata)
    smsRecvCmdProcess_02                     0x080719cc   Data          28  ampm_gsm_sms.o(.constdata)
    smsRecvCmdProcess_01                     0x080719e8   Data          28  ampm_gsm_sms.o(.constdata)
    smsRecvCmdProcess_001                    0x08071a04   Data          28  ampm_gsm_sms.o(.constdata)
    smsRecvCmdProcess_0                      0x08071a20   Data          28  ampm_gsm_sms.o(.constdata)
    smsRecvCmdProcess_00                     0x08071a3c   Data          28  ampm_gsm_sms.o(.constdata)
    smsRecvCmdProcess_Start1                 0x08071a58   Data          28  ampm_gsm_sms.o(.constdata)
    smsRecvCmdProcess_Start                  0x08071a74   Data          28  ampm_gsm_sms.o(.constdata)
    smsSendCmd_AT_CSCA                       0x08071a90   Data          24  ampm_gsm_sms.o(.constdata)
    smsSendCmd_AT_CMGS                       0x08071aa8   Data          24  ampm_gsm_sms.o(.constdata)
    smsSendMessage                           0x08071ac0   Data          24  ampm_gsm_sms.o(.constdata)
    smsSendCmdProcess_end                    0x08071ad8   Data          28  ampm_gsm_sms.o(.constdata)
    smsSendCmdProcess_6                      0x08071af4   Data          28  ampm_gsm_sms.o(.constdata)
    smsSendCmdProcess_5                      0x08071b10   Data          28  ampm_gsm_sms.o(.constdata)
    smsSendCmdProcess_4                      0x08071b2c   Data          28  ampm_gsm_sms.o(.constdata)
    smsSendCmdProcess_3                      0x08071b48   Data          28  ampm_gsm_sms.o(.constdata)
    smsSendCmdProcess_CSCS                   0x08071b64   Data          28  ampm_gsm_sms.o(.constdata)
    smsSendCmdProcess_2                      0x08071b80   Data          28  ampm_gsm_sms.o(.constdata)
    smsSendCmdProcess_1                      0x08071b9c   Data          28  ampm_gsm_sms.o(.constdata)
    smsSendCmdProcess_0                      0x08071bb8   Data          28  ampm_gsm_sms.o(.constdata)
    smsSendCmdProcess_0_0                    0x08071bd4   Data          28  ampm_gsm_sms.o(.constdata)
    smsSendCmdProcess_Start                  0x08071bf0   Data          28  ampm_gsm_sms.o(.constdata)
    terminateStr                             0x08071c4c   Data           7  at_command_parser.o(.constdata)
    iotClientInitParamsDefault               0x08071d28   Data          48  aws_iot_mqtt_client.o(.constdata)
    iotMqttWillOptionsDefault                0x08071d58   Data          20  aws_iot_mqtt_client.o(.constdata)
    iotClientConnectParamsDefault            0x08071d6c   Data          56  aws_iot_mqtt_client.o(.constdata)
    ShadowInitParametersDefault              0x08071e20   Data          28  aws_iot_shadow.o(.constdata)
    ShadowConnectParametersDefault           0x08071e3c   Data          32  aws_iot_shadow.o(.constdata)
    AWS_IOT_ROOT_CA                          0x08071ebf   Data        1262  network_mbedtls_wrapper.o(.constdata)
    mbedtls_test_ca_crt_ec                   0x08074920   Data         883  certs.o(.constdata)
    mbedtls_test_ca_crt_ec_len               0x08074c94   Data           4  certs.o(.constdata)
    mbedtls_test_ca_key_ec                   0x08074c98   Data         362  certs.o(.constdata)
    mbedtls_test_ca_key_ec_len               0x08074e04   Data           4  certs.o(.constdata)
    mbedtls_test_ca_pwd_ec                   0x08074e08   Data          13  certs.o(.constdata)
    mbedtls_test_ca_pwd_ec_len               0x08074e18   Data           4  certs.o(.constdata)
    mbedtls_test_srv_crt_ec                  0x08074e1c   Data         813  certs.o(.constdata)
    mbedtls_test_srv_crt_ec_len              0x0807514c   Data           4  certs.o(.constdata)
    mbedtls_test_srv_key_ec                  0x08075150   Data         233  certs.o(.constdata)
    mbedtls_test_srv_key_ec_len              0x0807523c   Data           4  certs.o(.constdata)
    mbedtls_test_cli_crt_ec                  0x08075240   Data         829  certs.o(.constdata)
    mbedtls_test_cli_crt_ec_len              0x08075580   Data           4  certs.o(.constdata)
    mbedtls_test_cli_key_ec                  0x08075584   Data         233  certs.o(.constdata)
    mbedtls_test_cli_key_ec_len              0x08075670   Data           4  certs.o(.constdata)
    mbedtls_test_ca_crt_rsa                  0x08075674   Data        1307  certs.o(.constdata)
    mbedtls_test_ca_crt_rsa_len              0x08075b90   Data           4  certs.o(.constdata)
    mbedtls_test_ca_key_rsa                  0x080765ca   Data        1782  certs.o(.constdata)
    mbedtls_test_ca_key_rsa_len              0x08076cc0   Data           4  certs.o(.constdata)
    mbedtls_test_ca_pwd_rsa                  0x08076cc4   Data          13  certs.o(.constdata)
    mbedtls_test_ca_pwd_rsa_len              0x08076cd4   Data           4  certs.o(.constdata)
    mbedtls_test_srv_crt_rsa                 0x08076cd8   Data        1197  certs.o(.constdata)
    mbedtls_test_srv_crt_rsa_len             0x08077188   Data           4  certs.o(.constdata)
    mbedtls_test_srv_key_rsa                 0x0807718c   Data        1707  certs.o(.constdata)
    mbedtls_test_srv_key_rsa_len             0x08077838   Data           4  certs.o(.constdata)
    mbedtls_test_cli_crt_rsa                 0x0807783c   Data        1303  certs.o(.constdata)
    mbedtls_test_cli_crt_rsa_len             0x08077d54   Data           4  certs.o(.constdata)
    mbedtls_test_cli_key_rsa                 0x08077d58   Data        1707  certs.o(.constdata)
    mbedtls_test_cli_key_rsa_len             0x08078404   Data           4  certs.o(.constdata)
    mbedtls_test_cas_pem                     0x08078408   Data        3495  certs.o(.constdata)
    mbedtls_test_cas_pem_len                 0x080791b0   Data           4  certs.o(.constdata)
    mbedtls_test_cas_len                     0x080791b4   Data          16  certs.o(.constdata)
    mbedtls_test_ca_crt_len                  0x080791c4   Data           4  certs.o(.constdata)
    mbedtls_test_ca_key_len                  0x080791c8   Data           4  certs.o(.constdata)
    mbedtls_test_ca_pwd_len                  0x080791cc   Data           4  certs.o(.constdata)
    mbedtls_test_srv_crt_len                 0x080791d0   Data           4  certs.o(.constdata)
    mbedtls_test_srv_key_len                 0x080791d4   Data           4  certs.o(.constdata)
    mbedtls_test_cli_crt_len                 0x080791d8   Data           4  certs.o(.constdata)
    mbedtls_test_cli_key_len                 0x080791dc   Data           4  certs.o(.constdata)
    mbedtls_cipher_definitions               0x08079384   Data         104  cipher_wrap.o(.constdata)
    mbedtls_sha1_info                        0x0807a3b8   Data          48  md_wrap.o(.constdata)
    mbedtls_sha224_info                      0x0807a3e8   Data          48  md_wrap.o(.constdata)
    mbedtls_sha256_info                      0x0807a418   Data          48  md_wrap.o(.constdata)
    mbedtls_sha384_info                      0x0807a448   Data          48  md_wrap.o(.constdata)
    mbedtls_sha512_info                      0x0807a478   Data          48  md_wrap.o(.constdata)
    mbedtls_rsa_info                         0x0807a964   Data          48  pk_wrap.o(.constdata)
    mbedtls_eckey_info                       0x0807a994   Data          48  pk_wrap.o(.constdata)
    mbedtls_eckeydh_info                     0x0807a9c4   Data          48  pk_wrap.o(.constdata)
    mbedtls_ecdsa_info                       0x0807a9f4   Data          48  pk_wrap.o(.constdata)
    mbedtls_rsa_alt_info                     0x0807aa24   Data          48  pk_wrap.o(.constdata)
    mbedtls_x509_crt_profile_default         0x0807ba8c   Data          16  x509_crt.o(.constdata)
    mbedtls_x509_crt_profile_next            0x0807ba9c   Data          16  x509_crt.o(.constdata)
    mbedtls_x509_crt_profile_suiteb          0x0807baac   Data          16  x509_crt.o(.constdata)
    os_mutex_def_lwip_sys_mutex              0x0807bba8   Data           4  lwip_sys_arch.o(.constdata)
    memp_UDP_PCB                             0x0807bbb4   Data          20  lwip_memp.o(.constdata)
    memp_TCP_PCB                             0x0807bbc8   Data          20  lwip_memp.o(.constdata)
    memp_TCP_PCB_LISTEN                      0x0807bbdc   Data          20  lwip_memp.o(.constdata)
    memp_TCP_SEG                             0x0807bbf0   Data          20  lwip_memp.o(.constdata)
    memp_REASSDATA                           0x0807bc04   Data          20  lwip_memp.o(.constdata)
    memp_FRAG_PBUF                           0x0807bc18   Data          20  lwip_memp.o(.constdata)
    memp_NETBUF                              0x0807bc2c   Data          20  lwip_memp.o(.constdata)
    memp_NETCONN                             0x0807bc40   Data          20  lwip_memp.o(.constdata)
    memp_TCPIP_MSG_API                       0x0807bc54   Data          20  lwip_memp.o(.constdata)
    memp_TCPIP_MSG_INPKT                     0x0807bc68   Data          20  lwip_memp.o(.constdata)
    memp_IGMP_GROUP                          0x0807bc7c   Data          20  lwip_memp.o(.constdata)
    memp_SYS_TIMEOUT                         0x0807bc90   Data          20  lwip_memp.o(.constdata)
    memp_NETDB                               0x0807bca4   Data          20  lwip_memp.o(.constdata)
    memp_PBUF                                0x0807bcb8   Data          20  lwip_memp.o(.constdata)
    memp_PBUF_POOL                           0x0807bccc   Data          20  lwip_memp.o(.constdata)
    memp_pools                               0x0807bce0   Data          60  lwip_memp.o(.constdata)
    tcp_pcb_lists                            0x0807be5c   Data          16  lwip_tcp.o(.constdata)
    lwip_cyclic_timers                       0x0807be6c   Data          32  lwip_timeouts.o(.constdata)
    ip_addr_any                              0x0807be8c   Data           4  lwip_ip4_addr.o(.constdata)
    ip_addr_broadcast                        0x0807be90   Data           4  lwip_ip4_addr.o(.constdata)
    md5_digest                               0x0807be94   Data          16  lwip_chap-md5.o(.constdata)
    chap_protent                             0x0807beac   Data          32  lwip_chap-new.o(.constdata)
    ipcp_protent                             0x0807bf08   Data          32  lwip_ipcp.o(.constdata)
    lcp_protent                              0x0807bf64   Data          32  lwip_lcp.o(.constdata)
    memp_PPP_PCB                             0x0807bf84   Data          20  lwip_ppp.o(.constdata)
    protocols                                0x0807bf98   Data          16  lwip_ppp.o(.constdata)
    memp_PPPOS_PCB                           0x0807bfa8   Data          20  lwip_pppos.o(.constdata)
    __ctype_table                            0x0807c21c   Data         129  ctype_o.o(.constdata)
    Region$$Table$$Base                      0x0807f080   Number         0  anon$$obj.o(Region$$Table)
    Region$$Table$$Limit                     0x0807f0b0   Number         0  anon$$obj.o(Region$$Table)
    ucHeap                                   0x10000000   Data       63488  main.o(osRam)
    sysCfg                                   0x1000f800   Data        1428  system_config.o(osRam)
    deviceIoStatus                           0x1000fd94   Data         144  system_config.o(osRam)
    sst25buf                                 0x1000fe24   Data         256  sst25.o(osRam)
    fSendBuff                                0x1000ff24   Data          64  ota_backup_server.o(osRam)
    variableNoInit                           0x1000ff80   Data          12  system_config.o(.ARM.__AT_0x1000FF80)
    pxCurrentTCB                             0x20000024   Data           4  tasks.o(.data)
    _daylight                                0x20000068   Data           4  m_time.o(.data)
    _dstbias                                 0x2000006c   Data           4  m_time.o(.data)
    _timezone                                0x20000070   Data           4  m_time.o(.data)
    sysTickTimeSec                           0x20000078   Data           4  sys_tick.o(.data)
    sysTickCounter32                         0x2000007c   Data           4  sys_tick.o(.data)
    sysTickCounter64                         0x20000080   Data           8  sys_tick.o(.data)
    sysTime                                  0x20000088   Data           8  sys_time.o(.data)
    localTime                                0x20000090   Data           8  sys_time.o(.data)
    rtcTimeSec                               0x20000098   Data           4  sys_time.o(.data)
    timeZone                                 0x2000009c   Data           4  sys_time.o(.data)
    sysTimeZone                              0x200000a0   Data           4  sys_time.o(.data)
    rtcUpdateFlag                            0x200000a4   Data           4  sys_time.o(.data)
    rtcUpdateCnt                             0x200000a8   Data           4  sys_time.o(.data)
    uwTick                                   0x200000ac   Data           4  stm32f4xx_hal.o(.data)
    SystemCoreClock                          0x200000b0   Data           4  system_stm32f4xx.o(.data)
    sDate                                    0x200000b4   Data           4  main.o(.data)
    defaultTaskHandle                        0x200000b8   Data           4  main.o(.data)
    putc_sem_id                              0x200000bc   Data           4  main.o(.data)
    mprintf_sem_id                           0x200000c0   Data           4  main.o(.data)
    aws_sem_id                               0x200000c4   Data           4  main.o(.data)
    life_span                                0x200000c8   Data           4  main.o(.data)
    rtcCallbackCnt                           0x200000cc   Data           4  main.o(.data)
    sysResetMcuFlag                          0x200000d4   Data           1  system_config.o(.data)
    flagSystemStatus                         0x200000d5   Data           1  system_config.o(.data)
    flagSystemStatusUpdate                   0x200000d6   Data           1  system_config.o(.data)
    config_sem_id                            0x200000d8   Data           4  system_config.o(.data)
    cmds                                     0x200000dc   Data           8  shadow_thing.o(.data)
    sendReportFlag                           0x200000e4   Data           1  shadow_thing.o(.data)
    sendParamFlag                            0x200000e5   Data           1  shadow_thing.o(.data)
    shadow_sem_id                            0x200000e8   Data           4  shadow_thing.o(.data)
    checkMemoryCnt                           0x200000ec   Data           4  shadow_thing.o(.data)
    mbed_buf                                 0x200000f0   Data           4  shadow_thing.o(.data)
    shadow_thing_fail_times                  0x200000f4   Data           4  shadow_thing.o(.data)
    shadowMsgBusyTimeout                     0x200000f8   Data           1  shadow_thing.o(.data)
    shadow_thing_need_a_system_restart_cnt   0x200000fc   Data           4  shadow_thing.o(.data)
    thread_id                                0x20000100   Data           4  ntp_server.o(.data)
    ntp_socket                               0x20000104   Data           4  ntp_server.o(.data)
    rtcGetNewTimeFlag                        0x20000108   Data           1  ntp_server.o(.data)
    test_stream                              0x2000010c   Data           4  smartlight.o(.data)
    res                                      0x20000110   Data           4  smartlight.o(.data)
    smartLightMainCnt                        0x20000114   Data           4  smartlight.o(.data)
    watchdogSecCnt                           0x20000118   Data           4  watchdog.o(.data)
    watchdog_sem_id                          0x2000011c   Data           4  watchdog.o(.data)
    watchdogQueue                            0x20000120   Data           4  watchdog.o(.data)
    watchdog_thread_id                       0x20000124   Data           4  watchdog.o(.data)
    osWatchdogCnt                            0x20000128   Data           8  watchdog.o(.data)
    osWatchdogFeed                           0x20000130   Data           8  watchdog.o(.data)
    osWatchdogCntValueMax                    0x20000138   Data           8  watchdog.o(.data)
    osWatchdogSecCnt                         0x20000140   Data           4  watchdog.o(.data)
    osWatchdogEnable                         0x20000144   Data           8  watchdog.o(.data)
    inCallFlag                               0x2000014c   Data           1  sms_task.o(.data)
    incomingCallProcessTimeout               0x2000014d   Data           1  sms_task.o(.data)
    smsSendRelaySetByCallFlag                0x2000014e   Data           1  sms_task.o(.data)
    smsSendingCallIndex                      0x2000014f   Data           1  sms_task.o(.data)
    power_good_low_cnt                       0x20000150   Data           4  sms_task.o(.data)
    power_good_high_cnt                      0x20000154   Data           4  sms_task.o(.data)
    sst25_sem_id                             0x20000158   Data           4  sst25.o(.data)
    countErrTemp                             0x2000015c   Data           4  sst25.o(.data)
    writeErrCnt                              0x20000160   Data           4  sst25.o(.data)
    io_control_sem_id                        0x20000164   Data           4  io_control.o(.data)
    ota_backup_thread_id                     0x20000168   Data           4  ota_backup_server.o(.data)
    ota_buf                                  0x20000170   Data           4  ota_backup_server.o(.data)
    powerSensorTimeCnt                       0x20000174   Data           4  power_sensor.o(.data)
    sentFlag                                 0x20000178   Data           1  power_sensor.o(.data)
    flagSendToServer                         0x20000179   Data           1  power_sensor.o(.data)
    sensor_thread_id                         0x2000017c   Data           4  power_sensor.o(.data)
    checkPowerSensorTimeout                  0x20000180   Data           1  power_sensor.o(.data)
    m_buffer_rb_len                          0x20000184   Data           1  elster_tasks.o(.data)
    packetsHistory                           0x20000185   Data           1  elster_tasks.o(.data)
    fre_sect                                 0x20000188   Data           4  elster_tasks.o(.data)
    ampm_f_close_flag                        0x2000018c   Data           1  elster_tasks.o(.data)
    meterTime                                0x2000018d   Data           8  elster_tasks.o(.data)
    dataSaveTo                               0x20000195   Data           1  elster_tasks.o(.data)
    fileName                                 0x20000196   Data           1  elster_tasks.o(.data)
    readFromFlash                            0x20000197   Data           1  elster_tasks.o(.data)
    powerOnReadCnt                           0x20000198   Data           1  elster_tasks.o(.data)
    meterReadTypeCmd                         0x20000199   Data           1  elster_tasks.o(.data)
    meterReadFlag                            0x2000019a   Data           1  elster_tasks.o(.data)
    meterElsterPhase                         0x2000019b   Data           1  elster_tasks.o(.data)
    pauseReadMeterTime                       0x2000019c   Data           2  elster_tasks.o(.data)
    historyLength                            0x200001a8   Data           2  elster_tasks.o(.data)
    elsteWriterCmd7                          0x200001ac   Data          20  elster_tasks.o(.data)
    elsteWriterCmd23                         0x200001c0   Data          20  elster_tasks.o(.data)
    elsteWriterCmd37                         0x200001d4   Data          20  elster_tasks.o(.data)
    elsterCmdPhase                           0x200001e8   Data           1  elster_tasks.o(.data)
    elsterSendCmd                            0x200001ec   Data           8  elster_tasks.o(.data)
    elsterCmdTimeoutCount                    0x200001f4   Data           1  elster_tasks.o(.data)
    meterElsterReadOk                        0x200001f5   Data           1  elster_tasks.o(.data)
    elsterResOk                              0x200001f6   Data           4  elster_tasks.o(.data)
    elsterReadParaTryNum                     0x200001fa   Data           1  elster_tasks.o(.data)
    USART1_RxTail                            0x200001fc   Data           4  uart1.o(.data)
    UART5_RxTail                             0x20000204   Data           4  uart5.o(.data)
    UART4_RxTail                             0x2000020c   Data           4  uart4.o(.data)
    UART4_Parity                             0x20000210   Data           4  uart4.o(.data)
    USART6_RxTail                            0x20000218   Data           4  uart6.o(.data)
    app_config_sem_id                        0x20000220   Data           4  app_config_task.o(.data)
    firmwareFileCrc                          0x20000224   Data           4  app_config_task.o(.data)
    firmwareFileSize                         0x20000228   Data           4  app_config_task.o(.data)
    firmwareFileOffSet                       0x2000022c   Data           4  app_config_task.o(.data)
    firmwareFileOffSetOld                    0x20000230   Data           4  app_config_task.o(.data)
    firmwareSendFileOffSetFlag               0x20000234   Data           4  app_config_task.o(.data)
    firmwareSaveFileOffsetCnt                0x20000238   Data           4  app_config_task.o(.data)
    firmwareStatus                           0x2000023c   Data           4  app_config_task.o(.data)
    logSource                                0x20000240   Data           1  app_config_task.o(.data)
    uart5DataHead                            0x20000244   Data           4  uart_config_task.o(.data)
    uart4DataHead                            0x20000248   Data           4  uart_config_task.o(.data)
    uart5_config_enable                      0x2000024c   Data           4  uart_config_task.o(.data)
    uart5_config_timeout                     0x20000250   Data           4  uart_config_task.o(.data)
    alarmFlag                                0x20000254   Data           1  alarm.o(.data)
    testIo                                   0x20000255   Data           1  alarm.o(.data)
    relay_sem_id                             0x20000258   Data           4  relay.o(.data)
    voiceCall                                0x20000264   Data           4  ampm_gsm_call.o(.data)
    callTaskFailCnt                          0x20000268   Data           1  ampm_gsm_call.o(.data)
    gotListOfCurrentCall                     0x20000269   Data           1  ampm_gsm_call.o(.data)
    callListIsEmpty                          0x2000026a   Data           1  ampm_gsm_call.o(.data)
    ceerId                                   0x2000026c   Data           2  ampm_gsm_call.o(.data)
    gotCeerId                                0x2000026e   Data           1  ampm_gsm_call.o(.data)
    callDelayTime                            0x2000026f   Data           1  ampm_gsm_call.o(.data)
    callTaskIsRunningCnt                     0x20000270   Data           1  ampm_gsm_call.o(.data)
    ampm_GotIncomingNumberFlag               0x20000271   Data           1  ampm_gsm_call.o(.data)
    csqValue                                 0x2000027c   Data           4  ampm_gsm_common.o(.data)
    gsmSignal                                0x20000280   Data           1  ampm_gsm_common.o(.data)
    s_signal_dbm                             0x20000281   Data           1  ampm_gsm_common.o(.data)
    ampm_ModemResetFlag                      0x20000282   Data           1  ampm_gsm_common.o(.data)
    s_rssi_dBm                               0x20000283   Data          32  ampm_gsm_common.o(.data)
    dialupTryCnt                             0x200002a3   Data           1  ampm_gsm_dial_up.o(.data)
    ampmGsmDialupPhase                       0x200002a4   Data           1  ampm_gsm_dial_up.o(.data)
    modemOk                                  0x200002a8   Data           4  ampm_gsm_io.o(.data)
    modemError                               0x200002ac   Data           4  ampm_gsm_io.o(.data)
    ampm_GSM_AtCmd                           0x200002b0   Data           4  ampm_gsm_io.o(.data)
    ampm_GprsApn                             0x200002b4   Data           4  ampm_gsm_io.o(.data)
    ampm_GSM_CmdList_list                    0x200002b8   Data           4  ampm_gsm_io.o(.data)
    ampm_GSM_CmdList                         0x200002bc   Data           4  ampm_gsm_io.o(.data)
    ampm_GSM_CmdPhase                        0x200002c0   Data           1  ampm_gsm_io.o(.data)
    ampm_CmdParsedChar                       0x200002c1   Data           1  ampm_gsm_io.o(.data)
    ampm_AtProcessCmd                        0x200002c4   Data           8  ampm_gsm_io.o(.data)
    gotoCmdModeFlag                          0x200002cc   Data           1  ampm_gsm_io.o(.data)
    gotoDataModeFlag                         0x200002cd   Data           1  ampm_gsm_io.o(.data)
    ampmGsmPPPTryCnt                         0x200002d0   Data           1  ampm_gsm_main_task.o(.data)
    smsCheckInterval                         0x200002d4   Data           4  ampm_gsm_main_task.o(.data)
    pppUser                                  0x200002d8   Data           4  ampm_gsm_main_task.o(.data)
    pppPass                                  0x200002dc   Data           4  ampm_gsm_main_task.o(.data)
    thisPPP                                  0x200002e0   Data           4  ampm_gsm_main_task.o(.data)
    dataSendingTimeout                       0x200002e4   Data           1  ampm_gsm_main_task.o(.data)
    ampm_GSM_mode                            0x200002e5   Data           1  ampm_gsm_main_task.o(.data)
    ampmGSM_TaskPhase                        0x200002e6   Data           1  ampm_gsm_main_task.o(.data)
    sysGsmTime                               0x200002e7   Data           8  ampm_gsm_main_task.o(.data)
    gsmGetTimeFlag                           0x200002ef   Data           1  ampm_gsm_main_task.o(.data)
    sysGsmTimezone                           0x200002f0   Data           4  ampm_gsm_main_task.o(.data)
    ampmGsm1SecCnt                           0x200002f4   Data           4  ampm_gsm_main_task.o(.data)
    gsmMainTaskTryCnt                        0x200002f8   Data           1  ampm_gsm_main_task.o(.data)
    imeiValue                                0x20000300   Data           8  ampm_gsm_main_task.o(.data)
    gsmStatus                                0x20000308   Data           1  ampm_gsm_main_task.o(.data)
    smsBusyCnt                               0x2000030a   Data           2  ampm_gsm_main_task.o(.data)
    smsNotBusyCnt                            0x2000030c   Data           2  ampm_gsm_main_task.o(.data)
    Ampm_TcpIpCallback                       0x20000310   Data           4  ampm_gsm_main_task.o(.data)
    Ampm_TcpIpInit                           0x20000314   Data           4  ampm_gsm_main_task.o(.data)
    ppp_status                               0x20000318   Data           1  ampm_gsm_main_task.o(.data)
    ampmGsmModuleType                        0x20000319   Data           1  ampm_gsm_main_task.o(.data)
    ampm_MissCall                            0x20000320   Data           1  ampm_gsm_ring.o(.data)
    ampm_NewSmsFlag                          0x20000321   Data           1  ampm_gsm_ring.o(.data)
    ampm_RingingFlagTimes                    0x20000322   Data           1  ampm_gsm_ring.o(.data)
    ampm_RingingFlag                         0x20000323   Data           1  ampm_gsm_ring.o(.data)
    ampm_RingingTime                         0x20000324   Data           1  ampm_gsm_ring.o(.data)
    ampm_RingingPauseTime                    0x20000325   Data           1  ampm_gsm_ring.o(.data)
    smsCheckTimerCnt                         0x20000328   Data           4  ampm_gsm_ring.o(.data)
    smsCheckTimeInterval                     0x2000032c   Data           4  ampm_gsm_ring.o(.data)
    smsCheckTimes                            0x20000330   Data           1  ampm_gsm_ring.o(.data)
    ampm_RingingPhase                        0x20000331   Data           1  ampm_gsm_ring.o(.data)
    ampmGsmSmsMutexId                        0x20000334   Data           4  ampm_gsm_sms.o(.data)
    smsMsg                                   0x20000340   Data           4  ampm_gsm_sms.o(.data)
    smsNewMessageFlag                        0x20000344   Data           1  ampm_gsm_sms.o(.data)
    pdu_len_except_smsc                      0x20000345   Data           1  ampm_gsm_sms.o(.data)
    pdu_len                                  0x20000346   Data           2  ampm_gsm_sms.o(.data)
    Ampm_SmsRecvCallback                     0x20000348   Data           4  ampm_gsm_sms.o(.data)
    smsCancelAll                             0x2000034c   Data           1  ampm_gsm_sms.o(.data)
    flagSmsReadFinish                        0x2000034d   Data           1  ampm_gsm_sms.o(.data)
    getServiceCenterNumber                   0x2000034e   Data           1  ampm_gsm_sms.o(.data)
    smsTaskFailCnt                           0x2000034f   Data           1  ampm_gsm_sms.o(.data)
    readTryCnt                               0x20000350   Data           1  ampm_gsm_sms.o(.data)
    smsIndex                                 0x20000352   Data           2  ampm_gsm_sms.o(.data)
    smsTryCnt                                0x20000354   Data           1  ampm_gsm_sms.o(.data)
    flagGotSimCIMI                           0x20000384   Data           1  ampm_gsm_startup.o(.data)
    modemCIMIPass                            0x20000385   Data           1  ampm_gsm_startup.o(.data)
    flagGotSimCID                            0x20000386   Data           1  ampm_gsm_startup.o(.data)
    modemCIDPass                             0x20000387   Data           1  ampm_gsm_startup.o(.data)
    flagServerUpdateSimCID                   0x20000388   Data           1  ampm_gsm_startup.o(.data)
    flagGotSimCPOS                           0x20000389   Data           1  ampm_gsm_startup.o(.data)
    modemCPOSPass                            0x2000038a   Data           1  ampm_gsm_startup.o(.data)
    flagGotIMEI                              0x2000038b   Data           1  ampm_gsm_startup.o(.data)
    newIMEI_IsUpdate                         0x2000038c   Data           1  ampm_gsm_startup.o(.data)
    modemIMEIPass                            0x2000038d   Data           1  ampm_gsm_startup.o(.data)
    modemJustPowerOff                        0x2000038e   Data           1  ampm_gsm_startup.o(.data)
    ampm_AtGsmCmdStart_pt                    0x20000390   Data           4  ampm_gsm_startup.o(.data)
    ampm_GSM_StartupPhase                    0x20000394   Data           1  ampm_gsm_startup.o(.data)
    ampm_gsm_baudrate_index                  0x20000395   Data           1  ampm_gsm_startup.o(.data)
    gsmBaudrateSaved                         0x20000398   Data           4  ampm_gsm_startup.o(.data)
    ampm_AtCommandParserEnable               0x200003a0   Data           1  at_command_parser.o(.data)
    commandSeparator                         0x200003a4   Data           4  at_command_parser.o(.data)
    cmdCnt                                   0x200003a8   Data           8  at_command_parser.o(.data)
    comm_initialized                         0x200003b4   Data           1  comm.o(.data)
    pMqttClient                              0x200003bc   Data           4  aws_iot_shadow_records.o(.data)
    shadowJsonVersionNum                     0x200003c8   Data           4  aws_iot_shadow_records.o(.data)
    shadowDiscardOldDeltaFlag                0x200003cc   Data           1  aws_iot_shadow_records.o(.data)
    mbedtls_test_cas                         0x200003d0   Data          16  certs.o(.data)
    mbedtls_test_ca_crt                      0x200003e0   Data           4  certs.o(.data)
    mbedtls_test_ca_key                      0x200003e4   Data           4  certs.o(.data)
    mbedtls_test_ca_pwd                      0x200003e8   Data           4  certs.o(.data)
    mbedtls_test_srv_crt                     0x200003ec   Data           4  certs.o(.data)
    mbedtls_test_srv_key                     0x200003f0   Data           4  certs.o(.data)
    mbedtls_test_cli_crt                     0x200003f4   Data           4  certs.o(.data)
    mbedtls_test_cli_key                     0x200003f8   Data           4  certs.o(.data)
    mbedtls_calloc                           0x20000424   Data           4  platform.o(.data)
    mbedtls_free                             0x20000428   Data           4  platform.o(.data)
    mbedtls_exit                             0x2000042c   Data           4  platform.o(.data)
    netconn_aborted                          0x2000047b   Data           1  lwip_api_msg.o(.data)
    h_errno                                  0x200004c0   Data           4  lwip_netdb.o(.data)
    lock_tcpip_core                          0x200004e8   Data           4  lwip_tcpip.o(.data)
    errno                                    0x200004ec   Data           4  lwip_sys_arch.o(.data)
    lwip_sys_mutex                           0x200004f0   Data           4  lwip_sys_arch.o(.data)
    memp_memory_TCP_PCB_LISTEN_base          0x20000524   Data           3  lwip_memp.o(.data)
    netif_list                               0x2000055c   Data           4  lwip_netif.o(.data)
    netif_default                            0x20000560   Data           4  lwip_netif.o(.data)
    tcp_ticks                                0x2000056c   Data           4  lwip_tcp.o(.data)
    tcp_bound_pcbs                           0x20000570   Data           4  lwip_tcp.o(.data)
    tcp_listen_pcbs                          0x20000574   Data           4  lwip_tcp.o(.data)
    tcp_active_pcbs                          0x20000578   Data           4  lwip_tcp.o(.data)
    tcp_tw_pcbs                              0x2000057c   Data           4  lwip_tcp.o(.data)
    tcp_active_pcbs_changed                  0x20000580   Data           1  lwip_tcp.o(.data)
    tcp_input_pcb                            0x200005a8   Data           4  lwip_tcp_in.o(.data)
    udp_pcbs                                 0x200005bc   Data           4  lwip_udp.o(.data)
    __stdin                                  0x2000063c   Data           4  stdin.o(.data)
    __stdout                                 0x20000640   Data           4  stdout.o(.data)
    __stderr                                 0x20000644   Data           4  stderr.o(.data)
    __microlib_freelist                      0x2000064c   Data           4  mvars.o(.data)
    __microlib_freelist_initialised          0x20000650   Data           4  mvars.o(.data)
    xQueueRegistry                           0x20000658   Data          64  queue.o(.bss)
    pFlash                                   0x20000788   Data          32  stm32f4xx_hal_flash.o(.bss)
    htim1                                    0x200007a8   Data          60  stm32f4xx_hal_timebase_tim.o(.bss)
    hadc1                                    0x200007e4   Data          72  main.o(.bss)
    hdma_adc1                                0x2000082c   Data          96  main.o(.bss)
    hiwdg                                    0x2000088c   Data          12  main.o(.bss)
    hrng                                     0x20000898   Data          12  main.o(.bss)
    hrtc                                     0x200008a4   Data          32  main.o(.bss)
    sTime                                    0x200008c4   Data          20  main.o(.bss)
    hspi1                                    0x200008d8   Data          88  main.o(.bss)
    huart4                                   0x20000930   Data          64  main.o(.bss)
    huart5                                   0x20000970   Data          64  main.o(.bss)
    huart1                                   0x200009b0   Data          64  main.o(.bss)
    huart2                                   0x200009f0   Data          64  main.o(.bss)
    huart3                                   0x20000a30   Data          64  main.o(.bss)
    huart6                                   0x20000a70   Data          64  main.o(.bss)
    hdma_uart4_rx                            0x20000ab0   Data          96  main.o(.bss)
    hdma_uart4_tx                            0x20000b10   Data          96  main.o(.bss)
    hdma_uart5_tx                            0x20000b70   Data          96  main.o(.bss)
    hdma_uart5_rx                            0x20000bd0   Data          96  main.o(.bss)
    hdma_usart1_tx                           0x20000c30   Data          96  main.o(.bss)
    hdma_usart1_rx                           0x20000c90   Data          96  main.o(.bss)
    hdma_usart2_rx                           0x20000cf0   Data          96  main.o(.bss)
    hdma_usart2_tx                           0x20000d50   Data          96  main.o(.bss)
    hdma_usart3_rx                           0x20000db0   Data          96  main.o(.bss)
    hdma_usart3_tx                           0x20000e10   Data          96  main.o(.bss)
    hdma_usart6_rx                           0x20000e70   Data          96  main.o(.bss)
    hdma_usart6_tx                           0x20000ed0   Data          96  main.o(.bss)
    deviceCfg                                0x20000f30   Data         642  system_config.o(.bss)
    EraseInitStruct                          0x200011b4   Data          20  system_config.o(.bss)
    tUpdateInterval                          0x200011d4   Data          12  shadow_thing.o(.bss)
    tUpdateParamInterval                     0x200011e0   Data          12  shadow_thing.o(.bss)
    ntp_packet                               0x200011ec   Data          48  ntp_server.o(.bss)
    watchdogEnable                           0x2000121c   Data          12  watchdog.o(.bss)
    watchdogCnt                              0x20001228   Data          12  watchdog.o(.bss)
    watchdogFeed                             0x20001234   Data          12  watchdog.o(.bss)
    imcommingPhoneNo                         0x20001240   Data          16  sms_task.o(.bss)
    io_network_led                           0x20001250   Data          24  led.o(.bss)
    io_debug_led                             0x20001268   Data          24  led.o(.bss)
    tFrimwareUpdateTimeout                   0x20001280   Data          12  ota_backup_server.o(.bss)
    fdummySendPacket                         0x2000128c   Data          12  ota_backup_server.o(.bss)
    powerLine1                               0x20001298   Data          32  power_sensor.o(.bss)
    powerLine2                               0x200012b8   Data          32  power_sensor.o(.bss)
    powerLine3                               0x200012d8   Data          32  power_sensor.o(.bss)
    powerLine4                               0x200012f8   Data          32  power_sensor.o(.bss)
    m_buffer_rb                              0x20001318   Data         255  elster_tasks.o(.bss)
    m_buffer_tb                              0x20001417   Data         255  elster_tasks.o(.bss)
    meter_P2                                 0x20001516   Data           9  elster_tasks.o(.bss)
    meter_P0                                 0x2000151f   Data           9  elster_tasks.o(.bss)
    meterType                                0x20001528   Data          16  elster_tasks.o(.bss)
    currentValue                             0x20001538   Data         144  elster_tasks.o(.bss)
    instantaneousValue                       0x200015c8   Data          60  elster_tasks.o(.bss)
    cmdElsterSend                            0x20001604   Data          20  elster_tasks.o(.bss)
    elsterCmdListGroup0                      0x20001618   Data         304  elster_tasks.o(.bss)
    elsterCmdListRead0                       0x20001748   Data          80  elster_tasks.o(.bss)
    elsterCmdListRead1                       0x20001798   Data         200  elster_tasks.o(.bss)
    elsterCmdListRead2                       0x20001860   Data         208  elster_tasks.o(.bss)
    tElsterTimeout                           0x20001930   Data          12  elster_tasks.o(.bss)
    tElsterCmdTimeout                        0x2000193c   Data          12  elster_tasks.o(.bss)
    tElsterReadParaTimeout                   0x20001948   Data          12  elster_tasks.o(.bss)
    tElsterPhaseTimeout                      0x20001954   Data          12  elster_tasks.o(.bss)
    cmpElsterCmpOk                           0x20001960   Data          12  elster_tasks.o(.bss)
    r1_xxxxxxCmd                             0x2000196c   Data          16  elster_tasks.o(.bss)
    r1_xxxxxxWriteFlash                      0x2000197c   Data          16  elster_tasks.o(.bss)
    elsterWriteCmd2                          0x2000198c   Data          16  elster_tasks.o(.bss)
    USART1_TxBuff                            0x20001a9c   Data         512  uart1.o(.bss)
    USART1_TxRingBuff                        0x20001c9c   Data          16  uart1.o(.bss)
    USART1_DMATxBuff                         0x20001cac   Data         512  uart1.o(.bss)
    USART1_DMARxBuff                         0x20001eac   Data         512  uart1.o(.bss)
    UART5_TxBuff                             0x200020ac   Data         256  uart5.o(.bss)
    UART5_TxRingBuff                         0x200021ac   Data          16  uart5.o(.bss)
    UART5_DMATxBuff                          0x200021bc   Data         256  uart5.o(.bss)
    UART5_DMARxBuff                          0x200022bc   Data         600  uart5.o(.bss)
    UART4_TxBuff                             0x20002514   Data         256  uart4.o(.bss)
    UART4_TxRingBuff                         0x20002614   Data          16  uart4.o(.bss)
    UART4_DMATxBuff                          0x20002624   Data         256  uart4.o(.bss)
    UART4_DMARxBuff                          0x20002724   Data         600  uart4.o(.bss)
    USART6_TxBuff                            0x2000297c   Data         256  uart6.o(.bss)
    USART6_TxRingBuff                        0x20002a7c   Data          16  uart6.o(.bss)
    USART6_DMATxBuff                         0x20002a8c   Data         256  uart6.o(.bss)
    USART6_DMARxBuff                         0x20002b8c   Data         256  uart6.o(.bss)
    tFirmwareTryToUpdate                     0x20002c8c   Data          12  app_config_task.o(.bss)
    UART_ProtoRecv                           0x20002c98   Data          16  uart_config_task.o(.bss)
    UART_ProtoSend                           0x20002ca8   Data          16  uart_config_task.o(.bss)
    UART_DataBuff                            0x20002cb8   Data         516  uart_config_task.o(.bss)
    UART_parserPacket                        0x20002ebc   Data          10  uart_config_task.o(.bss)
    checkUart                                0x20002ec8   Data          12  uart_config_task.o(.bss)
    incomingCall                             0x20002ed4   Data          32  ampm_gsm_call.o(.bss)
    listOfCurrentCall                        0x20002ef4   Data         128  ampm_gsm_call.o(.bss)
    callTimeout                              0x20002f74   Data          12  ampm_gsm_call.o(.bss)
    callAlertingTimeout                      0x20002f80   Data          12  ampm_gsm_call.o(.bss)
    tCallDelayTimeout                        0x20002f8c   Data          12  ampm_gsm_call.o(.bss)
    ampm_IncomingCallPhoneNo                 0x20002f98   Data          16  ampm_gsm_call.o(.bss)
    csqBuff                                  0x20002fa8   Data          16  ampm_gsm_common.o(.bss)
    cengBuff                                 0x20002fb8   Data         128  ampm_gsm_common.o(.bss)
    dialupTimeout                            0x20003038   Data          12  ampm_gsm_dial_up.o(.bss)
    ampmGSM_CmdSend                          0x20003044   Data          28  ampm_gsm_io.o(.bss)
    ampm_GSM_TaskTimeout                     0x20003060   Data          12  ampm_gsm_io.o(.bss)
    ampmCommonAppStruct                      0x2000306c   Data          24  ampm_gsm_io.o(.bss)
    ampmAtCmdBuf                             0x20003084   Data         256  ampm_gsm_io.o(.bss)
    ampmGSM_CmdOk                            0x20003184   Data          12  ampm_gsm_io.o(.bss)
    ampmGSM_CmdFails                         0x20003190   Data          12  ampm_gsm_io.o(.bss)
    ampm_AtCallBackParser                    0x2000319c   Data          16  ampm_gsm_io.o(.bss)
    pppStdin                                 0x2000322c   Data          24  ampm_gsm_main_task.o(.bss)
    pppStdout                                0x20003244   Data          24  ampm_gsm_main_task.o(.bss)
    pppBufIn                                 0x2000325c   Data         128  ampm_gsm_main_task.o(.bss)
    pppBufOut                                0x200032dc   Data         128  ampm_gsm_main_task.o(.bss)
    tAmpmMainTimeoutTask                     0x2000335c   Data          12  ampm_gsm_main_task.o(.bss)
    tRingTask                                0x20003368   Data          12  ampm_gsm_main_task.o(.bss)
    cmpBGS2_W                                0x20003374   Data          12  ampm_gsm_main_task.o(.bss)
    cmpBGS2_E                                0x20003380   Data          12  ampm_gsm_main_task.o(.bss)
    cmpBGS1_E                                0x2000338c   Data          12  ampm_gsm_main_task.o(.bss)
    cmpBG2_E                                 0x20003398   Data          12  ampm_gsm_main_task.o(.bss)
    cmpM95                                   0x200033a4   Data          12  ampm_gsm_main_task.o(.bss)
    cmpM26                                   0x200033b0   Data          12  ampm_gsm_main_task.o(.bss)
    cmpUbloxG100                             0x200033bc   Data          12  ampm_gsm_main_task.o(.bss)
    cmp                                      0x200033c8   Data          12  ampm_gsm_main_task.o(.bss)
    cmpSIM900                                0x200033d4   Data          12  ampm_gsm_main_task.o(.bss)
    tSmsTaskTimeOut                          0x200033e0   Data          12  ampm_gsm_sms.o(.bss)
    smsUnreadBuff                            0x200033ec   Data          32  ampm_gsm_sms.o(.bss)
    smsUnreadRingBuff                        0x2000340c   Data          16  ampm_gsm_sms.o(.bss)
    smsSender                                0x2000341c   Data          16  ampm_gsm_sms.o(.bss)
    smsDataBuf                               0x2000342c   Data         256  ampm_gsm_sms.o(.bss)
    serviceCenterNumber                      0x2000352c   Data          16  ampm_gsm_sms.o(.bss)
    gsmSimCIMIBuf                            0x2000353c   Data          32  ampm_gsm_startup.o(.bss)
    gsmSimCIDBuf                             0x2000355c   Data          32  ampm_gsm_startup.o(.bss)
    gsmSimCPOSBuf                            0x2000357c   Data          32  ampm_gsm_startup.o(.bss)
    gsmIMEIBuf                               0x2000359c   Data          18  ampm_gsm_startup.o(.bss)
    tAmpm_GsmStartupTaskDelay                0x200035b0   Data          12  ampm_gsm_startup.o(.bss)
    at_cmd                                   0x200035bc   Data         180  ampm_gsm_startup.o(.bss)
    AT_CmdParser                             0x20003670   Data          16  at_command_parser.o(.bss)
    COMM_RxBuff                              0x20003690   Data         512  comm.o(.bss)
    COMM_RxRingBuff                          0x20003890   Data          16  comm.o(.bss)
    AckWaitList                              0x200051ac   Data        1360  aws_iot_shadow_records.o(.bss)
    myThingName                              0x200056fc   Data          20  aws_iot_shadow_records.o(.bss)
    mqttClientID                             0x20005710   Data          80  aws_iot_shadow_records.o(.bss)
    shadowDeltaTopic                         0x20005760   Data          80  aws_iot_shadow_records.o(.bss)
    SubscriptionList                         0x200057b0   Data        1660  aws_iot_shadow_records.o(.bss)
    shadowRxBuf                              0x20005e2c   Data        3073  aws_iot_shadow_records.o(.bss)
    mbedtls_cipher_supported                 0x20008330   Data          52  cipher_wrap.o(.bss)
    socket_ipv4_multicast_memberships        0x200084a4   Data          72  lwip_sockets.o(.bss)
    ip_data                                  0x2000869c   Data          24  lwip_ip.o(.bss)
    ram_heap                                 0x200086b4   Data        4115  lwip_mem.o(.bss)
    memp_memory_UDP_PCB_base                 0x200096c8   Data         423  lwip_memp.o(.bss)
    memp_memory_TCP_PCB_base                 0x20009880   Data         983  lwip_memp.o(.bss)
    memp_memory_TCP_SEG_base                 0x20009c78   Data         963  lwip_memp.o(.bss)
    memp_memory_REASSDATA_base               0x2000a04c   Data         383  lwip_memp.o(.bss)
    memp_memory_FRAG_PBUF_base               0x2000a1dc   Data        1023  lwip_memp.o(.bss)
    memp_memory_NETBUF_base                  0x2000a5ec   Data         483  lwip_memp.o(.bss)
    memp_memory_NETCONN_base                 0x2000a7e0   Data         555  lwip_memp.o(.bss)
    memp_memory_TCPIP_MSG_API_base           0x2000aa1c   Data         483  lwip_memp.o(.bss)
    memp_memory_TCPIP_MSG_INPKT_base         0x2000ac10   Data         483  lwip_memp.o(.bss)
    memp_memory_IGMP_GROUP_base              0x2000ae04   Data         483  lwip_memp.o(.bss)
    memp_memory_SYS_TIMEOUT_base             0x2000aff8   Data         963  lwip_memp.o(.bss)
    memp_memory_NETDB_base                   0x2000b3cc   Data         227  lwip_memp.o(.bss)
    memp_memory_PBUF_base                    0x2000b4c0   Data         923  lwip_memp.o(.bss)
    memp_memory_PBUF_POOL_base               0x2000b86c   Data        6843  lwip_memp.o(.bss)
    lwip_stats                               0x2000d338   Data          96  lwip_stats.o(.bss)
    memp_memory_PPP_PCB_base                 0x2000d3c8   Data         479  lwip_ppp.o(.bss)
    memp_memory_PPPOS_PCB_base               0x2000d5b8   Data         143  lwip_pppos.o(.bss)
    lwip_netif                               0x2000d698   Data          72  lwip_stack.o(.bss)
    __heap_base                              0x2000d728   Data           0  startup_stm32f407xx.o(HEAP)
    __heap_limit                             0x2001d728   Data           0  startup_stm32f407xx.o(HEAP)
    __initial_sp                             0x2001e728   Data           0  startup_stm32f407xx.o(STACK)



==============================================================================

Memory Map of the image

  Image Entry point : 0x0800c189

  Load Region LR_IROM1 (Base: 0x0800c000, Size: 0x0008366c, Max: 0x00074000, ABSOLUTE, COMPRESSED[0x0007340c])

    Execution Region ER_IROM1 (Base: 0x0800c000, Size: 0x000730b0, Max: 0x00074000, ABSOLUTE)

    Base Addr    Size         Type   Attr      Idx    E Section Name        Object

    0x0800c000   0x00000188   Data   RO          532    RESET               startup_stm32f407xx.o
    0x0800c188   0x00000000   Code   RO         7277  * .ARM.Collect$$$$00000000  mc_w.l(entry.o)
    0x0800c188   0x00000004   Code   RO         7663    .ARM.Collect$$$$00000001  mc_w.l(entry2.o)
    0x0800c18c   0x00000004   Code   RO         7666    .ARM.Collect$$$$00000004  mc_w.l(entry5.o)
    0x0800c190   0x00000000   Code   RO         7668    .ARM.Collect$$$$00000008  mc_w.l(entry7b.o)
    0x0800c190   0x00000000   Code   RO         7670    .ARM.Collect$$$$0000000A  mc_w.l(entry8b.o)
    0x0800c190   0x00000008   Code   RO         7671    .ARM.Collect$$$$0000000B  mc_w.l(entry9a.o)
    0x0800c198   0x00000000   Code   RO         7673    .ARM.Collect$$$$0000000D  mc_w.l(entry10a.o)
    0x0800c198   0x00000000   Code   RO         7675    .ARM.Collect$$$$0000000F  mc_w.l(entry11a.o)
    0x0800c198   0x00000004   Code   RO         7664    .ARM.Collect$$$$00002712  mc_w.l(entry2.o)
    0x0800c19c   0x000000ba   Code   RO          136    .emb_text           port.o
    0x0800c256   0x00000002   PAD
    0x0800c258   0x000002a8   Code   RO           49    .text               heap_4.o
    0x0800c500   0x00000be8   Code   RO          115    .text               queue.o
    0x0800d0e8   0x0000030c   Code   RO          137    .text               port.o
    0x0800d3f4   0x000009c0   Code   RO          169    .text               cmsis_os.o
    0x0800ddb4   0x000019f8   Code   RO          220    .text               tasks.o
    0x0800f7ac   0x00000094   Code   RO          243    .text               list.o
    0x0800f840   0x00000114   Code   RO          261    .text               ampm_list.o
    0x0800f954   0x0000030e   Code   RO          276    .text               ampm_sprintf.o
    0x0800fc62   0x00000054   Code   RO          311    .text               data_cmp.o
    0x0800fcb6   0x00000002   PAD
    0x0800fcb8   0x000001e4   Code   RO          348    .text               encoding.o
    0x0800fe9c   0x00000668   Code   RO          388    .text               m_time.o
    0x08010504   0x00000094   Code   RO          429    .text               ringbuf.o
    0x08010598   0x00000340   Code   RO          445    .text               sparser.o
    0x080108d8   0x00000100   Code   RO          468    .text               sys_tick.o
    0x080109d8   0x0000022c   Code   RO          490    .text               sys_time.o
    0x08010c04   0x00000140   Code   RO          511    .text               ampm_filestream.o
    0x08010d44   0x00000024   Code   RO          533    .text               startup_stm32f407xx.o
    0x08010d68   0x000003dc   Code   RO          540    .text               stm32f4xx_hal_flash_ex.o
    0x08011144   0x000001d4   Code   RO          673    .text               stm32f4xx_hal_rng.o
    0x08011318   0x000008ac   Code   RO          701    .text               stm32f4xx_hal_dma.o
    0x08011bc4   0x00000398   Code   RO          730    .text               stm32f4xx_hal_rcc_ex.o
    0x08011f5c   0x00000df2   Code   RO          758    .text               stm32f4xx_hal_rtc_ex.o
    0x08012d4e   0x00000002   PAD
    0x08012d50   0x00000888   Code   RO          842    .text               stm32f4xx_hal_adc_ex.o
    0x080135d8   0x00002800   Code   RO          870    .text               stm32f4xx_hal_tim.o
    0x08015dd8   0x000013ae   Code   RO          898    .text               stm32f4xx_hal_uart.o
    0x08017186   0x00000002   PAD
    0x08017188   0x000003ac   Code   RO          926    .text               stm32f4xx_hal_gpio.o
    0x08017534   0x00000bb8   Code   RO          954    .text               stm32f4xx_hal_rtc.o
    0x080180ec   0x0000005e   Code   RO         1010    .text               stm32f4xx_hal_iwdg.o
    0x0801814a   0x00000002   PAD
    0x0801814c   0x00000384   Code   RO         1038    .text               stm32f4xx_hal_cortex.o
    0x080184d0   0x00000db4   Code   RO         1070    .text               stm32f4xx_hal_tim_ex.o
    0x08019284   0x000001a4   Code   RO         1098    .text               stm32f4xx_hal.o
    0x08019428   0x00000454   Code   RO         1151    .text               stm32f4xx_hal_flash.o
    0x0801987c   0x00000bc0   Code   RO         1182    .text               stm32f4xx_hal_adc.o
    0x0801a43c   0x0000089c   Code   RO         1210    .text               stm32f4xx_hal_rcc.o
    0x0801acd8   0x00001658   Code   RO         1238    .text               stm32f4xx_hal_spi.o
    0x0801c330   0x00000124   Code   RO         1266    .text               system_stm32f4xx.o
    0x0801c454   0x000000b0   Code   RO         1301    .text               stm32f4xx_hal_timebase_tim.o
    0x0801c504   0x0000000e   Code   RO         1330    .text               freertos.o
    0x0801c512   0x00000002   PAD
    0x0801c514   0x0000019c   Code   RO         1345    .text               stm32f4xx_it.o
    0x0801c6b0   0x00000970   Code   RO         1407    .text               main.o
    0x0801d020   0x000009e4   Code   RO         1713    .text               stm32f4xx_hal_msp.o
    0x0801da04   0x00000cd8   Code   RO         1742    .text               system_config.o
    0x0801e6dc   0x00000088   Code   RO         1791    .text               hardware_rng.o
    0x0801e764   0x0000277c   Code   RO         1829    .text               shadow_thing.o
    0x08020ee0   0x000004a0   Code   RO         2012    .text               ntp_server.o
    0x08021380   0x00000244   Code   RO         2118    .text               smartlight.o
    0x080215c4   0x00000290   Code   RO         2200    .text               watchdog.o
    0x08021854   0x00003684   Code   RO         2236    .text               sms_task.o
    0x08024ed8   0x000006e4   Code   RO         2289    .text               sst25.o
    0x080255bc   0x000000c0   Code   RO         2322    .text               io_control.o
    0x0802567c   0x00000064   Code   RO         2341    .text               led.o
    0x080256e0   0x000006a4   Code   RO         2375    .text               ota_backup_server.o
    0x08025d84   0x00000c70   Code   RO         2407    .text               power_sensor.o
    0x080269f4   0x00001f9c   Code   RO         2442    .text               elster_tasks.o
    0x08028990   0x000001b8   Code   RO         2478    .text               uart1.o
    0x08028b48   0x000001c0   Code   RO         2514    .text               uart5.o
    0x08028d08   0x00000068   Code   RO         2550    .text               spi1.o
    0x08028d70   0x000002ac   Code   RO         2579    .text               uart4.o
    0x0802901c   0x000001e4   Code   RO         2615    .text               uart6.o
    0x08029200   0x00000a0c   Code   RO         2651    .text               app_config_task.o
    0x08029c0c   0x000001a4   Code   RO         2688    .text               uart_config_task.o
    0x08029db0   0x000009fc   Code   RO         2719    .text               alarm.o
    0x0802a7ac   0x0000013c   Code   RO         2768    .text               relay.o
    0x0802a8e8   0x000008a0   Code   RO         2800    .text               ampm_gsm_call.o
    0x0802b188   0x00000158   Code   RO         2855    .text               ampm_gsm_common.o
    0x0802b2e0   0x00000264   Code   RO         2876    .text               ampm_gsm_dial_up.o
    0x0802b544   0x00000318   Code   RO         2897    .text               ampm_gsm_io.o
    0x0802b85c   0x0000181c   Code   RO         2920    .text               ampm_gsm_main_task.o
    0x0802d078   0x0000030c   Code   RO         3020    .text               ampm_gsm_ring.o
    0x0802d384   0x00000e24   Code   RO         3050    .text               ampm_gsm_sms.o
    0x0802e1a8   0x00000724   Code   RO         3081    .text               ampm_gsm_startup.o
    0x0802e8cc   0x000000bc   Code   RO         3101    .text               at_command_parser.o
    0x0802e988   0x000000c0   Code   RO         3126    .text               comm.o
    0x0802ea48   0x00000504   Code   RO         3158    .text               pdu.o
    0x0802ef4c   0x00000268   Code   RO         3176    .text               ampm_gsm_sms_api.o
    0x0802f1b4   0x00000554   Code   RO         3195    .text               aws_iot_json_utils.o
    0x0802f708   0x00000320   Code   RO         3221    .text               aws_iot_mqtt_client.o
    0x0802fa28   0x00000776   Code   RO         3318    .text               aws_iot_mqtt_client_common_internal.o
    0x0803019e   0x00000002   PAD
    0x080301a0   0x00000628   Code   RO         3416    .text               aws_iot_mqtt_client_connect.o
    0x080307c8   0x00000416   Code   RO         3511    .text               aws_iot_mqtt_client_publish.o
    0x08030bde   0x00000450   Code   RO         3609    .text               aws_iot_mqtt_client_subscribe.o
    0x0803102e   0x0000025e   Code   RO         3637    .text               aws_iot_mqtt_client_unsubscribe.o
    0x0803128c   0x000002b8   Code   RO         3665    .text               aws_iot_mqtt_client_yield.o
    0x08031544   0x000002a8   Code   RO         3693    .text               aws_iot_shadow.o
    0x080317ec   0x000000aa   Code   RO         3806    .text               aws_iot_shadow_actions.o
    0x08031896   0x00000002   PAD
    0x08031898   0x00000c44   Code   RO         3830    .text               aws_iot_shadow_json.o
    0x080324dc   0x00000bd8   Code   RO         3872    .text               aws_iot_shadow_records.o
    0x080330b4   0x0000007c   Code   RO         3905    .text               aws_timer.o
    0x08033130   0x00000370   Code   RO         3933    .text               net_socket.o
    0x080334a0   0x0000049a   Code   RO         4030    .text               jsmn.o
    0x0803393a   0x00000002   PAD
    0x0803393c   0x00000c3a   Code   RO         4045    .text               network_mbedtls_wrapper.o
    0x08034576   0x00000002   PAD
    0x08034578   0x00001094   Code   RO         4074    .text               aes.o
    0x0803560c   0x000004b0   Code   RO         4107    .text               asn1parse.o
    0x08035abc   0x00000674   Code   RO         4123    .text               asn1write.o
    0x08036130   0x00000374   Code   RO         4142    .text               base64.o
    0x080364a4   0x00002ad0   Code   RO         4163    .text               bignum.o
    0x08038f74   0x00000610   Code   RO         4197    .text               ccm.o
    0x08039584   0x000007dc   Code   RO         4234    .text               cipher.o
    0x08039d60   0x00000130   Code   RO         4265    .text               cipher_wrap.o
    0x08039e90   0x000005f8   Code   RO         4303    .text               ctr_drbg.o
    0x0803a488   0x000006d0   Code   RO         4325    .text               debug.o
    0x0803ab58   0x00000304   Code   RO         4351    .text               ecdh.o
    0x0803ae5c   0x000006ec   Code   RO         4363    .text               ecdsa.o
    0x0803b548   0x00002e64   Code   RO         4384    .text               ecp.o
    0x0803e3ac   0x00000dc8   Code   RO         4410    .text               ecp_curves.o
    0x0803f174   0x000004fa   Code   RO         4425    .text               entropy.o
    0x0803f66e   0x00000002   PAD
    0x0803f670   0x00000e08   Code   RO         4501    .text               gcm.o
    0x08040478   0x000004fc   Code   RO         4528    .text               hmac_drbg.o
    0x08040974   0x0000043c   Code   RO         4547    .text               md.o
    0x08040db0   0x000001fc   Code   RO         4572    .text               md_wrap.o
    0x08040fac   0x00000b20   Code   RO         4621    .text               memory_buffer_alloc.o
    0x08041acc   0x00000470   Code   RO         4649    .text               oid.o
    0x08041f3c   0x00000194   Code   RO         4675    .text               pem.o
    0x080420d0   0x000003d8   Code   RO         4697    .text               pk.o
    0x080424a8   0x00000498   Code   RO         4716    .text               pk_wrap.o
    0x08042940   0x00000a10   Code   RO         4765    .text               pkparse.o
    0x08043350   0x00000030   Code   RO         4800    .text               platform.o
    0x08043380   0x00001b84   Code   RO         4828    .text               rsa.o
    0x08044f04   0x00001c1c   Code   RO         4845    .text               sha1.o
    0x08046b20   0x00001214   Code   RO         4863    .text               sha256.o
    0x08047d34   0x000015bc   Code   RO         4881    .text               sha512.o
    0x080492f0   0x00000168   Code   RO         4918    .text               ssl_ciphersuites.o
    0x08049458   0x00003be4   Code   RO         4939    .text               ssl_cli.o
    0x0804d03c   0x00006fb8   Code   RO         5021    .text               ssl_tls.o
    0x08053ff4   0x0000092c   Code   RO         5108    .text               x509.o
    0x08054920   0x00002258   Code   RO         5146    .text               x509_crt.o
    0x08056b78   0x00000b10   Code   RO         5193    .text               lwip_api_lib.o
    0x08057688   0x00001b78   Code   RO         5301    .text               lwip_api_msg.o
    0x08059200   0x0000004c   Code   RO         5354    .text               lwip_err.o
    0x0805924c   0x00000390   Code   RO         5387    .text               lwip_netbuf.o
    0x080595dc   0x00000350   Code   RO         5406    .text               lwip_netdb.o
    0x0805992c   0x000026f4   Code   RO         5456    .text               lwip_sockets.o
    0x0805c020   0x00000380   Code   RO         5489    .text               lwip_tcpip.o
    0x0805c3a0   0x000002b4   Code   RO         5537    .text               lwip_net_socket.o
    0x0805c654   0x000003d8   Code   RO         5575    .text               lwip_sys_arch.o
    0x0805ca2c   0x00000158   Code   RO         5633    .text               lwip_def.o
    0x0805cb84   0x00000afc   Code   RO         5650    .text               lwip_dns.o
    0x0805d680   0x000002dc   Code   RO         5689    .text               lwip_inet_chksum.o
    0x0805d95c   0x00000090   Code   RO         5709    .text               lwip_init.o
    0x0805d9ec   0x00000780   Code   RO         5792    .text               lwip_mem.o
    0x0805e16c   0x00000400   Code   RO         5829    .text               lwip_memp.o
    0x0805e56c   0x000003bc   Code   RO         5886    .text               lwip_netif.o
    0x0805e928   0x00001132   Code   RO         5926    .text               lwip_pbuf.o
    0x0805fa5a   0x00000002   PAD
    0x0805fa5c   0x000002dc   Code   RO         5955    .text               lwip_stats.o
    0x0805fd38   0x00001784   Code   RO         5994    .text               lwip_tcp.o
    0x080614bc   0x00001968   Code   RO         6026    .text               lwip_tcp_in.o
    0x08062e24   0x00001260   Code   RO         6067    .text               lwip_tcp_out.o
    0x08064084   0x00000310   Code   RO         6091    .text               lwip_timeouts.o
    0x08064394   0x000006fc   Code   RO         6121    .text               lwip_udp.o
    0x08064a90   0x00000378   Code   RO         6179    .text               lwip_icmp.o
    0x08064e08   0x000009cc   Code   RO         6199    .text               lwip_igmp.o
    0x080657d4   0x00000620   Code   RO         6224    .text               lwip_ip4.o
    0x08065df4   0x00000304   Code   RO         6246    .text               lwip_ip4_addr.o
    0x080660f8   0x00000a08   Code   RO         6274    .text               lwip_ip4_frag.o
    0x08066b00   0x0000036c   Code   RO         6379    .text               lwip_auth.o
    0x08066e6c   0x00000050   Code   RO         6433    .text               lwip_chap-md5.o
    0x08066ebc   0x00000410   Code   RO         6493    .text               lwip_chap-new.o
    0x080672cc   0x00000b3c   Code   RO         6573    .text               lwip_fsm.o
    0x08067e08   0x0000124c   Code   RO         6608    .text               lwip_ipcp.o
    0x08069054   0x00001954   Code   RO         6654    .text               lwip_lcp.o
    0x0806a9a8   0x000000f4   Code   RO         6691    .text               lwip_magic.o
    0x0806aa9c   0x00000670   Code   RO         6748    .text               lwip_ppp.o
    0x0806b10c   0x00000778   Code   RO         6877    .text               lwip_pppos.o
    0x0806b884   0x000007b8   Code   RO         6936    .text               lwip_utils.o
    0x0806c03c   0x00000aa8   Code   RO         7012    .text               lwip_md5.o
    0x0806cae4   0x0000000c   Code   RO         7043    .text               lwip_random.o
    0x0806caf0   0x000000c4   Code   RO         7059    .text               lwip_tcp_isn.o
    0x0806cbb4   0x00000354   Code   RO         7088    .text               lwip_stack.o
    0x0806cf08   0x00000614   Code   RO         7230    .text               ppp_lwip.o
    0x0806d51c   0x00000062   Code   RO         7289    .text               mc_w.l(uldiv.o)
    0x0806d57e   0x0000001e   Code   RO         7291    .text               mc_w.l(llshl.o)
    0x0806d59c   0x00000008   Code   RO         7293    .text               mc_w.l(ctype_o.o)
    0x0806d5a4   0x00000012   Code   RO         7315    .text               mc_w.l(isspace_o.o)
    0x0806d5b6   0x0000000c   Code   RO         7321    .text               mc_w.l(toupper.o)
    0x0806d5c2   0x00000002   PAD
    0x0806d5c4   0x00000024   Code   RO         7323    .text               mc_w.l(rand.o)
    0x0806d5e8   0x00000040   Code   RO         7328    .text               mc_w.l(memmovea.o)
    0x0806d628   0x00000024   Code   RO         7330    .text               mc_w.l(memseta.o)
    0x0806d64c   0x00000018   Code   RO         7332    .text               mc_w.l(strcat.o)
    0x0806d664   0x00000024   Code   RO         7334    .text               mc_w.l(strstr.o)
    0x0806d688   0x00000018   Code   RO         7336    .text               mc_w.l(strncpy.o)
    0x0806d6a0   0x0000000e   Code   RO         7338    .text               mc_w.l(strlen.o)
    0x0806d6ae   0x0000001c   Code   RO         7340    .text               mc_w.l(strcmp.o)
    0x0806d6ca   0x0000001a   Code   RO         7342    .text               mc_w.l(memcmp.o)
    0x0806d6e4   0x00000012   Code   RO         7344    .text               mc_w.l(strcpy.o)
    0x0806d6f6   0x0000001e   Code   RO         7346    .text               mc_w.l(strncmp.o)
    0x0806d714   0x0000001c   Code   RO         7641    .text               mc_w.l(calloc.o)
    0x0806d730   0x00000038   Code   RO         7643    .text               mc_w.l(__0sscanf.o)
    0x0806d768   0x0000014c   Code   RO         7645    .text               mc_w.l(_scanf_int.o)
    0x0806d8b4   0x000000e0   Code   RO         7647    .text               mc_w.l(_scanf_str.o)
    0x0806d994   0x00000338   Code   RO         7649    .text               mc_w.l(scanf_fp.o)
    0x0806dccc   0x0000001a   Code   RO         7653    .text               mc_w.l(atoi.o)
    0x0806dce6   0x0000001a   Code   RO         7655    .text               mc_w.l(atoll.o)
    0x0806dd00   0x000000de   Code   RO         7657    .text               mf_w.l(ddiv.o)
    0x0806ddde   0x00000026   Code   RO         7659    .text               mf_w.l(f2d.o)
    0x0806de04   0x00000038   Code   RO         7661    .text               mf_w.l(d2f.o)
    0x0806de3c   0x0000002c   Code   RO         7677    .text               mc_w.l(uidiv.o)
    0x0806de68   0x00000020   Code   RO         7679    .text               mc_w.l(llushr.o)
    0x0806de88   0x0000001c   Code   RO         7690    .text               mc_w.l(_chval.o)
    0x0806dea4   0x00000028   Code   RO         7692    .text               mc_w.l(scanf_char.o)
    0x0806decc   0x00000040   Code   RO         7694    .text               mc_w.l(_sgetc.o)
    0x0806df0c   0x00000070   Code   RO         7696    .text               mc_w.l(strtol.o)
    0x0806df7c   0x00000090   Code   RO         7698    .text               mc_w.l(__strtoll.o)
    0x0806e00c   0x00000000   Code   RO         7700    .text               mc_w.l(iusefp.o)
    0x0806e00c   0x0000006e   Code   RO         7701    .text               mf_w.l(fepilogue.o)
    0x0806e07a   0x000000ba   Code   RO         7703    .text               mf_w.l(depilogue.o)
    0x0806e134   0x0000014e   Code   RO         7705    .text               mf_w.l(dadd.o)
    0x0806e282   0x000000e4   Code   RO         7707    .text               mf_w.l(dmul.o)
    0x0806e366   0x00000018   Code   RO         7709    .text               mf_w.l(dfltul.o)
    0x0806e37e   0x00000030   Code   RO         7711    .text               mf_w.l(dfixul.o)
    0x0806e3ae   0x00000002   PAD
    0x0806e3b0   0x00000030   Code   RO         7713    .text               mf_w.l(cdrcmple.o)
    0x0806e3e0   0x00000024   Code   RO         7715    .text               mc_w.l(init.o)
    0x0806e404   0x00000024   Code   RO         7717    .text               mc_w.l(llsshr.o)
    0x0806e428   0x0000032c   Code   RO         7721    .text               mc_w.l(_scanf.o)
    0x0806e754   0x0000009e   Code   RO         7723    .text               mc_w.l(_strtoul.o)
    0x0806e7f2   0x000000c2   Code   RO         7725    .text               mc_w.l(_strtoull.o)
    0x0806e8b4   0x00000056   Code   RO         7738    .text               mc_w.l(__dczerorl2.o)
    0x0806e90a   0x00000002   PAD
    0x0806e90c   0x0000001c   Code   RO         7584    i.__0fprintf        mc_w.l(printfa.o)
    0x0806e928   0x00000020   Code   RO         7585    i.__0printf         mc_w.l(printfa.o)
    0x0806e948   0x00000030   Code   RO         7586    i.__0snprintf       mc_w.l(printfa.o)
    0x0806e978   0x00000028   Code   RO         7587    i.__0sprintf        mc_w.l(printfa.o)
    0x0806e9a0   0x0000002c   Code   RO         7590    i.__0vsnprintf      mc_w.l(printfa.o)
    0x0806e9cc   0x00000024   Code   RO         7591    i.__0vsprintf       mc_w.l(printfa.o)
    0x0806e9f0   0x00000008   Code   RO         7683    i.__aeabi_errno_addr  mc_w.l(errno.o)
    0x0806e9f8   0x0000000e   Code   RO         7732    i.__scatterload_copy  mc_w.l(handlers.o)
    0x0806ea06   0x00000002   Code   RO         7733    i.__scatterload_null  mc_w.l(handlers.o)
    0x0806ea08   0x0000000e   Code   RO         7734    i.__scatterload_zeroinit  mc_w.l(handlers.o)
    0x0806ea16   0x00000002   PAD
    0x0806ea18   0x00000184   Code   RO         7592    i._fp_digits        mc_w.l(printfa.o)
    0x0806eb9c   0x0000000e   Code   RO         7651    i._is_digit         mc_w.l(scanf_fp.o)
    0x0806ebaa   0x00000002   PAD
    0x0806ebac   0x000006dc   Code   RO         7593    i._printf_core      mc_w.l(printfa.o)
    0x0806f288   0x00000024   Code   RO         7594    i._printf_post_padding  mc_w.l(printfa.o)
    0x0806f2ac   0x0000002e   Code   RO         7595    i._printf_pre_padding  mc_w.l(printfa.o)
    0x0806f2da   0x00000016   Code   RO         7596    i._snputc           mc_w.l(printfa.o)
    0x0806f2f0   0x0000000a   Code   RO         7597    i._sputc            mc_w.l(printfa.o)
    0x0806f2fa   0x00000034   Code   RO         7282    i.fread             mc_w.l(fread.o)
    0x0806f32e   0x00000002   PAD
    0x0806f330   0x00000050   Code   RO         7613    i.free              mc_w.l(malloc.o)
    0x0806f380   0x00000024   Code   RO         7280    i.fwrite            mc_w.l(fwrite.o)
    0x0806f3a4   0x0000006c   Code   RO         7614    i.malloc            mc_w.l(malloc.o)
    0x0806f410   0x00000060   Data   RO          389    .constdata          m_time.o
    0x0806f470   0x00000008   Data   RO          702    .constdata          stm32f4xx_hal_dma.o
    0x0806f478   0x00000018   Data   RO         1267    .constdata          system_stm32f4xx.o
    0x0806f490   0x00000020   Data   RO         1409    .constdata          main.o
    0x0806f4b0   0x00000004   Data   RO         1745    .constdata          system_config.o
    0x0806f4b4   0x00000450   Data   RO         1831    .constdata          shadow_thing.o
    0x0806f904   0x00000014   Data   RO         2014    .constdata          ntp_server.o
    0x0806f918   0x00000010   Data   RO         2202    .constdata          watchdog.o
    0x0806f928   0x00000004   Data   RO         2290    .constdata          sst25.o
    0x0806f92c   0x00000004   Data   RO         2323    .constdata          io_control.o
    0x0806f930   0x00000014   Data   RO         2377    .constdata          ota_backup_server.o
    0x0806f944   0x00000a98   Data   RO         2444    .constdata          elster_tasks.o
    0x080703dc   0x00000004   Data   RO         2653    .constdata          app_config_task.o
    0x080703e0   0x00000004   Data   RO         2769    .constdata          relay.o
    0x080703e4   0x00000210   Data   RO         2802    .constdata          ampm_gsm_call.o
    0x080705f4   0x00000188   Data   RO         2857    .constdata          ampm_gsm_common.o
    0x0807077c   0x00000114   Data   RO         2878    .constdata          ampm_gsm_dial_up.o
    0x08070890   0x0000102c   Data   RO         2922    .constdata          ampm_gsm_main_task.o
    0x080718bc   0x00000350   Data   RO         3052    .constdata          ampm_gsm_sms.o
    0x08071c0c   0x00000047   Data   RO         3103    .constdata          at_command_parser.o
    0x08071c53   0x000000d2   Data   RO         3196    .constdata          aws_iot_json_utils.o
    0x08071d25   0x00000003   PAD
    0x08071d28   0x000000f6   Data   RO         3222    .constdata          aws_iot_mqtt_client.o
    0x08071e1e   0x00000002   PAD
    0x08071e20   0x0000003c   Data   RO         3694    .constdata          aws_iot_shadow.o
    0x08071e5c   0x0000003b   Data   RO         3832    .constdata          aws_iot_shadow_json.o
    0x08071e97   0x00000028   Data   RO         3874    .constdata          aws_iot_shadow_records.o
    0x08071ebf   0x00000521   Data   RO         4046    .constdata          network_mbedtls_wrapper.o
    0x080723e0   0x000022e8   Data   RO         4075    .constdata          aes.o
    0x080746c8   0x00000159   Data   RO         4143    .constdata          base64.o
    0x08074821   0x00000003   PAD
    0x08074824   0x00000024   Data   RO         4164    .constdata          bignum.o
    0x08074848   0x000000d8   Data   RO         4198    .constdata          ccm.o
    0x08074920   0x000048c0   Data   RO         4221    .constdata          certs.o
    0x080791e0   0x0000020c   Data   RO         4267    .constdata          cipher_wrap.o
    0x080793ec   0x000000e0   Data   RO         4304    .constdata          ctr_drbg.o
    0x080794cc   0x0000003c   Data   RO         4385    .constdata          ecp.o
    0x08079508   0x00000190   Data   RO         4411    .constdata          ecp_curves.o
    0x08079698   0x00000c08   Data   RO         4502    .constdata          gcm.o
    0x0807a2a0   0x00000100   Data   RO         4529    .constdata          hmac_drbg.o
    0x0807a3a0   0x00000018   Data   RO         4548    .constdata          md.o
    0x0807a3b8   0x000000f0   Data   RO         4573    .constdata          md_wrap.o
    0x0807a4a8   0x000004bc   Data   RO         4650    .constdata          oid.o
    0x0807a964   0x000000f0   Data   RO         4717    .constdata          pk_wrap.o
    0x0807aa54   0x00000134   Data   RO         4846    .constdata          sha1.o
    0x0807ab88   0x000002b8   Data   RO         4864    .constdata          sha256.o
    0x0807ae40   0x000005e0   Data   RO         4882    .constdata          sha512.o
    0x0807b420   0x0000066c   Data   RO         4920    .constdata          ssl_ciphersuites.o
    0x0807ba8c   0x000000d8   Data   RO         5147    .constdata          x509_crt.o
    0x0807bb64   0x00000044   Data   RO         5355    .constdata          lwip_err.o
    0x0807bba8   0x0000000c   Data   RO         5576    .constdata          lwip_sys_arch.o
    0x0807bbb4   0x00000268   Data   RO         5831    .constdata          lwip_memp.o
    0x0807be1c   0x00000050   Data   RO         5995    .constdata          lwip_tcp.o
    0x0807be6c   0x00000020   Data   RO         6092    .constdata          lwip_timeouts.o
    0x0807be8c   0x00000008   Data   RO         6248    .constdata          lwip_ip4_addr.o
    0x0807be94   0x00000010   Data   RO         6434    .constdata          lwip_chap-md5.o
    0x0807bea4   0x00000028   Data   RO         6494    .constdata          lwip_chap-new.o
    0x0807becc   0x0000005c   Data   RO         6609    .constdata          lwip_ipcp.o
    0x0807bf28   0x0000005c   Data   RO         6655    .constdata          lwip_lcp.o
    0x0807bf84   0x00000024   Data   RO         6750    .constdata          lwip_ppp.o
    0x0807bfa8   0x00000230   Data   RO         6879    .constdata          lwip_pppos.o
    0x0807c1d8   0x00000040   Data   RO         7013    .constdata          lwip_md5.o
    0x0807c218   0x00000004   Data   RO         7090    .constdata          lwip_stack.o
    0x0807c21c   0x00000081   Data   RO         7294    .constdata          mc_w.l(ctype_o.o)
    0x0807c29d   0x00000003   PAD
    0x0807c2a0   0x00000004   Data   RO         7295    .constdata          mc_w.l(ctype_o.o)
    0x0807c2a4   0x0000000c   Data   RO         1410    .conststring        main.o
    0x0807c2b0   0x000001ec   Data   RO         1832    .conststring        shadow_thing.o
    0x0807c49c   0x00000009   Data   RO         2015    .conststring        ntp_server.o
    0x0807c4a5   0x00000003   PAD
    0x0807c4a8   0x000000e9   Data   RO         2239    .conststring        sms_task.o
    0x0807c591   0x00000003   PAD
    0x0807c594   0x00000009   Data   RO         2378    .conststring        ota_backup_server.o
    0x0807c59d   0x00000003   PAD
    0x0807c5a0   0x00000297   Data   RO         2445    .conststring        elster_tasks.o
    0x0807c837   0x00000001   PAD
    0x0807c838   0x0000006a   Data   RO         2803    .conststring        ampm_gsm_call.o
    0x0807c8a2   0x00000002   PAD
    0x0807c8a4   0x000000c4   Data   RO         2858    .conststring        ampm_gsm_common.o
    0x0807c968   0x00000009   Data   RO         2899    .conststring        ampm_gsm_io.o
    0x0807c971   0x00000003   PAD
    0x0807c974   0x0000005a   Data   RO         2923    .conststring        ampm_gsm_main_task.o
    0x0807c9ce   0x00000002   PAD
    0x0807c9d0   0x00000025   Data   RO         3053    .conststring        ampm_gsm_sms.o
    0x0807c9f5   0x00000003   PAD
    0x0807c9f8   0x00000059   Data   RO         3104    .conststring        at_command_parser.o
    0x0807ca51   0x00000003   PAD
    0x0807ca54   0x00000125   Data   RO         4047    .conststring        network_mbedtls_wrapper.o
    0x0807cb79   0x00000003   PAD
    0x0807cb7c   0x0000036d   Data   RO         4165    .conststring        bignum.o
    0x0807cee9   0x00000003   PAD
    0x0807ceec   0x00000090   Data   RO         4268    .conststring        cipher_wrap.o
    0x0807cf7c   0x0000014d   Data   RO         4386    .conststring        ecp.o
    0x0807d0c9   0x00000003   PAD
    0x0807d0cc   0x00000027   Data   RO         4574    .conststring        md_wrap.o
    0x0807d0f3   0x00000001   PAD
    0x0807d0f4   0x000000b5   Data   RO         4623    .conststring        memory_buffer_alloc.o
    0x0807d1a9   0x00000003   PAD
    0x0807d1ac   0x0000092f   Data   RO         4651    .conststring        oid.o
    0x0807dadb   0x00000001   PAD
    0x0807dadc   0x0000001c   Data   RO         4718    .conststring        pk_wrap.o
    0x0807daf8   0x00000499   Data   RO         4829    .conststring        rsa.o
    0x0807df91   0x00000003   PAD
    0x0807df94   0x00000431   Data   RO         4921    .conststring        ssl_ciphersuites.o
    0x0807e3c5   0x00000003   PAD
    0x0807e3c8   0x000000a4   Data   RO         4940    .conststring        ssl_cli.o
    0x0807e46c   0x00000126   Data   RO         5022    .conststring        ssl_tls.o
    0x0807e592   0x00000002   PAD
    0x0807e594   0x00000406   Data   RO         5148    .conststring        x509_crt.o
    0x0807e99a   0x00000002   PAD
    0x0807e99c   0x00000139   Data   RO         5356    .conststring        lwip_err.o
    0x0807ead5   0x00000003   PAD
    0x0807ead8   0x00000048   Data   RO         5634    .conststring        lwip_def.o
    0x0807eb20   0x00000045   Data   RO         5690    .conststring        lwip_inet_chksum.o
    0x0807eb65   0x00000003   PAD
    0x0807eb68   0x00000041   Data   RO         5710    .conststring        lwip_init.o
    0x0807eba9   0x00000003   PAD
    0x0807ebac   0x000000ac   Data   RO         5832    .conststring        lwip_memp.o
    0x0807ec58   0x0000006d   Data   RO         5996    .conststring        lwip_tcp.o
    0x0807ecc5   0x00000003   PAD
    0x0807ecc8   0x00000099   Data   RO         6068    .conststring        lwip_tcp_out.o
    0x0807ed61   0x00000003   PAD
    0x0807ed64   0x00000042   Data   RO         6093    .conststring        lwip_timeouts.o
    0x0807eda6   0x00000002   PAD
    0x0807eda8   0x00000043   Data   RO         6180    .conststring        lwip_icmp.o
    0x0807edeb   0x00000001   PAD
    0x0807edec   0x00000085   Data   RO         6200    .conststring        lwip_igmp.o
    0x0807ee71   0x00000003   PAD
    0x0807ee74   0x00000042   Data   RO         6225    .conststring        lwip_ip4.o
    0x0807eeb6   0x00000002   PAD
    0x0807eeb8   0x00000047   Data   RO         6249    .conststring        lwip_ip4_addr.o
    0x0807eeff   0x00000001   PAD
    0x0807ef00   0x00000047   Data   RO         6275    .conststring        lwip_ip4_frag.o
    0x0807ef47   0x00000001   PAD
    0x0807ef48   0x00000042   Data   RO         6574    .conststring        lwip_fsm.o
    0x0807ef8a   0x00000002   PAD
    0x0807ef8c   0x00000005   Data   RO         6610    .conststring        lwip_ipcp.o
    0x0807ef91   0x00000003   PAD
    0x0807ef94   0x00000004   Data   RO         6656    .conststring        lwip_lcp.o
    0x0807ef98   0x0000004a   Data   RO         6751    .conststring        lwip_ppp.o
    0x0807efe2   0x00000002   PAD
    0x0807efe4   0x00000050   Data   RO         6880    .conststring        lwip_pppos.o
    0x0807f034   0x00000044   Data   RO         6937    .conststring        lwip_utils.o
    0x0807f078   0x00000006   Data   RO         4652    .conststrlit        oid.o
    0x0807f07e   0x00000002   PAD
    0x0807f080   0x00000030   Data   RO         7730    Region$$Table       anon$$obj.o


    Execution Region RW_IRAM2 (Base: 0x10000000, Size: 0x0000ff64, Max: 0x0000ff80, ABSOLUTE, COMPRESSED[0x00000204])

    Base Addr    Size         Type   Attr      Idx    E Section Name        Object

    0x10000000   0x0000f800   Data   RW         1412    osRam               main.o
    0x1000f800   0x00000624   Data   RW         1747    osRam               system_config.o
    0x1000fe24   0x00000100   Data   RW         2292    osRam               sst25.o
    0x1000ff24   0x00000040   Data   RW         2380    osRam               ota_backup_server.o


    Execution Region RW_IRAM1 (Base: 0x20000000, Size: 0x0001e728, Max: 0x00020000, ABSOLUTE, COMPRESSED[0x00000158])

    Base Addr    Size         Type   Attr      Idx    E Section Name        Object

    0x20000000   0x00000018   Data   RW           50    .data               heap_4.o
    0x20000018   0x0000000c   Data   RW          138    .data               port.o
    0x20000024   0x00000044   Data   RW          222    .data               tasks.o
    0x20000068   0x0000000c   Data   RW          390    .data               m_time.o
    0x20000074   0x00000001   Data   RW          446    .data               sparser.o
    0x20000075   0x00000003   PAD
    0x20000078   0x00000010   Data   RW          469    .data               sys_tick.o
    0x20000088   0x00000024   Data   RW          491    .data               sys_time.o
    0x200000ac   0x00000004   Data   RW         1099    .data               stm32f4xx_hal.o
    0x200000b0   0x00000004   Data   RW         1268    .data               system_stm32f4xx.o
    0x200000b4   0x00000020   Data   RW         1411    .data               main.o
    0x200000d4   0x00000008   Data   RW         1746    .data               system_config.o
    0x200000dc   0x00000024   Data   RW         1833    .data               shadow_thing.o
    0x20000100   0x00000009   Data   RW         2016    .data               ntp_server.o
    0x20000109   0x00000003   PAD
    0x2000010c   0x0000000c   Data   RW         2120    .data               smartlight.o
    0x20000118   0x00000034   Data   RW         2203    .data               watchdog.o
    0x2000014c   0x0000000c   Data   RW         2240    .data               sms_task.o
    0x20000158   0x0000000c   Data   RW         2291    .data               sst25.o
    0x20000164   0x00000004   Data   RW         2324    .data               io_control.o
    0x20000168   0x0000000c   Data   RW         2379    .data               ota_backup_server.o
    0x20000174   0x0000000d   Data   RW         2409    .data               power_sensor.o
    0x20000181   0x00000003   PAD
    0x20000184   0x00000077   Data   RW         2446    .data               elster_tasks.o
    0x200001fb   0x00000001   PAD
    0x200001fc   0x00000005   Data   RW         2480    .data               uart1.o
    0x20000201   0x00000003   PAD
    0x20000204   0x00000005   Data   RW         2516    .data               uart5.o
    0x20000209   0x00000003   PAD
    0x2000020c   0x00000009   Data   RW         2581    .data               uart4.o
    0x20000215   0x00000003   PAD
    0x20000218   0x00000005   Data   RW         2617    .data               uart6.o
    0x2000021d   0x00000003   PAD
    0x20000220   0x00000022   Data   RW         2654    .data               app_config_task.o
    0x20000242   0x00000002   PAD
    0x20000244   0x00000010   Data   RW         2690    .data               uart_config_task.o
    0x20000254   0x00000002   Data   RW         2720    .data               alarm.o
    0x20000256   0x00000002   PAD
    0x20000258   0x00000004   Data   RW         2770    .data               relay.o
    0x2000025c   0x0000001e   Data   RW         2804    .data               ampm_gsm_call.o
    0x2000027a   0x00000002   PAD
    0x2000027c   0x00000027   Data   RW         2859    .data               ampm_gsm_common.o
    0x200002a3   0x00000002   Data   RW         2880    .data               ampm_gsm_dial_up.o
    0x200002a5   0x00000003   PAD
    0x200002a8   0x00000026   Data   RW         2900    .data               ampm_gsm_io.o
    0x200002ce   0x00000002   PAD
    0x200002d0   0x00000050   Data   RW         2924    .data               ampm_gsm_main_task.o
    0x20000320   0x00000012   Data   RW         3021    .data               ampm_gsm_ring.o
    0x20000332   0x00000002   PAD
    0x20000334   0x00000050   Data   RW         3054    .data               ampm_gsm_sms.o
    0x20000384   0x0000001c   Data   RW         3084    .data               ampm_gsm_startup.o
    0x200003a0   0x00000014   Data   RW         3105    .data               at_command_parser.o
    0x200003b4   0x00000001   Data   RW         3128    .data               comm.o
    0x200003b5   0x00000003   PAD
    0x200003b8   0x00000004   Data   RW         3833    .data               aws_iot_shadow_json.o
    0x200003bc   0x00000011   Data   RW         3875    .data               aws_iot_shadow_records.o
    0x200003cd   0x00000003   PAD
    0x200003d0   0x0000002c   Data   RW         4222    .data               certs.o
    0x200003fc   0x00000004   Data   RW         4235    .data               cipher.o
    0x20000400   0x00000004   Data   RW         4305    .data               ctr_drbg.o
    0x20000404   0x00000004   Data   RW         4326    .data               debug.o
    0x20000408   0x00000014   Data   RW         4387    .data               ecp.o
    0x2000041c   0x00000004   Data   RW         4412    .data               ecp_curves.o
    0x20000420   0x00000004   Data   RW         4530    .data               hmac_drbg.o
    0x20000424   0x0000000c   Data   RW         4801    .data               platform.o
    0x20000430   0x00000004   Data   RW         4922    .data               ssl_ciphersuites.o
    0x20000434   0x00000047   Data   RW         5023    .data               ssl_tls.o
    0x2000047b   0x00000001   Data   RW         5302    .data               lwip_api_msg.o
    0x2000047c   0x00000044   Data   RW         5357    .data               lwip_err.o
    0x200004c0   0x00000014   Data   RW         5408    .data               lwip_netdb.o
    0x200004d4   0x00000008   Data   RW         5458    .data               lwip_sockets.o
    0x200004dc   0x00000010   Data   RW         5490    .data               lwip_tcpip.o
    0x200004ec   0x0000000c   Data   RW         5577    .data               lwip_sys_arch.o
    0x200004f8   0x00000014   Data   RW         5653    .data               lwip_dns.o
    0x2000050c   0x00000010   Data   RW         5794    .data               lwip_mem.o
    0x2000051c   0x00000040   Data   RW         5833    .data               lwip_memp.o
    0x2000055c   0x00000009   Data   RW         5887    .data               lwip_netif.o
    0x20000565   0x00000003   PAD
    0x20000568   0x0000001b   Data   RW         5997    .data               lwip_tcp.o
    0x20000583   0x00000001   PAD
    0x20000584   0x00000028   Data   RW         6028    .data               lwip_tcp_in.o
    0x200005ac   0x0000000c   Data   RW         6094    .data               lwip_timeouts.o
    0x200005b8   0x00000008   Data   RW         6122    .data               lwip_udp.o
    0x200005c0   0x00000008   Data   RW         6201    .data               lwip_igmp.o
    0x200005c8   0x00000008   Data   RW         6226    .data               lwip_ip4.o
    0x200005d0   0x00000006   Data   RW         6276    .data               lwip_ip4_frag.o
    0x200005d6   0x00000002   PAD
    0x200005d8   0x00000008   Data   RW         6693    .data               lwip_magic.o
    0x200005e0   0x00000004   Data   RW         6752    .data               lwip_ppp.o
    0x200005e4   0x00000004   Data   RW         6881    .data               lwip_pppos.o
    0x200005e8   0x00000011   Data   RW         6938    .data               lwip_utils.o
    0x200005f9   0x00000003   PAD
    0x200005fc   0x00000004   Data   RW         7061    .data               lwip_tcp_isn.o
    0x20000600   0x00000018   Data   RW         7091    .data               lwip_stack.o
    0x20000618   0x00000024   Data   RW         7232    .data               ppp_lwip.o
    0x2000063c   0x00000004   Data   RW         7286    .data               mc_w.l(stdin.o)
    0x20000640   0x00000004   Data   RW         7287    .data               mc_w.l(stdout.o)
    0x20000644   0x00000004   Data   RW         7288    .data               mc_w.l(stderr.o)
    0x20000648   0x00000004   Data   RW         7324    .data               mc_w.l(rand.o)
    0x2000064c   0x00000004   Data   RW         7681    .data               mc_w.l(mvars.o)
    0x20000650   0x00000004   Data   RW         7682    .data               mc_w.l(mvars.o)
    0x20000654   0x00000004   Data   RW         7686    .data               mc_w.l(errno.o)
    0x20000658   0x00000040   Zero   RW          116    .bss                queue.o
    0x20000698   0x000000f0   Zero   RW          221    .bss                tasks.o
    0x20000788   0x00000020   Zero   RW         1152    .bss                stm32f4xx_hal_flash.o
    0x200007a8   0x0000003c   Zero   RW         1302    .bss                stm32f4xx_hal_timebase_tim.o
    0x200007e4   0x0000074c   Zero   RW         1408    .bss                main.o
    0x20000f30   0x000002a4   Zero   RW         1744    .bss                system_config.o
    0x200011d4   0x00000018   Zero   RW         1830    .bss                shadow_thing.o
    0x200011ec   0x00000030   Zero   RW         2013    .bss                ntp_server.o
    0x2000121c   0x00000024   Zero   RW         2201    .bss                watchdog.o
    0x20001240   0x00000010   Zero   RW         2237    .bss                sms_task.o
    0x20001250   0x00000030   Zero   RW         2342    .bss                led.o
    0x20001280   0x00000018   Zero   RW         2376    .bss                ota_backup_server.o
    0x20001298   0x00000080   Zero   RW         2408    .bss                power_sensor.o
    0x20001318   0x00000783   Zero   RW         2443    .bss                elster_tasks.o
    0x20001a9b   0x00000001   PAD
    0x20001a9c   0x00000610   Zero   RW         2479    .bss                uart1.o
    0x200020ac   0x00000468   Zero   RW         2515    .bss                uart5.o
    0x20002514   0x00000468   Zero   RW         2580    .bss                uart4.o
    0x2000297c   0x00000310   Zero   RW         2616    .bss                uart6.o
    0x20002c8c   0x0000000c   Zero   RW         2652    .bss                app_config_task.o
    0x20002c98   0x0000023c   Zero   RW         2689    .bss                uart_config_task.o
    0x20002ed4   0x000000d4   Zero   RW         2801    .bss                ampm_gsm_call.o
    0x20002fa8   0x00000090   Zero   RW         2856    .bss                ampm_gsm_common.o
    0x20003038   0x0000000c   Zero   RW         2877    .bss                ampm_gsm_dial_up.o
    0x20003044   0x000001e8   Zero   RW         2898    .bss                ampm_gsm_io.o
    0x2000322c   0x000001b4   Zero   RW         2921    .bss                ampm_gsm_main_task.o
    0x200033e0   0x0000015c   Zero   RW         3051    .bss                ampm_gsm_sms.o
    0x2000353c   0x00000134   Zero   RW         3082    .bss                ampm_gsm_startup.o
    0x20003670   0x00000020   Zero   RW         3102    .bss                at_command_parser.o
    0x20003690   0x00000210   Zero   RW         3127    .bss                comm.o
    0x200038a0   0x0000190c   Zero   RW         3831    .bss                aws_iot_shadow_json.o
    0x200051ac   0x00003184   Zero   RW         3873    .bss                aws_iot_shadow_records.o
    0x20008330   0x00000034   Zero   RW         4266    .bss                cipher_wrap.o
    0x20008364   0x0000002c   Zero   RW         4622    .bss                memory_buffer_alloc.o
    0x20008390   0x0000007c   Zero   RW         4919    .bss                ssl_ciphersuites.o
    0x2000840c   0x00000095   Zero   RW         5407    .bss                lwip_netdb.o
    0x200084a1   0x00000003   PAD
    0x200084a4   0x000000c0   Zero   RW         5457    .bss                lwip_sockets.o
    0x20008564   0x00000138   Zero   RW         5651    .bss                lwip_dns.o
    0x2000869c   0x00000018   Zero   RW         5776    .bss                lwip_ip.o
    0x200086b4   0x00001013   Zero   RW         5793    .bss                lwip_mem.o
    0x200096c7   0x00000001   PAD
    0x200096c8   0x00003c70   Zero   RW         5830    .bss                lwip_memp.o
    0x2000d338   0x00000060   Zero   RW         5956    .bss                lwip_stats.o
    0x2000d398   0x00000010   Zero   RW         6027    .bss                lwip_tcp_in.o
    0x2000d3a8   0x00000010   Zero   RW         6247    .bss                lwip_ip4_addr.o
    0x2000d3b8   0x00000010   Zero   RW         6692    .bss                lwip_magic.o
    0x2000d3c8   0x000001f0   Zero   RW         6749    .bss                lwip_ppp.o
    0x2000d5b8   0x000000a0   Zero   RW         6878    .bss                lwip_pppos.o
    0x2000d658   0x00000040   Zero   RW         7060    .bss                lwip_tcp_isn.o
    0x2000d698   0x0000005a   Zero   RW         7089    .bss                lwip_stack.o
    0x2000d6f2   0x00000030   Zero   RW         7231    .bss                ppp_lwip.o
    0x2000d722   0x00000006   PAD
    0x2000d728   0x00010000   Zero   RW          531    HEAP                startup_stm32f407xx.o
    0x2001d728   0x00001000   Zero   RW          530    STACK               startup_stm32f407xx.o



  Load Region LR$$.ARM.__AT_0x1000FF80 (Base: 0x1000ff80, Size: 0x00000000, Max: 0x0000000c, ABSOLUTE)

    Execution Region ER$$.ARM.__AT_0x1000FF80 (Base: 0x1000ff80, Size: 0x0000000c, Max: 0x0000000c, ABSOLUTE, UNINIT)

    Base Addr    Size         Type   Attr      Idx    E Section Name        Object

    0x1000ff80   0x0000000c   Zero   RW         1743    .ARM.__AT_0x1000FF80  system_config.o


==============================================================================

Image component sizes


      Code (inc. data)   RO Data    RW Data    ZI Data      Debug   Object Name

      4244        172       8936          0          0      18198   aes.o
      2556        298          0          2          0       5289   alarm.o
       320         12          0          0          0       4990   ampm_filestream.o
      2208        230        634         30        212      15257   ampm_gsm_call.o
       344         42        588         39        144       3105   ampm_gsm_common.o
       612        240        276          2         12       3576   ampm_gsm_dial_up.o
       792         64          9         38        488       6325   ampm_gsm_io.o
      6172       1934       4230         80        436      19780   ampm_gsm_main_task.o
       780        234          0         18          0       3867   ampm_gsm_ring.o
      3620        520        885         80        348      14757   ampm_gsm_sms.o
       616        142          0          0          0       3803   ampm_gsm_sms_api.o
      1828        638          0         28        308       5165   ampm_gsm_startup.o
       276          0          0          0          0       4471   ampm_list.o
       782          0          0          0          0       3077   ampm_sprintf.o
      2572        130          4         34         12       6738   app_config_task.o
      1200         10          0          0          0       6691   asn1parse.o
      1652          8          0          0          0       7888   asn1write.o
       188         34        160         20         32       2520   at_command_parser.o
      1364        316        210          0          0       5615   aws_iot_json_utils.o
       800         66        246          0          0      42416   aws_iot_mqtt_client.o
      1910         28          0          0          0      47763   aws_iot_mqtt_client_common_internal.o
      1576        236          0          0          0      43262   aws_iot_mqtt_client_connect.o
      1046          0          0          0          0      59429   aws_iot_mqtt_client_publish.o
      1104          0          0          0          0       5402   aws_iot_mqtt_client_subscribe.o
       606          0          0          0          0       3423   aws_iot_mqtt_client_unsubscribe.o
       696          0          0          0          0       2701   aws_iot_mqtt_client_yield.o
       680         64         60          0          0      45107   aws_iot_shadow.o
       170          0          0          0          0       1373   aws_iot_shadow_actions.o
      3140        304         59          4       6412      13953   aws_iot_shadow_json.o
      3032        424         40         17      12676      10152   aws_iot_shadow_records.o
       124          4          0          0          0       2242   aws_timer.o
       884         98        345          0          0       3707   base64.o
     10960        318        913          0          0      27091   bignum.o
      1552         94        216          0          0      11514   ccm.o
         0          0      18624         44          0       7976   certs.o
      2012         48          0          4          0      17044   cipher.o
       304         10        668          0         52      10150   cipher_wrap.o
      2496         18          0          0          0      31109   cmsis_os.o
       192         16          0          1        528       3758   comm.o
         0          0          0          0          0      15400   croutine.o
      1528        108        224          4          0       9563   ctr_drbg.o
        84          0          0          0          0       1936   data_cmp.o
      1744        216          0          4          0       6986   debug.o
       772          4          0          0          0       5379   ecdh.o
      1772         24          0          0          0       8468   ecdsa.o
     11876        312        393         20          0      26966   ecp.o
      3528         70        400          4          0       8237   ecp_curves.o
      8092       1756       3375        119       1923      22211   elster_tasks.o
       484          4          0          0          0       2898   encoding.o
      1274         72          0          0          0       6860   entropy.o
         0          0          0          0          0      10300   error.o
         0          0          0          0          0      10672   event_groups.o
        14          0          0          0          0       1204   freertos.o
      3592        164       3080          0          0      10437   gcm.o
       136         68          0          0          0       1719   hardware_rng.o
       680         26          0         24          0       8273   heap_4.o
      1276        102        256          4          0       7119   hmac_drbg.o
       192          8          4          4          0       2153   io_control.o
      1178          0          0          0          0       4279   jsmn.o
       100         12          0          0         48        955   led.o
       148          0          0          0          0       2306   list.o
      2832        890          0          0          0      43381   lwip_api_lib.o
      7032       1278          0          1          0      31799   lwip_api_msg.o
       876        230          0          0          0      18276   lwip_auth.o
        80          0         16          0          0      15257   lwip_chap-md5.o
      1040        290         40          0          0      17362   lwip_chap-new.o
       344          4         72          0          0       2946   lwip_def.o
      2812        216          0         20        312      17839   lwip_dns.o
        76         24        381         68          0       5975   lwip_err.o
      2876        364         66          0          0      20695   lwip_fsm.o
       888        162         67          0          0       3986   lwip_icmp.o
      2508        736        133          8          0       9733   lwip_igmp.o
       732         18         69          0          0       4908   lwip_inet_chksum.o
       144         70         65          0          0        660   lwip_init.o
         0          0          0          0         24       3174   lwip_ip.o
      1568         98         66          8          0       6705   lwip_ip4.o
       772         28         79          0         16      10674   lwip_ip4_addr.o
      2568        474         71          6          0       8058   lwip_ip4_frag.o
      4684        386         97          0          0      26612   lwip_ipcp.o
      6484        474         96          0          0      32520   lwip_lcp.o
       244         12          0          8         16      16060   lwip_magic.o
      2728        264         64          0          0       5115   lwip_md5.o
      1920        560          0         16       4115       5866   lwip_mem.o
      1024        238        788         64      15472      12538   lwip_memp.o
       692         12          0          0          0       3702   lwip_net_socket.o
       912        382          0          0          0       4461   lwip_netbuf.o
       848        164          0         20        149      12329   lwip_netdb.o
       956        104          0          9          0       9479   lwip_netif.o
      4402       1280          0          0          0      13770   lwip_pbuf.o
      1648        208        110          4        496      23664   lwip_ppp.o
         0          0          0          0          0      10180   lwip_pppapi.o
      1912        112        640          4        160      22523   lwip_pppos.o
        12          0          0          0          0       1032   lwip_random.o
      9972        736          0          8        192      40468   lwip_sockets.o
       852         78          4         24         90      20849   lwip_stack.o
       732        414          0          0         96       6999   lwip_stats.o
       984         56         12         12          0      16457   lwip_sys_arch.o
      6020       1150        189         27          0      26390   lwip_tcp.o
      6504       1060          0         40         16      16781   lwip_tcp_in.o
       196         14          0          4         64       2434   lwip_tcp_isn.o
      4704        788        153          0          0      19626   lwip_tcp_out.o
       896        232          0         16          0       7714   lwip_tcpip.o
       784        104         98         12          0       5389   lwip_timeouts.o
      1788        158          0          8          0       9826   lwip_udp.o
      1976         82         68         17          0      19122   lwip_utils.o
      1640         36         96         12          0       4239   m_time.o
      2416        230         44      63520       1868      49225   main.o
      1084         88         24          0          0      10305   md.o
       508         10        279          0          0       9092   md_wrap.o
      2848        786        181          0         44       7303   memory_buffer_alloc.o
       880        156          0          0          0      19848   net_socket.o
      3130       1092       1606          0          0       7148   network_mbedtls_wrapper.o
      1184        294         29          9         48      15669   ntp_server.o
      1136         46       3569          0          0      12040   oid.o
      1700        460         29         76         24       4017   ota_backup_server.o
      1284          0          0          0          0       5857   pdu.o
       404         46          0          0          0       2864   pem.o
       984         50          0          0          0      11706   pk.o
      1176         60        268          0          0      14211   pk_wrap.o
      2576        282          0          0          0       9954   pkparse.o
        48         14          0         12          0       3925   platform.o
       966         52          0         12          0       9439   port.o
      3184        176          0         13        128       3365   power_sensor.o
      1556        656          0         36         48      11879   ppp_lwip.o
      3048         16          0          0         64      18997   queue.o
       316         20          4          4          0       2215   relay.o
       148          0          0          0          0       2510   ringbuf.o
      7044        300       1177          0          0      21768   rsa.o
      7196         94        308          0          0       6610   sha1.o
      4628        170        696          0          0       6604   sha256.o
      5564        238       1504          0          0       7080   sha512.o
     10108       1564       1596         36         24      59994   shadow_thing.o
       580        134          0         12          0       3284   smartlight.o
     13956       2570        233         12         16      12157   sms_task.o
       832         14          0          1          0       6669   sparser.o
       104         42          0          0          0        602   spi1.o
       360         44       2717          4        124       4616   ssl_ciphersuites.o
     15332       4686        164          0          0      45884   ssl_cli.o
     28600       6510        294         71          0      91111   ssl_tls.o
      1764         42          4        268          0       8173   sst25.o
        36          8        392          0      69632        844   startup_stm32f407xx.o
       420         32          0          4          0       5310   stm32f4xx_hal.o
      3008         74          0          0          0       8739   stm32f4xx_hal_adc.o
      2184         48          0          0          0       6738   stm32f4xx_hal_adc_ex.o
       900         22          0          0          0      32730   stm32f4xx_hal_cortex.o
      2220         26          8          0          0       7353   stm32f4xx_hal_dma.o
      1108         34          0          0         32       4745   stm32f4xx_hal_flash.o
       988          8          0          0          0     742325   stm32f4xx_hal_flash_ex.o
       940         46          0          0          0       3835   stm32f4xx_hal_gpio.o
        94          0          0          0          0       1621   stm32f4xx_hal_iwdg.o
      2532        220          0          0          0       5334   stm32f4xx_hal_msp.o
      2204         66          0          0          0       5419   stm32f4xx_hal_rcc.o
       920         44          0          0          0       2687   stm32f4xx_hal_rcc_ex.o
       468          0          0          0          0       4221   stm32f4xx_hal_rng.o
      3000         26          0          0          0       8505   stm32f4xx_hal_rtc.o
      3570         22          0          0          0      13193   stm32f4xx_hal_rtc_ex.o
      5720        110          0          0          0      17913   stm32f4xx_hal_spi.o
     10240        152          0          0          0      32778   stm32f4xx_hal_tim.o
      3508         24          0          0          0      12606   stm32f4xx_hal_tim_ex.o
       176         18          0          0         60       2047   stm32f4xx_hal_timebase_tim.o
      5038         50          0          0          0      16356   stm32f4xx_hal_uart.o
       412         96          0          0          0      36874   stm32f4xx_it.o
       256         12          0         16          0       3786   sys_tick.o
       556         22          0         36          0       3955   sys_time.o
      3288        276          4       1580        688      19005   system_config.o
       292         38         24          4          0       1801   system_stm32f4xx.o
      6648        400          0         68        240      27301   tasks.o
       440         38          0          5       1552       3054   uart1.o
       684         56          0          9       1128       3616   uart4.o
       448         36          0          5       1128       3055   uart5.o
       484         40          0          5        784       3066   uart6.o
       420         38          0         16        572       2529   uart_config_task.o
       656        148         16         52         36       3986   watchdog.o
      2348        214          0          0          0      10458   x509.o
      8792        974       1246          0          0      25460   x509_crt.o

    ----------------------------------------------------------------------
    398208      48044      64928      66976     123100    2911944   Object Totals
         0          0         48          0          0          0   (incl. Generated)
        24          0         89         50         11          0   (incl. Padding)

    ----------------------------------------------------------------------

      Code (inc. data)   RO Data    RW Data    ZI Data      Debug   Library Member Name

        56          8          0          0          0         84   __0sscanf.o
        86          0          0          0          0          0   __dczerorl2.o
       144          0          0          0          0         88   __strtoll.o
        28          0          0          0          0         68   _chval.o
       812          4          0          0          0        112   _scanf.o
       332          0          0          0          0         96   _scanf_int.o
       224          0          0          0          0         96   _scanf_str.o
        64          0          0          0          0         84   _sgetc.o
       158          0          0          0          0         92   _strtoul.o
       194          0          0          0          0         96   _strtoull.o
        26          0          0          0          0         80   atoi.o
        26          0          0          0          0         80   atoll.o
        28          0          0          0          0         76   calloc.o
         8          4        133          0          0         68   ctype_o.o
         0          0          0          0          0          0   entry.o
         0          0          0          0          0          0   entry10a.o
         0          0          0          0          0          0   entry11a.o
         8          4          0          0          0          0   entry2.o
         4          0          0          0          0          0   entry5.o
         0          0          0          0          0          0   entry7b.o
         0          0          0          0          0          0   entry8b.o
         8          4          0          0          0          0   entry9a.o
         8          4          0          4          0         68   errno.o
        52          0          0          0          0         88   fread.o
        36          0          0          0          0         84   fwrite.o
        30          0          0          0          0          0   handlers.o
        36          8          0          0          0         68   init.o
        18          0          0          0          0         76   isspace_o.o
         0          0          0          0          0          0   iusefp.o
        30          0          0          0          0         68   llshl.o
        36          0          0          0          0         68   llsshr.o
        32          0          0          0          0         68   llushr.o
       188         20          0          0          0        160   malloc.o
        26          0          0          0          0         80   memcmp.o
        64          0          0          0          0         76   memmovea.o
        36          0          0          0          0        108   memseta.o
         0          0          0          8          0          0   mvars.o
      2486        116          0          0          0       1000   printfa.o
        36         10          0          4          0        136   rand.o
        40          8          0          0          0         84   scanf_char.o
       838         12          0          0          0        216   scanf_fp.o
         0          0          0          4          0          0   stderr.o
         0          0          0          4          0          0   stdin.o
         0          0          0          4          0          0   stdout.o
        24          0          0          0          0         68   strcat.o
        28          0          0          0          0         76   strcmp.o
        18          0          0          0          0         68   strcpy.o
        14          0          0          0          0         68   strlen.o
        30          0          0          0          0         80   strncmp.o
        24          0          0          0          0         76   strncpy.o
        36          0          0          0          0         80   strstr.o
       112          0          0          0          0         88   strtol.o
        12          0          0          0          0         68   toupper.o
        44          0          0          0          0         80   uidiv.o
        98          0          0          0          0         92   uldiv.o
        48          0          0          0          0         68   cdrcmple.o
        56          0          0          0          0         88   d2f.o
       334          0          0          0          0        148   dadd.o
       222          0          0          0          0        100   ddiv.o
       186          0          0          0          0        176   depilogue.o
        48          0          0          0          0         68   dfixul.o
        24          0          0          0          0         76   dfltul.o
       228          0          0          0          0         96   dmul.o
        38          0          0          0          0         68   f2d.o
       110          0          0          0          0        168   fepilogue.o

    ----------------------------------------------------------------------
      7944        202        136         28          0       5468   Library Totals
        12          0          3          0          0          0   (incl. Padding)

    ----------------------------------------------------------------------

      Code (inc. data)   RO Data    RW Data    ZI Data      Debug   Library Name

      6638        202        133         28          0       4412   mc_w.l
      1294          0          0          0          0       1056   mf_w.l

    ----------------------------------------------------------------------
      7944        202        136         28          0       5468   Library Totals

    ----------------------------------------------------------------------

==============================================================================


      Code (inc. data)   RO Data    RW Data    ZI Data      Debug   

    406152      48246      65064      67004     123100    2877076   Grand Totals
    406152      48246      65064        860     123100    2877076   ELF Image Totals (compressed)
    406152      48246      65064        860          0          0   ROM Totals

==============================================================================

    Total RO  Size (Code + RO Data)               471216 ( 460.17kB)
    Total RW  Size (RW Data + ZI Data)            190104 ( 185.65kB)
    Total ROM Size (Code + RO Data + RW Data)     472076 ( 461.01kB)

==============================================================================

